
========================================================================

** ELF Header Information

    File Name: .\obj\SmartGloves_APROM.axf

    Machine class: ELFCLASS32 (32-bit)
    Data encoding: ELFDATA2LSB (Little endian)
    Header version: EV_CURRENT (Current version)
    Operating System ABI: none
    ABI Version: 0
    File Type: ET_EXEC (Executable) (2)
    Machine: EM_ARM (ARM)

    Image Entry point: 0x0000019d
    Flags: EF_ARM_HASENTRY + EF_ARM_ABI_FLOAT_SOFT (0x05000202)

    ARM ELF revision: 5 (ABI version 2)

    Conforms to Soft float procedure-call standard

    Built with
    Component: ARM Compiler 5.06 update 5 (build 528) Tool: armasm [4d35e1]
    Component: ARM Compiler 5.05 update 1 (build 106) Tool: armasm [4d0efa]
    Component: ARM Compiler 5.05 update 1 (build 106) Tool: armcc [4d0efa]
    Component: ARM Compiler 5.06 update 5 (build 528) Tool: armlink [4d35e2]
    Component: ARM Compiler 5.05 update 1 (build 106) Tool: armlink [4d0efa]

    Header size: 52 bytes (0x34)
    Program header entry size: 32 bytes (0x20)
    Section header entry size: 40 bytes (0x28)

    Program header entries: 1
    Section header entries: 16

    Program header offset: 360376 (0x00057fb8)
    Section header offset: 360408 (0x00057fd8)

    Section header string table index: 15

========================================================================

** Program header #0 (PT_LOAD) [PF_X + PF_W + PF_R + PF_ARM_ENTRY]
    Size : 40224 bytes (28284 bytes in file)
    Virtual address: 0x00000000 (Alignment 8)


========================================================================

** Section #1 'ER_RO' (SHT_PROGBITS) [SHF_ALLOC + SHF_EXECINSTR]
    Size   : 28200 bytes (alignment 4)
    Address: 0x00000000

    $d.realdata
    RESET
    __Vectors
        0x00000000:    20002ef8    ...     DCD    536882936
        0x00000004:    0000019d    ....    DCD    413
        0x00000008:    000001b9    ....    DCD    441
        0x0000000c:    000001bb    ....    DCD    443
        0x00000010:    00000000    ....    DCD    0
        0x00000014:    00000000    ....    DCD    0
        0x00000018:    00000000    ....    DCD    0
        0x0000001c:    00000000    ....    DCD    0
        0x00000020:    00000000    ....    DCD    0
        0x00000024:    00000000    ....    DCD    0
        0x00000028:    00000000    ....    DCD    0
        0x0000002c:    000001bd    ....    DCD    445
        0x00000030:    00000000    ....    DCD    0
        0x00000034:    00000000    ....    DCD    0
        0x00000038:    000001bf    ....    DCD    447
        0x0000003c:    000001c1    ....    DCD    449
        0x00000040:    000001c3    ....    DCD    451
        0x00000044:    000001c3    ....    DCD    451
        0x00000048:    000001c3    ....    DCD    451
        0x0000004c:    000001c3    ....    DCD    451
        0x00000050:    00004191    .A..    DCD    16785
        0x00000054:    000001c3    ....    DCD    451
        0x00000058:    000001c3    ....    DCD    451
        0x0000005c:    000001c3    ....    DCD    451
        0x00000060:    00005119    .Q..    DCD    20761
        0x00000064:    00005161    aQ..    DCD    20833
        0x00000068:    000001c3    ....    DCD    451
        0x0000006c:    000001c3    ....    DCD    451
        0x00000070:    000001c3    ....    DCD    451
        0x00000074:    000001c3    ....    DCD    451
        0x00000078:    000001c3    ....    DCD    451
        0x0000007c:    000001c3    ....    DCD    451
        0x00000080:    000001c3    ....    DCD    451
        0x00000084:    000001c3    ....    DCD    451
        0x00000088:    000001c3    ....    DCD    451
        0x0000008c:    000001c3    ....    DCD    451
        0x00000090:    000001c3    ....    DCD    451
        0x00000094:    000001c3    ....    DCD    451
        0x00000098:    000001c3    ....    DCD    451
        0x0000009c:    000001c3    ....    DCD    451
        0x000000a0:    000001c3    ....    DCD    451
        0x000000a4:    000001c3    ....    DCD    451
        0x000000a8:    00004cb5    .L..    DCD    19637
        0x000000ac:    000001c3    ....    DCD    451
        0x000000b0:    000001c3    ....    DCD    451
        0x000000b4:    000001c3    ....    DCD    451
        0x000000b8:    000001c3    ....    DCD    451
        0x000000bc:    000001c3    ....    DCD    451
    $t
    !!!main
    __main
        0x000000c0:    f000f802    ....    BL       __scatterload ; 0xc8
        0x000000c4:    f000f83e    ..>.    BL       __rt_entry ; 0x144
    !!!scatter
    __scatterload
    __scatterload_rt2
    __scatterload_rt2_thumb_only
        0x000000c8:    a00c        ..      ADR      r0,{pc}+0x34 ; 0xfc
        0x000000ca:    c830        0.      LDM      r0!,{r4,r5}
        0x000000cc:    3808        .8      SUBS     r0,r0,#8
        0x000000ce:    1824        $.      ADDS     r4,r4,r0
        0x000000d0:    182d        -.      ADDS     r5,r5,r0
        0x000000d2:    46a2        .F      MOV      r10,r4
        0x000000d4:    1e67        g.      SUBS     r7,r4,#1
        0x000000d6:    46ab        .F      MOV      r11,r5
    __scatterload_null
        0x000000d8:    4654        TF      MOV      r4,r10
        0x000000da:    465d        ]F      MOV      r5,r11
        0x000000dc:    42ac        .B      CMP      r4,r5
        0x000000de:    d101        ..      BNE      0xe4 ; __scatterload_null + 12
        0x000000e0:    f000f830    ..0.    BL       __rt_entry ; 0x144
        0x000000e4:    467e        ~F      MOV      r6,pc
        0x000000e6:    3e0f        .>      SUBS     r6,r6,#0xf
        0x000000e8:    cc0f        ..      LDM      r4!,{r0-r3}
        0x000000ea:    46b6        .F      MOV      lr,r6
        0x000000ec:    2601        .&      MOVS     r6,#1
        0x000000ee:    4233        3B      TST      r3,r6
        0x000000f0:    d000        ..      BEQ      0xf4 ; __scatterload_null + 28
        0x000000f2:    1afb        ..      SUBS     r3,r7,r3
        0x000000f4:    46a2        .F      MOV      r10,r4
        0x000000f6:    46ab        .F      MOV      r11,r5
        0x000000f8:    4333        3C      ORRS     r3,r3,r6
        0x000000fa:    4718        .G      BX       r3
    $d
        0x000000fc:    00006d0c    .m..    DCD    27916
        0x00000100:    00006d2c    ,m..    DCD    27948
    $t
    !!handler_copy
    __scatterload_copy
        0x00000104:    3a10        .:      SUBS     r2,r2,#0x10
        0x00000106:    d302        ..      BCC      0x10e ; __scatterload_copy + 10
        0x00000108:    c878        x.      LDM      r0!,{r3-r6}
        0x0000010a:    c178        x.      STM      r1!,{r3-r6}
        0x0000010c:    d8fa        ..      BHI      __scatterload_copy ; 0x104
        0x0000010e:    0752        R.      LSLS     r2,r2,#29
        0x00000110:    d301        ..      BCC      0x116 ; __scatterload_copy + 18
        0x00000112:    c830        0.      LDM      r0!,{r4,r5}
        0x00000114:    c130        0.      STM      r1!,{r4,r5}
        0x00000116:    d501        ..      BPL      0x11c ; __scatterload_copy + 24
        0x00000118:    6804        .h      LDR      r4,[r0,#0]
        0x0000011a:    600c        .`      STR      r4,[r1,#0]
        0x0000011c:    4770        pG      BX       lr
        0x0000011e:    0000        ..      MOVS     r0,r0
    !!handler_zi
    __scatterload_zeroinit
        0x00000120:    2300        .#      MOVS     r3,#0
        0x00000122:    2400        .$      MOVS     r4,#0
        0x00000124:    2500        .%      MOVS     r5,#0
        0x00000126:    2600        .&      MOVS     r6,#0
        0x00000128:    3a10        .:      SUBS     r2,r2,#0x10
        0x0000012a:    d301        ..      BCC      0x130 ; __scatterload_zeroinit + 16
        0x0000012c:    c178        x.      STM      r1!,{r3-r6}
        0x0000012e:    d8fb        ..      BHI      0x128 ; __scatterload_zeroinit + 8
        0x00000130:    0752        R.      LSLS     r2,r2,#29
        0x00000132:    d300        ..      BCC      0x136 ; __scatterload_zeroinit + 22
        0x00000134:    c130        0.      STM      r1!,{r4,r5}
        0x00000136:    d500        ..      BPL      0x13a ; __scatterload_zeroinit + 26
        0x00000138:    600b        .`      STR      r3,[r1,#0]
        0x0000013a:    4770        pG      BX       lr
    .ARM.Collect$$libinit$$00000000
    __rt_lib_init
        0x0000013c:    b51f        ..      PUSH     {r0-r4,lr}
    .ARM.Collect$$libinit$$00000002
    .ARM.Collect$$libinit$$00000004
    .ARM.Collect$$libinit$$0000000A
    .ARM.Collect$$libinit$$0000000C
    .ARM.Collect$$libinit$$0000000E
    .ARM.Collect$$libinit$$00000011
    .ARM.Collect$$libinit$$00000013
    .ARM.Collect$$libinit$$00000015
    .ARM.Collect$$libinit$$00000017
    .ARM.Collect$$libinit$$00000019
    .ARM.Collect$$libinit$$0000001B
    .ARM.Collect$$libinit$$0000001D
    .ARM.Collect$$libinit$$0000001F
    .ARM.Collect$$libinit$$00000021
    .ARM.Collect$$libinit$$00000023
    .ARM.Collect$$libinit$$00000025
    .ARM.Collect$$libinit$$0000002C
    .ARM.Collect$$libinit$$0000002E
    .ARM.Collect$$libinit$$00000030
    .ARM.Collect$$libinit$$00000032
    .ARM.Collect$$libinit$$00000033
    __rt_lib_init_alloca_1
    __rt_lib_init_argv_1
    __rt_lib_init_atexit_1
    __rt_lib_init_clock_1
    __rt_lib_init_cpp_1
    __rt_lib_init_exceptions_1
    __rt_lib_init_fp_1
    __rt_lib_init_fp_trap_1
    __rt_lib_init_getenv_1
    __rt_lib_init_heap_1
    __rt_lib_init_lc_collate_1
    __rt_lib_init_lc_ctype_1
    __rt_lib_init_lc_monetary_1
    __rt_lib_init_lc_numeric_1
    __rt_lib_init_lc_time_1
    __rt_lib_init_preinit_1
    __rt_lib_init_rand_1
    __rt_lib_init_return
    __rt_lib_init_signal_1
    __rt_lib_init_stdio_1
    __rt_lib_init_user_alloc_1
        0x0000013e:    bd1f        ..      POP      {r0-r4,pc}
    .ARM.Collect$$libshutdown$$00000000
    __rt_lib_shutdown
        0x00000140:    b510        ..      PUSH     {r4,lr}
    .ARM.Collect$$libshutdown$$00000002
    .ARM.Collect$$libshutdown$$00000004
    .ARM.Collect$$libshutdown$$00000007
    .ARM.Collect$$libshutdown$$0000000A
    .ARM.Collect$$libshutdown$$0000000C
    .ARM.Collect$$libshutdown$$0000000F
    .ARM.Collect$$libshutdown$$00000010
    __rt_lib_shutdown_cpp_1
    __rt_lib_shutdown_fp_trap_1
    __rt_lib_shutdown_heap_1
    __rt_lib_shutdown_return
    __rt_lib_shutdown_signal_1
    __rt_lib_shutdown_stdio_1
    __rt_lib_shutdown_user_alloc_1
        0x00000142:    bd10        ..      POP      {r4,pc}
    .ARM.Collect$$rtentry$$00000000
    .ARM.Collect$$rtentry$$00000002
    .ARM.Collect$$rtentry$$00000004
    __rt_entry
    __rt_entry_presh_1
    __rt_entry_sh
        0x00000144:    f000f951    ..Q.    BL       __user_setup_stackheap ; 0x3ea
        0x00000148:    4611        .F      MOV      r1,r2
    .ARM.Collect$$rtentry$$00000009
    .ARM.Collect$$rtentry$$0000000A
    __rt_entry_li
    __rt_entry_postsh_1
        0x0000014a:    f7fffff7    ....    BL       __rt_lib_init ; 0x13c
    .ARM.Collect$$rtentry$$0000000C
    .ARM.Collect$$rtentry$$0000000D
    __rt_entry_main
    __rt_entry_postli_1
        0x0000014e:    f005f924    ..$.    BL       main ; 0x539a
        0x00000152:    f000f969    ..i.    BL       exit ; 0x428
    .ARM.Collect$$rtexit$$00000000
    __rt_exit
        0x00000156:    b403        ..      PUSH     {r0,r1}
    .ARM.Collect$$rtexit$$00000002
    .ARM.Collect$$rtexit$$00000003
    __rt_exit_ls
    __rt_exit_prels_1
        0x00000158:    f7fffff2    ....    BL       __rt_lib_shutdown ; 0x140
    .ARM.Collect$$rtexit$$00000004
    __rt_exit_exit
        0x0000015c:    bc03        ..      POP      {r0,r1}
        0x0000015e:    f000f96f    ..o.    BL       _sys_exit ; 0x440
        0x00000162:    0000        ..      MOVS     r0,r0
    .emb_text
    __aeabi_memcpy4
    __aeabi_memcpy8
        0x00000164:    b570        p.      PUSH     {r4-r6,lr}
        0x00000166:    4605        .F      MOV      r5,r0
        0x00000168:    460c        .F      MOV      r4,r1
        0x0000016a:    4616        .F      MOV      r6,r2
        0x0000016c:    e002        ..      B        0x174 ; __aeabi_memcpy4 + 16
        0x0000016e:    cc0f        ..      LDM      r4!,{r0-r3}
        0x00000170:    c50f        ..      STM      r5!,{r0-r3}
        0x00000172:    3e10        .>      SUBS     r6,r6,#0x10
        0x00000174:    2e10        ..      CMP      r6,#0x10
        0x00000176:    d2fa        ..      BCS      0x16e ; __aeabi_memcpy4 + 10
        0x00000178:    2e08        ..      CMP      r6,#8
        0x0000017a:    d302        ..      BCC      0x182 ; __aeabi_memcpy4 + 30
        0x0000017c:    cc03        ..      LDM      r4!,{r0,r1}
        0x0000017e:    c503        ..      STM      r5!,{r0,r1}
        0x00000180:    3e08        .>      SUBS     r6,r6,#8
        0x00000182:    2e04        ..      CMP      r6,#4
        0x00000184:    d307        ..      BCC      0x196 ; __aeabi_memcpy4 + 50
        0x00000186:    cc01        ..      LDM      r4!,{r0}
        0x00000188:    c501        ..      STM      r5!,{r0}
        0x0000018a:    1f36        6.      SUBS     r6,r6,#4
        0x0000018c:    e003        ..      B        0x196 ; __aeabi_memcpy4 + 50
        0x0000018e:    7821        !x      LDRB     r1,[r4,#0]
        0x00000190:    7029        )p      STRB     r1,[r5,#0]
        0x00000192:    1c64        d.      ADDS     r4,r4,#1
        0x00000194:    1c6d        m.      ADDS     r5,r5,#1
        0x00000196:    1e76        v.      SUBS     r6,r6,#1
        0x00000198:    d2f9        ..      BCS      0x18e ; __aeabi_memcpy4 + 42
        0x0000019a:    bd70        p.      POP      {r4-r6,pc}
    .text
    Reset_Handler
        0x0000019c:    480c        .H      LDR      r0,[pc,#48] ; [0x1d0] = 0x50000100
        0x0000019e:    490d        .I      LDR      r1,[pc,#52] ; [0x1d4] = 0x59
        0x000001a0:    6001        .`      STR      r1,[r0,#0]
        0x000001a2:    490d        .I      LDR      r1,[pc,#52] ; [0x1d8] = 0x16
        0x000001a4:    6001        .`      STR      r1,[r0,#0]
        0x000001a6:    490d        .I      LDR      r1,[pc,#52] ; [0x1dc] = 0x88
        0x000001a8:    6001        .`      STR      r1,[r0,#0]
        0x000001aa:    4a0d        .J      LDR      r2,[pc,#52] ; [0x1e0] = 0x50000024
        0x000001ac:    490d        .I      LDR      r1,[pc,#52] ; [0x1e4] = 0x5aa5
        0x000001ae:    6011        .`      STR      r1,[r2,#0]
        0x000001b0:    2100        .!      MOVS     r1,#0
        0x000001b2:    6001        .`      STR      r1,[r0,#0]
        0x000001b4:    480c        .H      LDR      r0,[pc,#48] ; [0x1e8] = 0xc1
        0x000001b6:    4700        .G      BX       r0
    NMI_Handler
        0x000001b8:    e7fe        ..      B        NMI_Handler ; 0x1b8
    HardFault_Handler
        0x000001ba:    e7fe        ..      B        HardFault_Handler ; 0x1ba
    SVC_Handler
        0x000001bc:    e7fe        ..      B        SVC_Handler ; 0x1bc
    PendSV_Handler
        0x000001be:    e7fe        ..      B        PendSV_Handler ; 0x1be
    SysTick_Handler
        0x000001c0:    e7fe        ..      B        SysTick_Handler ; 0x1c0
    Default_Handler
    ACMP_IRQHandler
    ADC_IRQHandler
    ALC_IRQHandler
    BOD_IRQHandler
    CAPS_IRQHandler
    EINT0_IRQHandler
    EINT1_IRQHandler
    I2C0_IRQHandler
    I2S_IRQHandler
    PWM0_IRQHandler
    RTC_IRQHandler
    SPI0_IRQHandler
    TALARM_IRQHandler
    UART0_IRQHandler
    WDT_IRQHandler
        0x000001c2:    e7fe        ..      B        Default_Handler ; 0x1c2
    __user_initial_stackheap
        0x000001c4:    4809        .H      LDR      r0,[pc,#36] ; [0x1ec] = 0x200028f8
        0x000001c6:    490a        .I      LDR      r1,[pc,#40] ; [0x1f0] = 0x20002ef8
        0x000001c8:    4a0a        .J      LDR      r2,[pc,#40] ; [0x1f4] = 0x20002af8
        0x000001ca:    4b0b        .K      LDR      r3,[pc,#44] ; [0x1f8] = 0x20002af8
        0x000001cc:    4770        pG      BX       lr
    $d
        0x000001ce:    0000        ..      DCW    0
        0x000001d0:    50000100    ...P    DCD    1342177536
        0x000001d4:    00000059    Y...    DCD    89
        0x000001d8:    00000016    ....    DCD    22
        0x000001dc:    00000088    ....    DCD    136
        0x000001e0:    50000024    $..P    DCD    1342177316
        0x000001e4:    00005aa5    .Z..    DCD    23205
        0x000001e8:    000000c1    ....    DCD    193
        0x000001ec:    200028f8    .(.     DCD    536881400
        0x000001f0:    20002ef8    ...     DCD    536882936
        0x000001f4:    20002af8    .*.     DCD    536881912
        0x000001f8:    20002af8    .*.     DCD    536881912
    $t
    .text
    __aeabi_uidiv
    __aeabi_uidivmod
        0x000001fc:    2200        ."      MOVS     r2,#0
        0x000001fe:    0903        ..      LSRS     r3,r0,#4
        0x00000200:    428b        .B      CMP      r3,r1
        0x00000202:    d373        s.      BCC      0x2ec ; __aeabi_idiv + 212
        0x00000204:    0a03        ..      LSRS     r3,r0,#8
        0x00000206:    428b        .B      CMP      r3,r1
        0x00000208:    d358        X.      BCC      0x2bc ; __aeabi_idiv + 164
        0x0000020a:    0b03        ..      LSRS     r3,r0,#12
        0x0000020c:    428b        .B      CMP      r3,r1
        0x0000020e:    d33c        <.      BCC      0x28a ; __aeabi_idiv + 114
        0x00000210:    0c03        ..      LSRS     r3,r0,#16
        0x00000212:    428b        .B      CMP      r3,r1
        0x00000214:    d321        !.      BCC      0x25a ; __aeabi_idiv + 66
        0x00000216:    e012        ..      B        0x23e ; __aeabi_idiv + 38
    __aeabi_idiv
    __aeabi_idivmod
        0x00000218:    4603        .F      MOV      r3,r0
        0x0000021a:    430b        .C      ORRS     r3,r3,r1
        0x0000021c:    d47f        ..      BMI      0x31e ; __aeabi_idiv + 262
        0x0000021e:    2200        ."      MOVS     r2,#0
        0x00000220:    0843        C.      LSRS     r3,r0,#1
        0x00000222:    428b        .B      CMP      r3,r1
        0x00000224:    d374        t.      BCC      0x310 ; __aeabi_idiv + 248
        0x00000226:    0903        ..      LSRS     r3,r0,#4
        0x00000228:    428b        .B      CMP      r3,r1
        0x0000022a:    d35f        _.      BCC      0x2ec ; __aeabi_idiv + 212
        0x0000022c:    0a03        ..      LSRS     r3,r0,#8
        0x0000022e:    428b        .B      CMP      r3,r1
        0x00000230:    d344        D.      BCC      0x2bc ; __aeabi_idiv + 164
        0x00000232:    0b03        ..      LSRS     r3,r0,#12
        0x00000234:    428b        .B      CMP      r3,r1
        0x00000236:    d328        (.      BCC      0x28a ; __aeabi_idiv + 114
        0x00000238:    0c03        ..      LSRS     r3,r0,#16
        0x0000023a:    428b        .B      CMP      r3,r1
        0x0000023c:    d30d        ..      BCC      0x25a ; __aeabi_idiv + 66
        0x0000023e:    22ff        ."      MOVS     r2,#0xff
        0x00000240:    0209        ..      LSLS     r1,r1,#8
        0x00000242:    ba12        ..      REV      r2,r2
        0x00000244:    0c03        ..      LSRS     r3,r0,#16
        0x00000246:    428b        .B      CMP      r3,r1
        0x00000248:    d302        ..      BCC      0x250 ; __aeabi_idiv + 56
        0x0000024a:    1212        ..      ASRS     r2,r2,#8
        0x0000024c:    0209        ..      LSLS     r1,r1,#8
        0x0000024e:    d065        e.      BEQ      0x31c ; __aeabi_idiv + 260
        0x00000250:    0b03        ..      LSRS     r3,r0,#12
        0x00000252:    428b        .B      CMP      r3,r1
        0x00000254:    d319        ..      BCC      0x28a ; __aeabi_idiv + 114
        0x00000256:    e000        ..      B        0x25a ; __aeabi_idiv + 66
        0x00000258:    0a09        ..      LSRS     r1,r1,#8
        0x0000025a:    0bc3        ..      LSRS     r3,r0,#15
        0x0000025c:    428b        .B      CMP      r3,r1
        0x0000025e:    d301        ..      BCC      0x264 ; __aeabi_idiv + 76
        0x00000260:    03cb        ..      LSLS     r3,r1,#15
        0x00000262:    1ac0        ..      SUBS     r0,r0,r3
        0x00000264:    4152        RA      ADCS     r2,r2,r2
        0x00000266:    0b83        ..      LSRS     r3,r0,#14
        0x00000268:    428b        .B      CMP      r3,r1
        0x0000026a:    d301        ..      BCC      0x270 ; __aeabi_idiv + 88
        0x0000026c:    038b        ..      LSLS     r3,r1,#14
        0x0000026e:    1ac0        ..      SUBS     r0,r0,r3
        0x00000270:    4152        RA      ADCS     r2,r2,r2
        0x00000272:    0b43        C.      LSRS     r3,r0,#13
        0x00000274:    428b        .B      CMP      r3,r1
        0x00000276:    d301        ..      BCC      0x27c ; __aeabi_idiv + 100
        0x00000278:    034b        K.      LSLS     r3,r1,#13
        0x0000027a:    1ac0        ..      SUBS     r0,r0,r3
        0x0000027c:    4152        RA      ADCS     r2,r2,r2
        0x0000027e:    0b03        ..      LSRS     r3,r0,#12
        0x00000280:    428b        .B      CMP      r3,r1
        0x00000282:    d301        ..      BCC      0x288 ; __aeabi_idiv + 112
        0x00000284:    030b        ..      LSLS     r3,r1,#12
        0x00000286:    1ac0        ..      SUBS     r0,r0,r3
        0x00000288:    4152        RA      ADCS     r2,r2,r2
        0x0000028a:    0ac3        ..      LSRS     r3,r0,#11
        0x0000028c:    428b        .B      CMP      r3,r1
        0x0000028e:    d301        ..      BCC      0x294 ; __aeabi_idiv + 124
        0x00000290:    02cb        ..      LSLS     r3,r1,#11
        0x00000292:    1ac0        ..      SUBS     r0,r0,r3
        0x00000294:    4152        RA      ADCS     r2,r2,r2
        0x00000296:    0a83        ..      LSRS     r3,r0,#10
        0x00000298:    428b        .B      CMP      r3,r1
        0x0000029a:    d301        ..      BCC      0x2a0 ; __aeabi_idiv + 136
        0x0000029c:    028b        ..      LSLS     r3,r1,#10
        0x0000029e:    1ac0        ..      SUBS     r0,r0,r3
        0x000002a0:    4152        RA      ADCS     r2,r2,r2
        0x000002a2:    0a43        C.      LSRS     r3,r0,#9
        0x000002a4:    428b        .B      CMP      r3,r1
        0x000002a6:    d301        ..      BCC      0x2ac ; __aeabi_idiv + 148
        0x000002a8:    024b        K.      LSLS     r3,r1,#9
        0x000002aa:    1ac0        ..      SUBS     r0,r0,r3
        0x000002ac:    4152        RA      ADCS     r2,r2,r2
        0x000002ae:    0a03        ..      LSRS     r3,r0,#8
        0x000002b0:    428b        .B      CMP      r3,r1
        0x000002b2:    d301        ..      BCC      0x2b8 ; __aeabi_idiv + 160
        0x000002b4:    020b        ..      LSLS     r3,r1,#8
        0x000002b6:    1ac0        ..      SUBS     r0,r0,r3
        0x000002b8:    4152        RA      ADCS     r2,r2,r2
        0x000002ba:    d2cd        ..      BCS      0x258 ; __aeabi_idiv + 64
        0x000002bc:    09c3        ..      LSRS     r3,r0,#7
        0x000002be:    428b        .B      CMP      r3,r1
        0x000002c0:    d301        ..      BCC      0x2c6 ; __aeabi_idiv + 174
        0x000002c2:    01cb        ..      LSLS     r3,r1,#7
        0x000002c4:    1ac0        ..      SUBS     r0,r0,r3
        0x000002c6:    4152        RA      ADCS     r2,r2,r2
        0x000002c8:    0983        ..      LSRS     r3,r0,#6
        0x000002ca:    428b        .B      CMP      r3,r1
        0x000002cc:    d301        ..      BCC      0x2d2 ; __aeabi_idiv + 186
        0x000002ce:    018b        ..      LSLS     r3,r1,#6
        0x000002d0:    1ac0        ..      SUBS     r0,r0,r3
        0x000002d2:    4152        RA      ADCS     r2,r2,r2
        0x000002d4:    0943        C.      LSRS     r3,r0,#5
        0x000002d6:    428b        .B      CMP      r3,r1
        0x000002d8:    d301        ..      BCC      0x2de ; __aeabi_idiv + 198
        0x000002da:    014b        K.      LSLS     r3,r1,#5
        0x000002dc:    1ac0        ..      SUBS     r0,r0,r3
        0x000002de:    4152        RA      ADCS     r2,r2,r2
        0x000002e0:    0903        ..      LSRS     r3,r0,#4
        0x000002e2:    428b        .B      CMP      r3,r1
        0x000002e4:    d301        ..      BCC      0x2ea ; __aeabi_idiv + 210
        0x000002e6:    010b        ..      LSLS     r3,r1,#4
        0x000002e8:    1ac0        ..      SUBS     r0,r0,r3
        0x000002ea:    4152        RA      ADCS     r2,r2,r2
        0x000002ec:    08c3        ..      LSRS     r3,r0,#3
        0x000002ee:    428b        .B      CMP      r3,r1
        0x000002f0:    d301        ..      BCC      0x2f6 ; __aeabi_idiv + 222
        0x000002f2:    00cb        ..      LSLS     r3,r1,#3
        0x000002f4:    1ac0        ..      SUBS     r0,r0,r3
        0x000002f6:    4152        RA      ADCS     r2,r2,r2
        0x000002f8:    0883        ..      LSRS     r3,r0,#2
        0x000002fa:    428b        .B      CMP      r3,r1
        0x000002fc:    d301        ..      BCC      0x302 ; __aeabi_idiv + 234
        0x000002fe:    008b        ..      LSLS     r3,r1,#2
        0x00000300:    1ac0        ..      SUBS     r0,r0,r3
        0x00000302:    4152        RA      ADCS     r2,r2,r2
        0x00000304:    0843        C.      LSRS     r3,r0,#1
        0x00000306:    428b        .B      CMP      r3,r1
        0x00000308:    d301        ..      BCC      0x30e ; __aeabi_idiv + 246
        0x0000030a:    004b        K.      LSLS     r3,r1,#1
        0x0000030c:    1ac0        ..      SUBS     r0,r0,r3
        0x0000030e:    4152        RA      ADCS     r2,r2,r2
        0x00000310:    1a41        A.      SUBS     r1,r0,r1
        0x00000312:    d200        ..      BCS      0x316 ; __aeabi_idiv + 254
        0x00000314:    4601        .F      MOV      r1,r0
        0x00000316:    4152        RA      ADCS     r2,r2,r2
        0x00000318:    4610        .F      MOV      r0,r2
        0x0000031a:    4770        pG      BX       lr
        0x0000031c:    e05d        ].      B        0x3da ; __aeabi_idiv + 450
        0x0000031e:    0fca        ..      LSRS     r2,r1,#31
        0x00000320:    d000        ..      BEQ      0x324 ; __aeabi_idiv + 268
        0x00000322:    4249        IB      RSBS     r1,r1,#0
        0x00000324:    1003        ..      ASRS     r3,r0,#32
        0x00000326:    d300        ..      BCC      0x32a ; __aeabi_idiv + 274
        0x00000328:    4240        @B      RSBS     r0,r0,#0
        0x0000032a:    4053        S@      EORS     r3,r3,r2
        0x0000032c:    2200        ."      MOVS     r2,#0
        0x0000032e:    469c        .F      MOV      r12,r3
        0x00000330:    0903        ..      LSRS     r3,r0,#4
        0x00000332:    428b        .B      CMP      r3,r1
        0x00000334:    d32d        -.      BCC      0x392 ; __aeabi_idiv + 378
        0x00000336:    0a03        ..      LSRS     r3,r0,#8
        0x00000338:    428b        .B      CMP      r3,r1
        0x0000033a:    d312        ..      BCC      0x362 ; __aeabi_idiv + 330
        0x0000033c:    22fc        ."      MOVS     r2,#0xfc
        0x0000033e:    0189        ..      LSLS     r1,r1,#6
        0x00000340:    ba12        ..      REV      r2,r2
        0x00000342:    0a03        ..      LSRS     r3,r0,#8
        0x00000344:    428b        .B      CMP      r3,r1
        0x00000346:    d30c        ..      BCC      0x362 ; __aeabi_idiv + 330
        0x00000348:    0189        ..      LSLS     r1,r1,#6
        0x0000034a:    1192        ..      ASRS     r2,r2,#6
        0x0000034c:    428b        .B      CMP      r3,r1
        0x0000034e:    d308        ..      BCC      0x362 ; __aeabi_idiv + 330
        0x00000350:    0189        ..      LSLS     r1,r1,#6
        0x00000352:    1192        ..      ASRS     r2,r2,#6
        0x00000354:    428b        .B      CMP      r3,r1
        0x00000356:    d304        ..      BCC      0x362 ; __aeabi_idiv + 330
        0x00000358:    0189        ..      LSLS     r1,r1,#6
        0x0000035a:    d03a        :.      BEQ      0x3d2 ; __aeabi_idiv + 442
        0x0000035c:    1192        ..      ASRS     r2,r2,#6
        0x0000035e:    e000        ..      B        0x362 ; __aeabi_idiv + 330
        0x00000360:    0989        ..      LSRS     r1,r1,#6
        0x00000362:    09c3        ..      LSRS     r3,r0,#7
        0x00000364:    428b        .B      CMP      r3,r1
        0x00000366:    d301        ..      BCC      0x36c ; __aeabi_idiv + 340
        0x00000368:    01cb        ..      LSLS     r3,r1,#7
        0x0000036a:    1ac0        ..      SUBS     r0,r0,r3
        0x0000036c:    4152        RA      ADCS     r2,r2,r2
        0x0000036e:    0983        ..      LSRS     r3,r0,#6
        0x00000370:    428b        .B      CMP      r3,r1
        0x00000372:    d301        ..      BCC      0x378 ; __aeabi_idiv + 352
        0x00000374:    018b        ..      LSLS     r3,r1,#6
        0x00000376:    1ac0        ..      SUBS     r0,r0,r3
        0x00000378:    4152        RA      ADCS     r2,r2,r2
        0x0000037a:    0943        C.      LSRS     r3,r0,#5
        0x0000037c:    428b        .B      CMP      r3,r1
        0x0000037e:    d301        ..      BCC      0x384 ; __aeabi_idiv + 364
        0x00000380:    014b        K.      LSLS     r3,r1,#5
        0x00000382:    1ac0        ..      SUBS     r0,r0,r3
        0x00000384:    4152        RA      ADCS     r2,r2,r2
        0x00000386:    0903        ..      LSRS     r3,r0,#4
        0x00000388:    428b        .B      CMP      r3,r1
        0x0000038a:    d301        ..      BCC      0x390 ; __aeabi_idiv + 376
        0x0000038c:    010b        ..      LSLS     r3,r1,#4
        0x0000038e:    1ac0        ..      SUBS     r0,r0,r3
        0x00000390:    4152        RA      ADCS     r2,r2,r2
        0x00000392:    08c3        ..      LSRS     r3,r0,#3
        0x00000394:    428b        .B      CMP      r3,r1
        0x00000396:    d301        ..      BCC      0x39c ; __aeabi_idiv + 388
        0x00000398:    00cb        ..      LSLS     r3,r1,#3
        0x0000039a:    1ac0        ..      SUBS     r0,r0,r3
        0x0000039c:    4152        RA      ADCS     r2,r2,r2
        0x0000039e:    0883        ..      LSRS     r3,r0,#2
        0x000003a0:    428b        .B      CMP      r3,r1
        0x000003a2:    d301        ..      BCC      0x3a8 ; __aeabi_idiv + 400
        0x000003a4:    008b        ..      LSLS     r3,r1,#2
        0x000003a6:    1ac0        ..      SUBS     r0,r0,r3
        0x000003a8:    4152        RA      ADCS     r2,r2,r2
        0x000003aa:    d2d9        ..      BCS      0x360 ; __aeabi_idiv + 328
        0x000003ac:    0843        C.      LSRS     r3,r0,#1
        0x000003ae:    428b        .B      CMP      r3,r1
        0x000003b0:    d301        ..      BCC      0x3b6 ; __aeabi_idiv + 414
        0x000003b2:    004b        K.      LSLS     r3,r1,#1
        0x000003b4:    1ac0        ..      SUBS     r0,r0,r3
        0x000003b6:    4152        RA      ADCS     r2,r2,r2
        0x000003b8:    1a41        A.      SUBS     r1,r0,r1
        0x000003ba:    d200        ..      BCS      0x3be ; __aeabi_idiv + 422
        0x000003bc:    4601        .F      MOV      r1,r0
        0x000003be:    4663        cF      MOV      r3,r12
        0x000003c0:    4152        RA      ADCS     r2,r2,r2
        0x000003c2:    105b        [.      ASRS     r3,r3,#1
        0x000003c4:    4610        .F      MOV      r0,r2
        0x000003c6:    d301        ..      BCC      0x3cc ; __aeabi_idiv + 436
        0x000003c8:    4240        @B      RSBS     r0,r0,#0
        0x000003ca:    2b00        .+      CMP      r3,#0
        0x000003cc:    d500        ..      BPL      0x3d0 ; __aeabi_idiv + 440
        0x000003ce:    4249        IB      RSBS     r1,r1,#0
        0x000003d0:    4770        pG      BX       lr
        0x000003d2:    4663        cF      MOV      r3,r12
        0x000003d4:    105b        [.      ASRS     r3,r3,#1
        0x000003d6:    d300        ..      BCC      0x3da ; __aeabi_idiv + 450
        0x000003d8:    4240        @B      RSBS     r0,r0,#0
        0x000003da:    b501        ..      PUSH     {r0,lr}
        0x000003dc:    2000        .       MOVS     r0,#0
        0x000003de:    46c0        .F      MOV      r8,r8
        0x000003e0:    46c0        .F      MOV      r8,r8
        0x000003e2:    bd02        ..      POP      {r1,pc}
    .text
    __use_two_region_memory
        0x000003e4:    4770        pG      BX       lr
    __rt_heap_escrow$2region
        0x000003e6:    4770        pG      BX       lr
    __rt_heap_expand$2region
        0x000003e8:    4770        pG      BX       lr
    .text
    __user_setup_stackheap
        0x000003ea:    4675        uF      MOV      r5,lr
        0x000003ec:    f000f824    ..$.    BL       __user_libspace ; 0x438
        0x000003f0:    46ae        .F      MOV      lr,r5
        0x000003f2:    0005        ..      MOVS     r5,r0
        0x000003f4:    4669        iF      MOV      r1,sp
        0x000003f6:    4653        SF      MOV      r3,r10
        0x000003f8:    08c0        ..      LSRS     r0,r0,#3
        0x000003fa:    00c0        ..      LSLS     r0,r0,#3
        0x000003fc:    4685        .F      MOV      sp,r0
        0x000003fe:    b018        ..      ADD      sp,sp,#0x60
        0x00000400:    b520         .      PUSH     {r5,lr}
        0x00000402:    f7fffedf    ....    BL       __user_initial_stackheap ; 0x1c4
        0x00000406:    bc60        `.      POP      {r5,r6}
        0x00000408:    2700        .'      MOVS     r7,#0
        0x0000040a:    0849        I.      LSRS     r1,r1,#1
        0x0000040c:    46b6        .F      MOV      lr,r6
        0x0000040e:    2600        .&      MOVS     r6,#0
        0x00000410:    c5c0        ..      STM      r5!,{r6,r7}
        0x00000412:    c5c0        ..      STM      r5!,{r6,r7}
        0x00000414:    c5c0        ..      STM      r5!,{r6,r7}
        0x00000416:    c5c0        ..      STM      r5!,{r6,r7}
        0x00000418:    c5c0        ..      STM      r5!,{r6,r7}
        0x0000041a:    c5c0        ..      STM      r5!,{r6,r7}
        0x0000041c:    c5c0        ..      STM      r5!,{r6,r7}
        0x0000041e:    c5c0        ..      STM      r5!,{r6,r7}
        0x00000420:    3d40        @=      SUBS     r5,r5,#0x40
        0x00000422:    0049        I.      LSLS     r1,r1,#1
        0x00000424:    468d        .F      MOV      sp,r1
        0x00000426:    4770        pG      BX       lr
    .text
    exit
        0x00000428:    b510        ..      PUSH     {r4,lr}
        0x0000042a:    4604        .F      MOV      r4,r0
        0x0000042c:    46c0        .F      MOV      r8,r8
        0x0000042e:    46c0        .F      MOV      r8,r8
        0x00000430:    4620         F      MOV      r0,r4
        0x00000432:    f7fffe90    ....    BL       __rt_exit ; 0x156
        0x00000436:    bd10        ..      POP      {r4,pc}
    .text
    __user_libspace
    __user_perproc_libspace
    __user_perthread_libspace
        0x00000438:    4800        .H      LDR      r0,[pc,#0] ; [0x43c] = 0x20002894
        0x0000043a:    4770        pG      BX       lr
    $d
        0x0000043c:    20002894    .(.     DCD    536881300
    $t
    .text
    _sys_exit
        0x00000440:    4901        .I      LDR      r1,[pc,#4] ; [0x448] = 0x20026
        0x00000442:    2018        .       MOVS     r0,#0x18
        0x00000444:    beab        ..      BKPT     #0xab
        0x00000446:    e7fe        ..      B        0x446 ; _sys_exit + 6
    $d
        0x00000448:    00020026    &...    DCD    131110
    $t
    .text
    __I$use$semihosting
    __use_no_semihosting_swi
        0x0000044c:    4770        pG      BX       lr
    i.ADC_Close
    .text
    ADC_Close
    __semihosting_library_function
        0x0000044e:    4770        pG      BX       lr
    i.ADC_DisableInt
    ADC_DisableInt
        0x00000450:    490d        .I      LDR      r1,[pc,#52] ; [0x488] = 0x400e0000
        0x00000452:    07c2        ..      LSLS     r2,r0,#31
        0x00000454:    d003        ..      BEQ      0x45e ; ADC_DisableInt + 14
        0x00000456:    690a        .i      LDR      r2,[r1,#0x10]
        0x00000458:    0052        R.      LSLS     r2,r2,#1
        0x0000045a:    0852        R.      LSRS     r2,r2,#1
        0x0000045c:    610a        .a      STR      r2,[r1,#0x10]
        0x0000045e:    0782        ..      LSLS     r2,r0,#30
        0x00000460:    2302        .#      MOVS     r3,#2
        0x00000462:    2a00        .*      CMP      r2,#0
        0x00000464:    da02        ..      BGE      0x46c ; ADC_DisableInt + 28
        0x00000466:    698a        .i      LDR      r2,[r1,#0x18]
        0x00000468:    439a        .C      BICS     r2,r2,r3
        0x0000046a:    618a        .a      STR      r2,[r1,#0x18]
        0x0000046c:    0742        B.      LSLS     r2,r0,#29
        0x0000046e:    d502        ..      BPL      0x476 ; ADC_DisableInt + 38
        0x00000470:    69ca        .i      LDR      r2,[r1,#0x1c]
        0x00000472:    439a        .C      BICS     r2,r2,r3
        0x00000474:    61ca        .a      STR      r2,[r1,#0x1c]
        0x00000476:    0700        ..      LSLS     r0,r0,#28
        0x00000478:    d504        ..      BPL      0x484 ; ADC_DisableInt + 52
        0x0000047a:    4804        .H      LDR      r0,[pc,#16] ; [0x48c] = 0x400b0040
        0x0000047c:    6941        Ai      LDR      r1,[r0,#0x14]
        0x0000047e:    0849        I.      LSRS     r1,r1,#1
        0x00000480:    0049        I.      LSLS     r1,r1,#1
        0x00000482:    6141        Aa      STR      r1,[r0,#0x14]
        0x00000484:    4770        pG      BX       lr
    $d
        0x00000486:    0000        ..      DCW    0
        0x00000488:    400e0000    ...@    DCD    1074659328
        0x0000048c:    400b0040    @..@    DCD    1074462784
    $t
    i.ADC_DisableMICBias
    ADC_DisableMICBias
        0x00000490:    4802        .H      LDR      r0,[pc,#8] ; [0x49c] = 0x40080000
        0x00000492:    2100        .!      MOVS     r1,#0
        0x00000494:    6281        .b      STR      r1,[r0,#0x28]
        0x00000496:    62c1        .b      STR      r1,[r0,#0x2c]
        0x00000498:    4770        pG      BX       lr
    $d
        0x0000049a:    0000        ..      DCW    0
        0x0000049c:    40080000    ...@    DCD    1074266112
    $t
    i.ADC_EnableMICBias
    ADC_EnableMICBias
        0x000004a0:    4902        .I      LDR      r1,[pc,#8] ; [0x4ac] = 0x40080000
        0x000004a2:    6a8a        .j      LDR      r2,[r1,#0x28]
        0x000004a4:    6288        .b      STR      r0,[r1,#0x28]
        0x000004a6:    2001        .       MOVS     r0,#1
        0x000004a8:    62c8        .b      STR      r0,[r1,#0x2c]
        0x000004aa:    4770        pG      BX       lr
    $d
        0x000004ac:    40080000    ...@    DCD    1074266112
    $t
    i.ADC_Open
    ADC_Open
        0x000004b0:    4770        pG      BX       lr
        0x000004b2:    0000        ..      MOVS     r0,r0
    i.ADC_SetAMUX
    ADC_SetAMUX
        0x000004b4:    b510        ..      PUSH     {r4,lr}
        0x000004b6:    4b11        .K      LDR      r3,[pc,#68] ; [0x4fc] = 0x40080040
        0x000004b8:    691c        .i      LDR      r4,[r3,#0x10]
        0x000004ba:    2400        .$      MOVS     r4,#0
        0x000004bc:    611c        .a      STR      r4,[r3,#0x10]
        0x000004be:    2401        .$      MOVS     r4,#1
        0x000004c0:    0364        d.      LSLS     r4,r4,#13
        0x000004c2:    42a0        .B      CMP      r0,r4
        0x000004c4:    d105        ..      BNE      0x4d2 ; ADC_SetAMUX + 30
        0x000004c6:    6918        .i      LDR      r0,[r3,#0x10]
        0x000004c8:    2103        .!      MOVS     r1,#3
        0x000004ca:    0349        I.      LSLS     r1,r1,#13
        0x000004cc:    4308        .C      ORRS     r0,r0,r1
        0x000004ce:    6118        .a      STR      r0,[r3,#0x10]
        0x000004d0:    bd10        ..      POP      {r4,pc}
        0x000004d2:    2401        .$      MOVS     r4,#1
        0x000004d4:    0324        $.      LSLS     r4,r4,#12
        0x000004d6:    42a0        .B      CMP      r0,r4
        0x000004d8:    d105        ..      BNE      0x4e6 ; ADC_SetAMUX + 50
        0x000004da:    6918        .i      LDR      r0,[r3,#0x10]
        0x000004dc:    2105        .!      MOVS     r1,#5
        0x000004de:    0309        ..      LSLS     r1,r1,#12
        0x000004e0:    4308        .C      ORRS     r0,r0,r1
        0x000004e2:    6118        .a      STR      r0,[r3,#0x10]
        0x000004e4:    bd10        ..      POP      {r4,pc}
        0x000004e6:    4c06        .L      LDR      r4,[pc,#24] ; [0x500] = 0xfff
        0x000004e8:    42a0        .B      CMP      r0,r4
        0x000004ea:    d1fb        ..      BNE      0x4e4 ; ADC_SetAMUX + 48
        0x000004ec:    6918        .i      LDR      r0,[r3,#0x10]
        0x000004ee:    4308        .C      ORRS     r0,r0,r1
        0x000004f0:    2101        .!      MOVS     r1,#1
        0x000004f2:    0389        ..      LSLS     r1,r1,#14
        0x000004f4:    430a        .C      ORRS     r2,r2,r1
        0x000004f6:    4310        .C      ORRS     r0,r0,r2
        0x000004f8:    6118        .a      STR      r0,[r3,#0x10]
        0x000004fa:    bd10        ..      POP      {r4,pc}
    $d
        0x000004fc:    40080040    @..@    DCD    1074266176
        0x00000500:    00000fff    ....    DCD    4095
    $t
    i.ADC_SetPGAGaindB
    ADC_SetPGAGaindB
        0x00000504:    b510        ..      PUSH     {r4,lr}
        0x00000506:    490b        .I      LDR      r1,[pc,#44] ; [0x534] = 0xfffffb50
        0x00000508:    4288        .B      CMP      r0,r1
        0x0000050a:    da01        ..      BGE      0x510 ; ADC_SetPGAGaindB + 12
        0x0000050c:    4608        .F      MOV      r0,r1
        0x0000050e:    e003        ..      B        0x518 ; ADC_SetPGAGaindB + 20
        0x00000510:    4909        .I      LDR      r1,[pc,#36] ; [0x538] = 0xdc5
        0x00000512:    4288        .B      CMP      r0,r1
        0x00000514:    dd00        ..      BLE      0x518 ; ADC_SetPGAGaindB + 20
        0x00000516:    4608        .F      MOV      r0,r1
        0x00000518:    214b        K!      MOVS     r1,#0x4b
        0x0000051a:    010c        ..      LSLS     r4,r1,#4
        0x0000051c:    1900        ..      ADDS     r0,r0,r4
        0x0000051e:    f7fffe7b    ..{.    BL       __aeabi_idiv ; 0x218
        0x00000522:    0680        ..      LSLS     r0,r0,#26
        0x00000524:    0e80        ..      LSRS     r0,r0,#26
        0x00000526:    4905        .I      LDR      r1,[pc,#20] ; [0x53c] = 0x40080040
        0x00000528:    6288        .b      STR      r0,[r1,#0x28]
        0x0000052a:    214b        K!      MOVS     r1,#0x4b
        0x0000052c:    4348        HC      MULS     r0,r1,r0
        0x0000052e:    1b00        ..      SUBS     r0,r0,r4
        0x00000530:    bd10        ..      POP      {r4,pc}
    $d
        0x00000532:    0000        ..      DCW    0
        0x00000534:    fffffb50    P...    DCD    4294966096
        0x00000538:    00000dc5    ....    DCD    3525
        0x0000053c:    40080040    @..@    DCD    1074266176
    $t
    i.ActiveTimer
    ActiveTimer
        0x00000540:    b570        p.      PUSH     {r4-r6,lr}
        0x00000542:    2800        .(      CMP      r0,#0
        0x00000544:    d100        ..      BNE      0x548 ; ActiveTimer + 8
        0x00000546:    200a        .       MOVS     r0,#0xa
        0x00000548:    4d0e        .M      LDR      r5,[pc,#56] ; [0x584] = 0x2000001c
        0x0000054a:    8168        h.      STRH     r0,[r5,#0xa]
        0x0000054c:    7928        (y      LDRB     r0,[r5,#4]
        0x0000054e:    2800        .(      CMP      r0,#0
        0x00000550:    d117        ..      BNE      0x582 ; ActiveTimer + 66
        0x00000552:    4c0d        .L      LDR      r4,[pc,#52] ; [0x588] = 0x40010020
        0x00000554:    2201        ."      MOVS     r2,#1
        0x00000556:    06d1        ..      LSLS     r1,r2,#27
        0x00000558:    4620         F      MOV      r0,r4
        0x0000055a:    f004fdad    ....    BL       TIMER_Open ; 0x50b8
        0x0000055e:    2201        ."      MOVS     r2,#1
        0x00000560:    4611        .F      MOV      r1,r2
        0x00000562:    480a        .H      LDR      r0,[pc,#40] ; [0x58c] = 0x50004040
        0x00000564:    f004fd6e    ..n.    BL       SetOutputPin_0 ; 0x5044
        0x00000568:    6820         h      LDR      r0,[r4,#0]
        0x0000056a:    0661        a.      LSLS     r1,r4,#25
        0x0000056c:    4308        .C      ORRS     r0,r0,r1
        0x0000056e:    6020         `      STR      r0,[r4,#0]
        0x00000570:    6820         h      LDR      r0,[r4,#0]
        0x00000572:    1049        I.      ASRS     r1,r1,#1
        0x00000574:    4308        .C      ORRS     r0,r0,r1
        0x00000576:    6020         `      STR      r0,[r4,#0]
        0x00000578:    2001        .       MOVS     r0,#1
        0x0000057a:    4a05        .J      LDR      r2,[pc,#20] ; [0x590] = 0xe000e100
        0x0000057c:    0241        A.      LSLS     r1,r0,#9
        0x0000057e:    6011        .`      STR      r1,[r2,#0]
        0x00000580:    7128        (q      STRB     r0,[r5,#4]
        0x00000582:    bd70        p.      POP      {r4-r6,pc}
    $d
        0x00000584:    2000001c    ...     DCD    536870940
        0x00000588:    40010020     ..@    DCD    1073807392
        0x0000058c:    50004040    @@.P    DCD    1342193728
        0x00000590:    e000e100    ....    DCD    3758153984
    $t
    i.ActiveVibrator
    ActiveVibrator
        0x00000594:    b570        p.      PUSH     {r4-r6,lr}
        0x00000596:    2800        .(      CMP      r0,#0
        0x00000598:    d101        ..      BNE      0x59e ; ActiveVibrator + 10
        0x0000059a:    20ff        .       MOVS     r0,#0xff
        0x0000059c:    30f5        .0      ADDS     r0,r0,#0xf5
        0x0000059e:    4d0f        .M      LDR      r5,[pc,#60] ; [0x5dc] = 0x2000001c
        0x000005a0:    8128        (.      STRH     r0,[r5,#8]
        0x000005a2:    78a8        .x      LDRB     r0,[r5,#2]
        0x000005a4:    2800        .(      CMP      r0,#0
        0x000005a6:    d117        ..      BNE      0x5d8 ; ActiveVibrator + 68
        0x000005a8:    4c0d        .L      LDR      r4,[pc,#52] ; [0x5e0] = 0x40010000
        0x000005aa:    2201        ."      MOVS     r2,#1
        0x000005ac:    06d1        ..      LSLS     r1,r2,#27
        0x000005ae:    4620         F      MOV      r0,r4
        0x000005b0:    f004fd82    ....    BL       TIMER_Open ; 0x50b8
        0x000005b4:    2201        ."      MOVS     r2,#1
        0x000005b6:    2120         !      MOVS     r1,#0x20
        0x000005b8:    480a        .H      LDR      r0,[pc,#40] ; [0x5e4] = 0x50004040
        0x000005ba:    f004fd39    ..9.    BL       SetOutputPin ; 0x5030
        0x000005be:    6820         h      LDR      r0,[r4,#0]
        0x000005c0:    03a1        ..      LSLS     r1,r4,#14
        0x000005c2:    4308        .C      ORRS     r0,r0,r1
        0x000005c4:    6020         `      STR      r0,[r4,#0]
        0x000005c6:    6820         h      LDR      r0,[r4,#0]
        0x000005c8:    1049        I.      ASRS     r1,r1,#1
        0x000005ca:    4308        .C      ORRS     r0,r0,r1
        0x000005cc:    6020         `      STR      r0,[r4,#0]
        0x000005ce:    2001        .       MOVS     r0,#1
        0x000005d0:    4a05        .J      LDR      r2,[pc,#20] ; [0x5e8] = 0xe000e100
        0x000005d2:    0201        ..      LSLS     r1,r0,#8
        0x000005d4:    6011        .`      STR      r1,[r2,#0]
        0x000005d6:    70a8        .p      STRB     r0,[r5,#2]
        0x000005d8:    bd70        p.      POP      {r4-r6,pc}
    $d
        0x000005da:    0000        ..      DCW    0
        0x000005dc:    2000001c    ...     DCD    536870940
        0x000005e0:    40010000    ...@    DCD    1073807360
        0x000005e4:    50004040    @@.P    DCD    1342193728
        0x000005e8:    e000e100    ....    DCD    3758153984
    $t
    i.BIQFilter_Setting
    BIQFilter_Setting
        0x000005ec:    b510        ..      PUSH     {r4,lr}
        0x000005ee:    4809        .H      LDR      r0,[pc,#36] ; [0x614] = 0x40000012
        0x000005f0:    f003fad2    ....    BL       CLK_EnableModuleClock ; 0x3b98
        0x000005f4:    2000        .       MOVS     r0,#0
        0x000005f6:    1c40        @.      ADDS     r0,r0,#1
        0x000005f8:    b2c0        ..      UXTB     r0,r0
        0x000005fa:    2820         (      CMP      r0,#0x20
        0x000005fc:    d3fb        ..      BCC      0x5f6 ; BIQFilter_Setting + 10
        0x000005fe:    f000f80d    ....    BL       BIQ_Reset ; 0x61c
        0x00000602:    4805        .H      LDR      r0,[pc,#20] ; [0x618] = 0x5400
        0x00000604:    f000f818    ....    BL       BIQ_SetCoeff ; 0x638
        0x00000608:    2000        .       MOVS     r0,#0
        0x0000060a:    1c40        @.      ADDS     r0,r0,#1
        0x0000060c:    b2c0        ..      UXTB     r0,r0
        0x0000060e:    2820         (      CMP      r0,#0x20
        0x00000610:    d3fb        ..      BCC      0x60a ; BIQFilter_Setting + 30
        0x00000612:    bd10        ..      POP      {r4,pc}
    $d
        0x00000614:    40000012    ...@    DCD    1073741842
        0x00000618:    00005400    .T..    DCD    21504
    $t
    i.BIQ_Reset
    BIQ_Reset
        0x0000061c:    4805        .H      LDR      r0,[pc,#20] ; [0x634] = 0x400b0040
        0x0000061e:    6801        .h      LDR      r1,[r0,#0]
        0x00000620:    2208        ."      MOVS     r2,#8
        0x00000622:    4311        .C      ORRS     r1,r1,r2
        0x00000624:    6001        .`      STR      r1,[r0,#0]
        0x00000626:    2000        .       MOVS     r0,#0
        0x00000628:    1c40        @.      ADDS     r0,r0,#1
        0x0000062a:    b280        ..      UXTH     r0,r0
        0x0000062c:    2820         (      CMP      r0,#0x20
        0x0000062e:    d9fb        ..      BLS      0x628 ; BIQ_Reset + 12
        0x00000630:    4770        pG      BX       lr
    $d
        0x00000632:    0000        ..      DCW    0
        0x00000634:    400b0040    @..@    DCD    1074462784
    $t
    i.BIQ_SetCoeff
    BIQ_SetCoeff
        0x00000638:    b570        p.      PUSH     {r4-r6,lr}
        0x0000063a:    4b0f        .K      LDR      r3,[pc,#60] ; [0x678] = 0x400b0000
        0x0000063c:    4c0e        .L      LDR      r4,[pc,#56] ; [0x678] = 0x400b0000
        0x0000063e:    3440        @4      ADDS     r4,r4,#0x40
        0x00000640:    6821        !h      LDR      r1,[r4,#0]
        0x00000642:    2504        .%      MOVS     r5,#4
        0x00000644:    43a9        .C      BICS     r1,r1,r5
        0x00000646:    6021        !`      STR      r1,[r4,#0]
        0x00000648:    6821        !h      LDR      r1,[r4,#0]
        0x0000064a:    4329        )C      ORRS     r1,r1,r5
        0x0000064c:    6021        !`      STR      r1,[r4,#0]
        0x0000064e:    2100        .!      MOVS     r1,#0
        0x00000650:    1c49        I.      ADDS     r1,r1,#1
        0x00000652:    b2c9        ..      UXTB     r1,r1
        0x00000654:    2920         )      CMP      r1,#0x20
        0x00000656:    d9fb        ..      BLS      0x650 ; BIQ_SetCoeff + 24
        0x00000658:    6821        !h      LDR      r1,[r4,#0]
        0x0000065a:    4329        )C      ORRS     r1,r1,r5
        0x0000065c:    6021        !`      STR      r1,[r4,#0]
        0x0000065e:    2100        .!      MOVS     r1,#0
        0x00000660:    008a        ..      LSLS     r2,r1,#2
        0x00000662:    5886        .X      LDR      r6,[r0,r2]
        0x00000664:    509e        .P      STR      r6,[r3,r2]
        0x00000666:    1c49        I.      ADDS     r1,r1,#1
        0x00000668:    b2c9        ..      UXTB     r1,r1
        0x0000066a:    290f        .)      CMP      r1,#0xf
        0x0000066c:    d3f8        ..      BCC      0x660 ; BIQ_SetCoeff + 40
        0x0000066e:    6820         h      LDR      r0,[r4,#0]
        0x00000670:    43a8        .C      BICS     r0,r0,r5
        0x00000672:    6020         `      STR      r0,[r4,#0]
        0x00000674:    bd70        p.      POP      {r4-r6,pc}
    $d
        0x00000676:    0000        ..      DCW    0
        0x00000678:    400b0000    ...@    DCD    1074462720
    $t
    i.BioworldEncodeOutput
    BioworldEncodeOutput
        0x0000067c:    b5f8        ..      PUSH     {r3-r7,lr}
        0x0000067e:    4601        .F      MOV      r1,r0
        0x00000680:    2500        .%      MOVS     r5,#0
        0x00000682:    2201        ."      MOVS     r2,#1
        0x00000684:    4860        `H      LDR      r0,[pc,#384] ; [0x808] = 0x50004000
        0x00000686:    4f61        aO      LDR      r7,[pc,#388] ; [0x80c] = 0x186a0
        0x00000688:    4e61        aN      LDR      r6,[pc,#388] ; [0x810] = 0x28c58
        0x0000068a:    4c62        bL      LDR      r4,[pc,#392] ; [0x814] = 0x2000001c
        0x0000068c:    000b        ..      MOVS     r3,r1
        0x0000068e:    f004fe77    ..w.    BL       __ARM_common_switch8 ; 0x5380
    $d
        0x00000692:    1712        ..      DCW    5906
        0x00000694:    44444444    DDDD    DCD    1145324612
        0x00000698:    5326180a    ..&S    DCD    1395005450
        0x0000069c:    7e535353    SSS~    DCD    2119390035
        0x000006a0:    62709c8d    ..pb    DCD    1651547277
        0x000006a4:    177e        ~.      DCW    6014
    $t
        0x000006a6:    2201        ."      MOVS     r2,#1
        0x000006a8:    2120         !      MOVS     r1,#0x20
        0x000006aa:    4604        .F      MOV      r4,r0
        0x000006ac:    f004fcc0    ....    BL       SetOutputPin ; 0x5030
        0x000006b0:    4638        8F      MOV      r0,r7
        0x000006b2:    f003fa8d    ....    BL       CLK_SysTickDelay ; 0x3bd0
        0x000006b6:    2200        ."      MOVS     r2,#0
        0x000006b8:    2120         !      MOVS     r1,#0x20
        0x000006ba:    4620         F      MOV      r0,r4
        0x000006bc:    f004fcb8    ....    BL       SetOutputPin ; 0x5030
        0x000006c0:    bdf8        ..      POP      {r3-r7,pc}
        0x000006c2:    2201        ."      MOVS     r2,#1
        0x000006c4:    2110        .!      MOVS     r1,#0x10
        0x000006c6:    4604        .F      MOV      r4,r0
        0x000006c8:    f004fcb2    ....    BL       SetOutputPin ; 0x5030
        0x000006cc:    4638        8F      MOV      r0,r7
        0x000006ce:    f003fa7f    ....    BL       CLK_SysTickDelay ; 0x3bd0
        0x000006d2:    2200        ."      MOVS     r2,#0
        0x000006d4:    2110        .!      MOVS     r1,#0x10
        0x000006d6:    4620         F      MOV      r0,r4
        0x000006d8:    f004fcaa    ....    BL       SetOutputPin ; 0x5030
        0x000006dc:    bdf8        ..      POP      {r3-r7,pc}
        0x000006de:    2201        ."      MOVS     r2,#1
        0x000006e0:    2110        .!      MOVS     r1,#0x10
        0x000006e2:    4604        .F      MOV      r4,r0
        0x000006e4:    f004fca4    ....    BL       SetOutputPin ; 0x5030
        0x000006e8:    4638        8F      MOV      r0,r7
        0x000006ea:    f003fa71    ..q.    BL       CLK_SysTickDelay ; 0x3bd0
        0x000006ee:    2200        ."      MOVS     r2,#0
        0x000006f0:    2110        .!      MOVS     r1,#0x10
        0x000006f2:    4620         F      MOV      r0,r4
        0x000006f4:    f004fc9c    ....    BL       SetOutputPin ; 0x5030
        0x000006f8:    4630        0F      MOV      r0,r6
        0x000006fa:    f003fa69    ..i.    BL       CLK_SysTickDelay ; 0x3bd0
        0x000006fe:    2201        ."      MOVS     r2,#1
        0x00000700:    2110        .!      MOVS     r1,#0x10
        0x00000702:    4620         F      MOV      r0,r4
        0x00000704:    f004fc94    ....    BL       SetOutputPin ; 0x5030
        0x00000708:    4638        8F      MOV      r0,r7
        0x0000070a:    f003fa61    ..a.    BL       CLK_SysTickDelay ; 0x3bd0
        0x0000070e:    2200        ."      MOVS     r2,#0
        0x00000710:    2110        .!      MOVS     r1,#0x10
        0x00000712:    4620         F      MOV      r0,r4
        0x00000714:    f004fc8c    ....    BL       SetOutputPin ; 0x5030
        0x00000718:    bdf8        ..      POP      {r3-r7,pc}
        0x0000071a:    71a2        .q      STRB     r2,[r4,#6]
        0x0000071c:    2201        ."      MOVS     r2,#1
        0x0000071e:    2108        .!      MOVS     r1,#8
        0x00000720:    4604        .F      MOV      r4,r0
        0x00000722:    f004fc85    ....    BL       SetOutputPin ; 0x5030
        0x00000726:    4638        8F      MOV      r0,r7
        0x00000728:    f003fa52    ..R.    BL       CLK_SysTickDelay ; 0x3bd0
        0x0000072c:    2200        ."      MOVS     r2,#0
        0x0000072e:    2108        .!      MOVS     r1,#8
        0x00000730:    4620         F      MOV      r0,r4
        0x00000732:    f004fc7d    ..}.    BL       SetOutputPin ; 0x5030
        0x00000736:    bdf8        ..      POP      {r3-r7,pc}
        0x00000738:    2201        ."      MOVS     r2,#1
        0x0000073a:    2108        .!      MOVS     r1,#8
        0x0000073c:    4606        .F      MOV      r6,r0
        0x0000073e:    f004fc77    ..w.    BL       SetOutputPin ; 0x5030
        0x00000742:    4638        8F      MOV      r0,r7
        0x00000744:    f003fa44    ..D.    BL       CLK_SysTickDelay ; 0x3bd0
        0x00000748:    2200        ."      MOVS     r2,#0
        0x0000074a:    2108        .!      MOVS     r1,#8
        0x0000074c:    4630        0F      MOV      r0,r6
        0x0000074e:    f004fc6f    ..o.    BL       SetOutputPin ; 0x5030
        0x00000752:    71a5        .q      STRB     r5,[r4,#6]
        0x00000754:    bdf8        ..      POP      {r3-r7,pc}
        0x00000756:    2201        ."      MOVS     r2,#1
        0x00000758:    2104        .!      MOVS     r1,#4
        0x0000075a:    4604        .F      MOV      r4,r0
        0x0000075c:    f004fc68    ..h.    BL       SetOutputPin ; 0x5030
        0x00000760:    4638        8F      MOV      r0,r7
        0x00000762:    f003fa35    ..5.    BL       CLK_SysTickDelay ; 0x3bd0
        0x00000766:    2200        ."      MOVS     r2,#0
        0x00000768:    2104        .!      MOVS     r1,#4
        0x0000076a:    4620         F      MOV      r0,r4
        0x0000076c:    f004fc60    ..`.    BL       SetOutputPin ; 0x5030
        0x00000770:    bdf8        ..      POP      {r3-r7,pc}
        0x00000772:    2201        ."      MOVS     r2,#1
        0x00000774:    2102        .!      MOVS     r1,#2
        0x00000776:    4604        .F      MOV      r4,r0
        0x00000778:    f004fc5a    ..Z.    BL       SetOutputPin ; 0x5030
        0x0000077c:    4638        8F      MOV      r0,r7
        0x0000077e:    f003fa27    ..'.    BL       CLK_SysTickDelay ; 0x3bd0
        0x00000782:    2200        ."      MOVS     r2,#0
        0x00000784:    2102        .!      MOVS     r1,#2
        0x00000786:    4620         F      MOV      r0,r4
        0x00000788:    f004fc52    ..R.    BL       SetOutputPin ; 0x5030
        0x0000078c:    bdf8        ..      POP      {r3-r7,pc}
        0x0000078e:    71e2        .q      STRB     r2,[r4,#7]
        0x00000790:    2201        ."      MOVS     r2,#1
        0x00000792:    4611        .F      MOV      r1,r2
        0x00000794:    4604        .F      MOV      r4,r0
        0x00000796:    f004fc4b    ..K.    BL       SetOutputPin ; 0x5030
        0x0000079a:    4638        8F      MOV      r0,r7
        0x0000079c:    f003fa18    ....    BL       CLK_SysTickDelay ; 0x3bd0
        0x000007a0:    2200        ."      MOVS     r2,#0
        0x000007a2:    2101        .!      MOVS     r1,#1
        0x000007a4:    4620         F      MOV      r0,r4
        0x000007a6:    f004fc43    ..C.    BL       SetOutputPin ; 0x5030
        0x000007aa:    bdf8        ..      POP      {r3-r7,pc}
        0x000007ac:    71e5        .q      STRB     r5,[r4,#7]
        0x000007ae:    2201        ."      MOVS     r2,#1
        0x000007b0:    4611        .F      MOV      r1,r2
        0x000007b2:    4604        .F      MOV      r4,r0
        0x000007b4:    f004fc3c    ..<.    BL       SetOutputPin ; 0x5030
        0x000007b8:    4638        8F      MOV      r0,r7
        0x000007ba:    f003fa09    ....    BL       CLK_SysTickDelay ; 0x3bd0
        0x000007be:    2200        ."      MOVS     r2,#0
        0x000007c0:    2101        .!      MOVS     r1,#1
        0x000007c2:    4620         F      MOV      r0,r4
        0x000007c4:    f004fc34    ..4.    BL       SetOutputPin ; 0x5030
        0x000007c8:    bdf8        ..      POP      {r3-r7,pc}
        0x000007ca:    2201        ."      MOVS     r2,#1
        0x000007cc:    4611        .F      MOV      r1,r2
        0x000007ce:    4604        .F      MOV      r4,r0
        0x000007d0:    f004fc2e    ....    BL       SetOutputPin ; 0x5030
        0x000007d4:    4630        0F      MOV      r0,r6
        0x000007d6:    f003f9fb    ....    BL       CLK_SysTickDelay ; 0x3bd0
        0x000007da:    2200        ."      MOVS     r2,#0
        0x000007dc:    2101        .!      MOVS     r1,#1
        0x000007de:    4620         F      MOV      r0,r4
        0x000007e0:    f004fc26    ..&.    BL       SetOutputPin ; 0x5030
        0x000007e4:    4630        0F      MOV      r0,r6
        0x000007e6:    f003f9f3    ....    BL       CLK_SysTickDelay ; 0x3bd0
        0x000007ea:    2201        ."      MOVS     r2,#1
        0x000007ec:    4611        .F      MOV      r1,r2
        0x000007ee:    4620         F      MOV      r0,r4
        0x000007f0:    f004fc1e    ....    BL       SetOutputPin ; 0x5030
        0x000007f4:    4630        0F      MOV      r0,r6
        0x000007f6:    f003f9eb    ....    BL       CLK_SysTickDelay ; 0x3bd0
        0x000007fa:    2200        ."      MOVS     r2,#0
        0x000007fc:    2101        .!      MOVS     r1,#1
        0x000007fe:    4620         F      MOV      r0,r4
        0x00000800:    f004fc16    ....    BL       SetOutputPin ; 0x5030
        0x00000804:    bdf8        ..      POP      {r3-r7,pc}
    $d
        0x00000806:    0000        ..      DCW    0
        0x00000808:    50004000    .@.P    DCD    1342193664
        0x0000080c:    000186a0    ....    DCD    100000
        0x00000810:    00028c58    X...    DCD    167000
        0x00000814:    2000001c    ...     DCD    536870940
    $t
    i.BsrAbby
    BsrAbby
        0x00000818:    2800        .(      CMP      r0,#0
        0x0000081a:    d003        ..      BEQ      0x824 ; BsrAbby + 12
        0x0000081c:    0782        ..      LSLS     r2,r0,#30
        0x0000081e:    d101        ..      BNE      0x824 ; BsrAbby + 12
        0x00000820:    291c        .)      CMP      r1,#0x1c
        0x00000822:    d801        ..      BHI      0x828 ; BsrAbby + 16
        0x00000824:    2000        .       MOVS     r0,#0
        0x00000826:    4770        pG      BX       lr
        0x00000828:    4602        .F      MOV      r2,r0
        0x0000082a:    320c        .2      ADDS     r2,r2,#0xc
        0x0000082c:    391c        .9      SUBS     r1,r1,#0x1c
        0x0000082e:    0889        ..      LSRS     r1,r1,#2
        0x00000830:    0089        ..      LSLS     r1,r1,#2
        0x00000832:    6002        .`      STR      r2,[r0,#0]
        0x00000834:    2300        .#      MOVS     r3,#0
        0x00000836:    6081        .`      STR      r1,[r0,#8]
        0x00000838:    60c3        .`      STR      r3,[r0,#0xc]
        0x0000083a:    6143        Ca      STR      r3,[r0,#0x14]
        0x0000083c:    6183        .a      STR      r3,[r0,#0x18]
        0x0000083e:    6042        B`      STR      r2,[r0,#4]
        0x00000840:    6101        .a      STR      r1,[r0,#0x10]
        0x00000842:    4770        pG      BX       lr
    i.BsrAbel
    BsrAbel
        0x00000844:    b570        p.      PUSH     {r4-r6,lr}
        0x00000846:    1cc9        ..      ADDS     r1,r1,#3
        0x00000848:    088b        ..      LSRS     r3,r1,#2
        0x0000084a:    009b        ..      LSLS     r3,r3,#2
        0x0000084c:    4602        .F      MOV      r2,r0
        0x0000084e:    2b00        .+      CMP      r3,#0
        0x00000850:    dd19        ..      BLE      0x886 ; BsrAbel + 66
        0x00000852:    6890        .h      LDR      r0,[r2,#8]
        0x00000854:    4298        .B      CMP      r0,r3
        0x00000856:    db16        ..      BLT      0x886 ; BsrAbel + 66
        0x00000858:    6850        Ph      LDR      r0,[r2,#4]
        0x0000085a:    e006        ..      B        0x86a ; BsrAbel + 38
        0x0000085c:    6801        .h      LDR      r1,[r0,#0]
        0x0000085e:    2900        .)      CMP      r1,#0
        0x00000860:    d102        ..      BNE      0x868 ; BsrAbel + 36
        0x00000862:    6841        Ah      LDR      r1,[r0,#4]
        0x00000864:    4299        .B      CMP      r1,r3
        0x00000866:    da03        ..      BGE      0x870 ; BsrAbel + 44
        0x00000868:    6880        .h      LDR      r0,[r0,#8]
        0x0000086a:    2800        .(      CMP      r0,#0
        0x0000086c:    d1f6        ..      BNE      0x85c ; BsrAbel + 24
        0x0000086e:    e00a        ..      B        0x886 ; BsrAbel + 66
        0x00000870:    2800        .(      CMP      r0,#0
        0x00000872:    d008        ..      BEQ      0x886 ; BsrAbel + 66
        0x00000874:    1acd        ..      SUBS     r5,r1,r3
        0x00000876:    2601        .&      MOVS     r6,#1
        0x00000878:    2d20         -      CMP      r5,#0x20
        0x0000087a:    d806        ..      BHI      0x88a ; BsrAbel + 70
        0x0000087c:    6006        .`      STR      r6,[r0,#0]
        0x0000087e:    6891        .h      LDR      r1,[r2,#8]
        0x00000880:    6843        Ch      LDR      r3,[r0,#4]
        0x00000882:    1ac9        ..      SUBS     r1,r1,r3
        0x00000884:    e017        ..      B        0x8b6 ; BsrAbel + 114
        0x00000886:    2000        .       MOVS     r0,#0
        0x00000888:    bd70        p.      POP      {r4-r6,pc}
        0x0000088a:    18c1        ..      ADDS     r1,r0,r3
        0x0000088c:    68c4        .h      LDR      r4,[r0,#0xc]
        0x0000088e:    3110        .1      ADDS     r1,r1,#0x10
        0x00000890:    3d10        .=      SUBS     r5,r5,#0x10
        0x00000892:    6006        .`      STR      r6,[r0,#0]
        0x00000894:    60c1        .`      STR      r1,[r0,#0xc]
        0x00000896:    604d        M`      STR      r5,[r1,#4]
        0x00000898:    6043        C`      STR      r3,[r0,#4]
        0x0000089a:    2c00        .,      CMP      r4,#0
        0x0000089c:    d000        ..      BEQ      0x8a0 ; BsrAbel + 92
        0x0000089e:    60a1        .`      STR      r1,[r4,#8]
        0x000008a0:    60cc        .`      STR      r4,[r1,#0xc]
        0x000008a2:    6088        .`      STR      r0,[r1,#8]
        0x000008a4:    2400        .$      MOVS     r4,#0
        0x000008a6:    600c        .`      STR      r4,[r1,#0]
        0x000008a8:    6854        Th      LDR      r4,[r2,#4]
        0x000008aa:    4284        .B      CMP      r4,r0
        0x000008ac:    d100        ..      BNE      0x8b0 ; BsrAbel + 108
        0x000008ae:    6051        Q`      STR      r1,[r2,#4]
        0x000008b0:    6891        .h      LDR      r1,[r2,#8]
        0x000008b2:    1ac9        ..      SUBS     r1,r1,r3
        0x000008b4:    3910        .9      SUBS     r1,r1,#0x10
        0x000008b6:    3010        .0      ADDS     r0,r0,#0x10
        0x000008b8:    6091        .`      STR      r1,[r2,#8]
        0x000008ba:    bd70        p.      POP      {r4-r6,pc}
    i.BsrAdam
    BsrAdam
        0x000008bc:    b530        0.      PUSH     {r4,r5,lr}
        0x000008be:    3910        .9      SUBS     r1,r1,#0x10
        0x000008c0:    688b        .h      LDR      r3,[r1,#8]
        0x000008c2:    2b00        .+      CMP      r3,#0
        0x000008c4:    d002        ..      BEQ      0x8cc ; BsrAdam + 16
        0x000008c6:    681a        .h      LDR      r2,[r3,#0]
        0x000008c8:    2a00        .*      CMP      r2,#0
        0x000008ca:    d021        !.      BEQ      0x910 ; BsrAdam + 84
        0x000008cc:    2500        .%      MOVS     r5,#0
        0x000008ce:    68ca        .h      LDR      r2,[r1,#0xc]
        0x000008d0:    2a00        .*      CMP      r2,#0
        0x000008d2:    d002        ..      BEQ      0x8da ; BsrAdam + 30
        0x000008d4:    6814        .h      LDR      r4,[r2,#0]
        0x000008d6:    2c00        .,      CMP      r4,#0
        0x000008d8:    d01c        ..      BEQ      0x914 ; BsrAdam + 88
        0x000008da:    2400        .$      MOVS     r4,#0
        0x000008dc:    2d00        .-      CMP      r5,#0
        0x000008de:    d01b        ..      BEQ      0x918 ; BsrAdam + 92
        0x000008e0:    2c00        .,      CMP      r4,#0
        0x000008e2:    d032        2.      BEQ      0x94a ; BsrAdam + 142
        0x000008e4:    685c        \h      LDR      r4,[r3,#4]
        0x000008e6:    684d        Mh      LDR      r5,[r1,#4]
        0x000008e8:    1965        e.      ADDS     r5,r4,r5
        0x000008ea:    6854        Th      LDR      r4,[r2,#4]
        0x000008ec:    3420         4      ADDS     r4,r4,#0x20
        0x000008ee:    192c        ,.      ADDS     r4,r5,r4
        0x000008f0:    605c        \`      STR      r4,[r3,#4]
        0x000008f2:    68d4        .h      LDR      r4,[r2,#0xc]
        0x000008f4:    60dc        .`      STR      r4,[r3,#0xc]
        0x000008f6:    68d4        .h      LDR      r4,[r2,#0xc]
        0x000008f8:    2c00        .,      CMP      r4,#0
        0x000008fa:    d000        ..      BEQ      0x8fe ; BsrAdam + 66
        0x000008fc:    60a3        .`      STR      r3,[r4,#8]
        0x000008fe:    6844        Dh      LDR      r4,[r0,#4]
        0x00000900:    4294        .B      CMP      r4,r2
        0x00000902:    d100        ..      BNE      0x906 ; BsrAdam + 74
        0x00000904:    6043        C`      STR      r3,[r0,#4]
        0x00000906:    6882        .h      LDR      r2,[r0,#8]
        0x00000908:    6849        Ih      LDR      r1,[r1,#4]
        0x0000090a:    1851        Q.      ADDS     r1,r2,r1
        0x0000090c:    3120         1      ADDS     r1,r1,#0x20
        0x0000090e:    e02f        /.      B        0x970 ; BsrAdam + 180
        0x00000910:    2501        .%      MOVS     r5,#1
        0x00000912:    e7dc        ..      B        0x8ce ; BsrAdam + 18
        0x00000914:    2401        .$      MOVS     r4,#1
        0x00000916:    e7e1        ..      B        0x8dc ; BsrAdam + 32
        0x00000918:    2300        .#      MOVS     r3,#0
        0x0000091a:    2c00        .,      CMP      r4,#0
        0x0000091c:    600b        .`      STR      r3,[r1,#0]
        0x0000091e:    d029        ).      BEQ      0x974 ; BsrAdam + 184
        0x00000920:    68d3        .h      LDR      r3,[r2,#0xc]
        0x00000922:    60cb        .`      STR      r3,[r1,#0xc]
        0x00000924:    68d3        .h      LDR      r3,[r2,#0xc]
        0x00000926:    2b00        .+      CMP      r3,#0
        0x00000928:    d000        ..      BEQ      0x92c ; BsrAdam + 112
        0x0000092a:    6099        .`      STR      r1,[r3,#8]
        0x0000092c:    6843        Ch      LDR      r3,[r0,#4]
        0x0000092e:    4293        .B      CMP      r3,r2
        0x00000930:    d100        ..      BNE      0x934 ; BsrAdam + 120
        0x00000932:    6041        A`      STR      r1,[r0,#4]
        0x00000934:    6883        .h      LDR      r3,[r0,#8]
        0x00000936:    684c        Lh      LDR      r4,[r1,#4]
        0x00000938:    191b        ..      ADDS     r3,r3,r4
        0x0000093a:    3310        .3      ADDS     r3,r3,#0x10
        0x0000093c:    6083        .`      STR      r3,[r0,#8]
        0x0000093e:    6848        Hh      LDR      r0,[r1,#4]
        0x00000940:    6852        Rh      LDR      r2,[r2,#4]
        0x00000942:    1880        ..      ADDS     r0,r0,r2
        0x00000944:    3010        .0      ADDS     r0,r0,#0x10
        0x00000946:    6048        H`      STR      r0,[r1,#4]
        0x00000948:    bd30        0.      POP      {r4,r5,pc}
        0x0000094a:    685a        Zh      LDR      r2,[r3,#4]
        0x0000094c:    684c        Lh      LDR      r4,[r1,#4]
        0x0000094e:    1912        ..      ADDS     r2,r2,r4
        0x00000950:    3210        .2      ADDS     r2,r2,#0x10
        0x00000952:    605a        Z`      STR      r2,[r3,#4]
        0x00000954:    68ca        .h      LDR      r2,[r1,#0xc]
        0x00000956:    60da        .`      STR      r2,[r3,#0xc]
        0x00000958:    68ca        .h      LDR      r2,[r1,#0xc]
        0x0000095a:    2a00        .*      CMP      r2,#0
        0x0000095c:    d000        ..      BEQ      0x960 ; BsrAdam + 164
        0x0000095e:    6093        .`      STR      r3,[r2,#8]
        0x00000960:    6842        Bh      LDR      r2,[r0,#4]
        0x00000962:    428a        .B      CMP      r2,r1
        0x00000964:    d100        ..      BNE      0x968 ; BsrAdam + 172
        0x00000966:    6043        C`      STR      r3,[r0,#4]
        0x00000968:    6882        .h      LDR      r2,[r0,#8]
        0x0000096a:    6849        Ih      LDR      r1,[r1,#4]
        0x0000096c:    1851        Q.      ADDS     r1,r2,r1
        0x0000096e:    3110        .1      ADDS     r1,r1,#0x10
        0x00000970:    6081        .`      STR      r1,[r0,#8]
        0x00000972:    bd30        0.      POP      {r4,r5,pc}
        0x00000974:    6882        .h      LDR      r2,[r0,#8]
        0x00000976:    6849        Ih      LDR      r1,[r1,#4]
        0x00000978:    1851        Q.      ADDS     r1,r2,r1
        0x0000097a:    e7f9        ..      B        0x970 ; BsrAdam + 180
    i.BsrAlma
    BsrAlma
        0x0000097c:    b5ff        ..      PUSH     {r0-r7,lr}
        0x0000097e:    b081        ..      SUB      sp,sp,#4
        0x00000980:    9902        ..      LDR      r1,[sp,#8]
        0x00000982:    4606        .F      MOV      r6,r0
        0x00000984:    1fc8        ..      SUBS     r0,r1,#7
        0x00000986:    461f        .F      MOV      r7,r3
        0x00000988:    38f9        .8      SUBS     r0,r0,#0xf9
        0x0000098a:    d165        e.      BNE      0xa58 ; BsrAlma + 220
        0x0000098c:    2f00        ./      CMP      r7,#0
        0x0000098e:    dd63        c.      BLE      0xa58 ; BsrAlma + 220
        0x00000990:    2f0c        ./      CMP      r7,#0xc
        0x00000992:    dc61        a.      BGT      0xa58 ; BsrAlma + 220
        0x00000994:    2e00        ..      CMP      r6,#0
        0x00000996:    d05f        _.      BEQ      0xa58 ; BsrAlma + 220
        0x00000998:    2513        .%      MOVS     r5,#0x13
        0x0000099a:    016d        m.      LSLS     r5,r5,#5
        0x0000099c:    4629        )F      MOV      r1,r5
        0x0000099e:    4630        0F      MOV      r0,r6
        0x000009a0:    f7ffff50    ..P.    BL       BsrAbel ; 0x844
        0x000009a4:    0004        ..      MOVS     r4,r0
        0x000009a6:    d057        W.      BEQ      0xa58 ; BsrAlma + 220
        0x000009a8:    462a        *F      MOV      r2,r5
        0x000009aa:    2100        .!      MOVS     r1,#0
        0x000009ac:    f002fc97    ....    BL       BsrJohn ; 0x32de
        0x000009b0:    1de5        ..      ADDS     r5,r4,#7
        0x000009b2:    35ff        .5      ADDS     r5,r5,#0xff
        0x000009b4:    35fa        .5      ADDS     r5,r5,#0xfa
        0x000009b6:    65ae        .e      STR      r6,[r5,#0x58]
        0x000009b8:    9802        ..      LDR      r0,[sp,#8]
        0x000009ba:    f000f9cd    ....    BL       BsrAnnie ; 0xd58
        0x000009be:    4606        .F      MOV      r6,r0
        0x000009c0:    f003f8bf    ....    BL       BsrZoe ; 0x3b42
        0x000009c4:    1a30        0.      SUBS     r0,r6,r0
        0x000009c6:    65e8        .e      STR      r0,[r5,#0x5c]
        0x000009c8:    9802        ..      LDR      r0,[sp,#8]
        0x000009ca:    6020         `      STR      r0,[r4,#0]
        0x000009cc:    9803        ..      LDR      r0,[sp,#0xc]
        0x000009ce:    60a7        .`      STR      r7,[r4,#8]
        0x000009d0:    6060        ``      STR      r0,[r4,#4]
        0x000009d2:    2002        .       MOVS     r0,#2
        0x000009d4:    60e0        .`      STR      r0,[r4,#0xc]
        0x000009d6:    2600        .&      MOVS     r6,#0
        0x000009d8:    01c0        ..      LSLS     r0,r0,#7
        0x000009da:    6166        fa      STR      r6,[r4,#0x14]
        0x000009dc:    6120         a      STR      r0,[r4,#0x10]
        0x000009de:    2004        .       MOVS     r0,#4
        0x000009e0:    0181        ..      LSLS     r1,r0,#6
        0x000009e2:    61a0        .a      STR      r0,[r4,#0x18]
        0x000009e4:    4620         F      MOV      r0,r4
        0x000009e6:    f001fd1f    ....    BL       BsrErica ; 0x2428
        0x000009ea:    61e6        .a      STR      r6,[r4,#0x1c]
        0x000009ec:    6226        &b      STR      r6,[r4,#0x20]
        0x000009ee:    6266        fb      STR      r6,[r4,#0x24]
        0x000009f0:    62a6        .b      STR      r6,[r4,#0x28]
        0x000009f2:    4621        !F      MOV      r1,r4
        0x000009f4:    4628        (F      MOV      r0,r5
        0x000009f6:    68a2        .h      LDR      r2,[r4,#8]
        0x000009f8:    3148        H1      ADDS     r1,r1,#0x48
        0x000009fa:    3880        .8      SUBS     r0,r0,#0x80
        0x000009fc:    007b        {.      LSLS     r3,r7,#1
        0x000009fe:    6281        .b      STR      r1,[r0,#0x28]
        0x00000a00:    18c9        ..      ADDS     r1,r1,r3
        0x00000a02:    62c1        .b      STR      r1,[r0,#0x2c]
        0x00000a04:    18c9        ..      ADDS     r1,r1,r3
        0x00000a06:    6301        .c      STR      r1,[r0,#0x30]
        0x00000a08:    18c9        ..      ADDS     r1,r1,r3
        0x00000a0a:    6341        Ac      STR      r1,[r0,#0x34]
        0x00000a0c:    18c9        ..      ADDS     r1,r1,r3
        0x00000a0e:    6381        .c      STR      r1,[r0,#0x38]
        0x00000a10:    18c9        ..      ADDS     r1,r1,r3
        0x00000a12:    63c1        .c      STR      r1,[r0,#0x3c]
        0x00000a14:    18c9        ..      ADDS     r1,r1,r3
        0x00000a16:    18cb        ..      ADDS     r3,r1,r3
        0x00000a18:    6443        Cd      STR      r3,[r0,#0x44]
        0x00000a1a:    1c52        R.      ADDS     r2,r2,#1
        0x00000a1c:    6401        .d      STR      r1,[r0,#0x40]
        0x00000a1e:    0051        Q.      LSLS     r1,r2,#1
        0x00000a20:    185a        Z.      ADDS     r2,r3,r1
        0x00000a22:    6482        .d      STR      r2,[r0,#0x48]
        0x00000a24:    1852        R.      ADDS     r2,r2,r1
        0x00000a26:    64c2        .d      STR      r2,[r0,#0x4c]
        0x00000a28:    1852        R.      ADDS     r2,r2,r1
        0x00000a2a:    6502        .e      STR      r2,[r0,#0x50]
        0x00000a2c:    1852        R.      ADDS     r2,r2,r1
        0x00000a2e:    6542        Be      STR      r2,[r0,#0x54]
        0x00000a30:    1852        R.      ADDS     r2,r2,r1
        0x00000a32:    1851        Q.      ADDS     r1,r2,r1
        0x00000a34:    6582        .e      STR      r2,[r0,#0x58]
        0x00000a36:    65c1        .e      STR      r1,[r0,#0x5c]
        0x00000a38:    642e        .d      STR      r6,[r5,#0x40]
        0x00000a3a:    2001        .       MOVS     r0,#1
        0x00000a3c:    0240        @.      LSLS     r0,r0,#9
        0x00000a3e:    646e        nd      STR      r6,[r5,#0x44]
        0x00000a40:    64a8        .d      STR      r0,[r5,#0x48]
        0x00000a42:    1040        @.      ASRS     r0,r0,#1
        0x00000a44:    f000fac6    ....    BL       BsrBrad ; 0xfd4
        0x00000a48:    6528        (e      STR      r0,[r5,#0x50]
        0x00000a4a:    200a        .       MOVS     r0,#0xa
        0x00000a4c:    f000fac2    ....    BL       BsrBrad ; 0xfd4
        0x00000a50:    6568        he      STR      r0,[r5,#0x54]
        0x00000a52:    4620         F      MOV      r0,r4
        0x00000a54:    b005        ..      ADD      sp,sp,#0x14
        0x00000a56:    bdf0        ..      POP      {r4-r7,pc}
        0x00000a58:    2000        .       MOVS     r0,#0
        0x00000a5a:    e7fb        ..      B        0xa54 ; BsrAlma + 216
    i.BsrAmir
    BsrAmir
        0x00000a5c:    b510        ..      PUSH     {r4,lr}
        0x00000a5e:    0001        ..      MOVS     r1,r0
        0x00000a60:    d006        ..      BEQ      0xa70 ; BsrAmir + 20
        0x00000a62:    204b        K       MOVS     r0,#0x4b
        0x00000a64:    00c0        ..      LSLS     r0,r0,#3
        0x00000a66:    5840        @X      LDR      r0,[r0,r1]
        0x00000a68:    f7ffff28    ..(.    BL       BsrAdam ; 0x8bc
        0x00000a6c:    2000        .       MOVS     r0,#0
        0x00000a6e:    bd10        ..      POP      {r4,pc}
        0x00000a70:    2004        .       MOVS     r0,#4
        0x00000a72:    43c0        .C      MVNS     r0,r0
        0x00000a74:    bd10        ..      POP      {r4,pc}
    i.BsrAmos
    BsrAmos
        0x00000a76:    b5ff        ..      PUSH     {r0-r7,lr}
        0x00000a78:    b083        ..      SUB      sp,sp,#0xc
        0x00000a7a:    0004        ..      MOVS     r4,r0
        0x00000a7c:    d07a        z.      BEQ      0xb74 ; BsrAmos + 254
        0x00000a7e:    1de0        ..      ADDS     r0,r4,#7
        0x00000a80:    30ff        .0      ADDS     r0,r0,#0xff
        0x00000a82:    30fa        .0      ADDS     r0,r0,#0xfa
        0x00000a84:    9002        ..      STR      r0,[sp,#8]
        0x00000a86:    6dc1        .m      LDR      r1,[r0,#0x5c]
        0x00000a88:    6d80        .m      LDR      r0,[r0,#0x58]
        0x00000a8a:    f7fffedb    ....    BL       BsrAbel ; 0x844
        0x00000a8e:    9001        ..      STR      r0,[sp,#4]
        0x00000a90:    2800        .(      CMP      r0,#0
        0x00000a92:    d072        r.      BEQ      0xb7a ; BsrAmos + 260
        0x00000a94:    2104        .!      MOVS     r1,#4
        0x00000a96:    1a0a        ..      SUBS     r2,r1,r0
        0x00000a98:    0792        ..      LSLS     r2,r2,#30
        0x00000a9a:    0f92        ..      LSRS     r2,r2,#30
        0x00000a9c:    1816        ..      ADDS     r6,r2,r0
        0x00000a9e:    4630        0F      MOV      r0,r6
        0x00000aa0:    3034        40      ADDS     r0,r0,#0x34
        0x00000aa2:    1a0a        ..      SUBS     r2,r1,r0
        0x00000aa4:    0792        ..      LSLS     r2,r2,#30
        0x00000aa6:    0f92        ..      LSRS     r2,r2,#30
        0x00000aa8:    1815        ..      ADDS     r5,r2,r0
        0x00000aaa:    4628        (F      MOV      r0,r5
        0x00000aac:    3034        40      ADDS     r0,r0,#0x34
        0x00000aae:    1a09        ..      SUBS     r1,r1,r0
        0x00000ab0:    0789        ..      LSLS     r1,r1,#30
        0x00000ab2:    0f89        ..      LSRS     r1,r1,#30
        0x00000ab4:    180f        ..      ADDS     r7,r1,r0
        0x00000ab6:    4638        8F      MOV      r0,r7
        0x00000ab8:    990c        ..      LDR      r1,[sp,#0x30]
        0x00000aba:    3034        40      ADDS     r0,r0,#0x34
        0x00000abc:    2900        .)      CMP      r1,#0
        0x00000abe:    d001        ..      BEQ      0xac4 ; BsrAmos + 78
        0x00000ac0:    2100        .!      MOVS     r1,#0
        0x00000ac2:    62a1        .b      STR      r1,[r4,#0x28]
        0x00000ac4:    9000        ..      STR      r0,[sp,#0]
        0x00000ac6:    4632        2F      MOV      r2,r6
        0x00000ac8:    4620         F      MOV      r0,r4
        0x00000aca:    9b0c        ..      LDR      r3,[sp,#0x30]
        0x00000acc:    9904        ..      LDR      r1,[sp,#0x10]
        0x00000ace:    f001fa69    ..i.    BL       BsrEden ; 0x1fa4
        0x00000ad2:    9806        ..      LDR      r0,[sp,#0x18]
        0x00000ad4:    2800        .(      CMP      r0,#0
        0x00000ad6:    d001        ..      BEQ      0xadc ; BsrAmos + 102
        0x00000ad8:    6831        1h      LDR      r1,[r6,#0]
        0x00000ada:    6001        .`      STR      r1,[r0,#0]
        0x00000adc:    68e0        .h      LDR      r0,[r4,#0xc]
        0x00000ade:    2801        .(      CMP      r0,#1
        0x00000ae0:    db05        ..      BLT      0xaee ; BsrAmos + 120
        0x00000ae2:    462a        *F      MOV      r2,r5
        0x00000ae4:    4631        1F      MOV      r1,r6
        0x00000ae6:    4620         F      MOV      r0,r4
        0x00000ae8:    9b0c        ..      LDR      r3,[sp,#0x30]
        0x00000aea:    f001fb19    ....    BL       BsrElla ; 0x2120
        0x00000aee:    68e0        .h      LDR      r0,[r4,#0xc]
        0x00000af0:    2802        .(      CMP      r0,#2
        0x00000af2:    db07        ..      BLT      0xb04 ; BsrAmos + 142
        0x00000af4:    980c        ..      LDR      r0,[sp,#0x30]
        0x00000af6:    9000        ..      STR      r0,[sp,#0]
        0x00000af8:    463b        ;F      MOV      r3,r7
        0x00000afa:    462a        *F      MOV      r2,r5
        0x00000afc:    4631        1F      MOV      r1,r6
        0x00000afe:    4620         F      MOV      r0,r4
        0x00000b00:    f001fbb6    ....    BL       BsrElsa ; 0x2270
        0x00000b04:    6aa0        .j      LDR      r0,[r4,#0x28]
        0x00000b06:    1c40        @.      ADDS     r0,r0,#1
        0x00000b08:    62a0        .b      STR      r0,[r4,#0x28]
        0x00000b0a:    2803        .(      CMP      r0,#3
        0x00000b0c:    dd38        8.      BLE      0xb80 ; BsrAmos + 266
        0x00000b0e:    9805        ..      LDR      r0,[sp,#0x14]
        0x00000b10:    9000        ..      STR      r0,[sp,#0]
        0x00000b12:    68a0        .h      LDR      r0,[r4,#8]
        0x00000b14:    1d31        1.      ADDS     r1,r6,#4
        0x00000b16:    0082        ..      LSLS     r2,r0,#2
        0x00000b18:    9800        ..      LDR      r0,[sp,#0]
        0x00000b1a:    f002fbeb    ....    BL       BsrJose ; 0x32f4
        0x00000b1e:    68a0        .h      LDR      r0,[r4,#8]
        0x00000b20:    0082        ..      LSLS     r2,r0,#2
        0x00000b22:    9800        ..      LDR      r0,[sp,#0]
        0x00000b24:    1816        ..      ADDS     r6,r2,r0
        0x00000b26:    68e0        .h      LDR      r0,[r4,#0xc]
        0x00000b28:    2801        .(      CMP      r0,#1
        0x00000b2a:    db17        ..      BLT      0xb5c ; BsrAmos + 230
        0x00000b2c:    1d29        ).      ADDS     r1,r5,#4
        0x00000b2e:    4630        0F      MOV      r0,r6
        0x00000b30:    f002fbe0    ....    BL       BsrJose ; 0x32f4
        0x00000b34:    68a0        .h      LDR      r0,[r4,#8]
        0x00000b36:    0082        ..      LSLS     r2,r0,#2
        0x00000b38:    68e0        .h      LDR      r0,[r4,#0xc]
        0x00000b3a:    1996        ..      ADDS     r6,r2,r6
        0x00000b3c:    2802        .(      CMP      r0,#2
        0x00000b3e:    db0d        ..      BLT      0xb5c ; BsrAmos + 230
        0x00000b40:    1d39        9.      ADDS     r1,r7,#4
        0x00000b42:    4630        0F      MOV      r0,r6
        0x00000b44:    3a08        .:      SUBS     r2,r2,#8
        0x00000b46:    f002fbd5    ....    BL       BsrJose ; 0x32f4
        0x00000b4a:    68a0        .h      LDR      r0,[r4,#8]
        0x00000b4c:    0080        ..      LSLS     r0,r0,#2
        0x00000b4e:    1986        ..      ADDS     r6,r0,r6
        0x00000b50:    3e08        .>      SUBS     r6,r6,#8
        0x00000b52:    6828        (h      LDR      r0,[r5,#0]
        0x00000b54:    6030        0`      STR      r0,[r6,#0]
        0x00000b56:    6838        8h      LDR      r0,[r7,#0]
        0x00000b58:    6070        p`      STR      r0,[r6,#4]
        0x00000b5a:    3608        .6      ADDS     r6,r6,#8
        0x00000b5c:    9802        ..      LDR      r0,[sp,#8]
        0x00000b5e:    9901        ..      LDR      r1,[sp,#4]
        0x00000b60:    6d80        .m      LDR      r0,[r0,#0x58]
        0x00000b62:    f7fffeab    ....    BL       BsrAdam ; 0x8bc
        0x00000b66:    9805        ..      LDR      r0,[sp,#0x14]
        0x00000b68:    1a30        0.      SUBS     r0,r6,r0
        0x00000b6a:    1080        ..      ASRS     r0,r0,#2
        0x00000b6c:    b007        ..      ADD      sp,sp,#0x1c
        0x00000b6e:    bdf0        ..      POP      {r4-r7,pc}
        0x00000b70:    e000        ..      B        0xb74 ; BsrAmos + 254
        0x00000b72:    e002        ..      B        0xb7a ; BsrAmos + 260
        0x00000b74:    2004        .       MOVS     r0,#4
        0x00000b76:    43c0        .C      MVNS     r0,r0
        0x00000b78:    e7f8        ..      B        0xb6c ; BsrAmos + 246
        0x00000b7a:    2009        .       MOVS     r0,#9
        0x00000b7c:    43c0        .C      MVNS     r0,r0
        0x00000b7e:    e7f5        ..      B        0xb6c ; BsrAmos + 246
        0x00000b80:    9802        ..      LDR      r0,[sp,#8]
        0x00000b82:    9901        ..      LDR      r1,[sp,#4]
        0x00000b84:    6d80        .m      LDR      r0,[r0,#0x58]
        0x00000b86:    f7fffe99    ....    BL       BsrAdam ; 0x8bc
        0x00000b8a:    2002        .       MOVS     r0,#2
        0x00000b8c:    43c0        .C      MVNS     r0,r0
        0x00000b8e:    e7ed        ..      B        0xb6c ; BsrAmos + 246
    i.BsrAna
    BsrAna
        0x00000b90:    b570        p.      PUSH     {r4-r6,lr}
        0x00000b92:    0004        ..      MOVS     r4,r0
        0x00000b94:    d016        ..      BEQ      0xbc4 ; BsrAna + 52
        0x00000b96:    21ff        .!      MOVS     r1,#0xff
        0x00000b98:    31c5        .1      ADDS     r1,r1,#0xc5
        0x00000b9a:    1de5        ..      ADDS     r5,r4,#7
        0x00000b9c:    5909        .Y      LDR      r1,[r1,r4]
        0x00000b9e:    35ff        .5      ADDS     r5,r5,#0xff
        0x00000ba0:    35fa        .5      ADDS     r5,r5,#0xfa
        0x00000ba2:    2900        .)      CMP      r1,#0
        0x00000ba4:    d002        ..      BEQ      0xbac ; BsrAna + 28
        0x00000ba6:    6b68        hk      LDR      r0,[r5,#0x34]
        0x00000ba8:    f7fffe88    ....    BL       BsrAdam ; 0x8bc
        0x00000bac:    6ba9        .k      LDR      r1,[r5,#0x38]
        0x00000bae:    2900        .)      CMP      r1,#0
        0x00000bb0:    d002        ..      BEQ      0xbb8 ; BsrAna + 40
        0x00000bb2:    6b68        hk      LDR      r0,[r5,#0x34]
        0x00000bb4:    f7fffe82    ....    BL       BsrAdam ; 0x8bc
        0x00000bb8:    4621        !F      MOV      r1,r4
        0x00000bba:    6b68        hk      LDR      r0,[r5,#0x34]
        0x00000bbc:    f7fffe7e    ..~.    BL       BsrAdam ; 0x8bc
        0x00000bc0:    2000        .       MOVS     r0,#0
        0x00000bc2:    bd70        p.      POP      {r4-r6,pc}
        0x00000bc4:    2000        .       MOVS     r0,#0
        0x00000bc6:    43c0        .C      MVNS     r0,r0
        0x00000bc8:    bd70        p.      POP      {r4-r6,pc}
    i.BsrAnn
    BsrAnn
        0x00000bca:    b5f7        ..      PUSH     {r0-r2,r4-r7,lr}
        0x00000bcc:    468c        .F      MOV      r12,r1
        0x00000bce:    2800        .(      CMP      r0,#0
        0x00000bd0:    d004        ..      BEQ      0xbdc ; BsrAnn + 18
        0x00000bd2:    2900        .)      CMP      r1,#0
        0x00000bd4:    d002        ..      BEQ      0xbdc ; BsrAnn + 18
        0x00000bd6:    9902        ..      LDR      r1,[sp,#8]
        0x00000bd8:    2900        .)      CMP      r1,#0
        0x00000bda:    dc02        ..      BGT      0xbe2 ; BsrAnn + 24
        0x00000bdc:    2000        .       MOVS     r0,#0
        0x00000bde:    43c0        .C      MVNS     r0,r0
        0x00000be0:    bdfe        ..      POP      {r1-r7,pc}
        0x00000be2:    4662        bF      MOV      r2,r12
        0x00000be4:    2104        .!      MOVS     r1,#4
        0x00000be6:    1a8b        ..      SUBS     r3,r1,r2
        0x00000be8:    079b        ..      LSLS     r3,r3,#30
        0x00000bea:    0f9b        ..      LSRS     r3,r3,#30
        0x00000bec:    189a        ..      ADDS     r2,r3,r2
        0x00000bee:    6dc3        .m      LDR      r3,[r0,#0x5c]
        0x00000bf0:    005b        [.      LSLS     r3,r3,#1
        0x00000bf2:    189a        ..      ADDS     r2,r3,r2
        0x00000bf4:    1d12        ..      ADDS     r2,r2,#4
        0x00000bf6:    1ad3        ..      SUBS     r3,r2,r3
        0x00000bf8:    1f1b        ..      SUBS     r3,r3,#4
        0x00000bfa:    6303        .c      STR      r3,[r0,#0x30]
        0x00000bfc:    1a8b        ..      SUBS     r3,r1,r2
        0x00000bfe:    079b        ..      LSLS     r3,r3,#30
        0x00000c00:    0f9b        ..      LSRS     r3,r3,#30
        0x00000c02:    189a        ..      ADDS     r2,r3,r2
        0x00000c04:    6dc3        .m      LDR      r3,[r0,#0x5c]
        0x00000c06:    005b        [.      LSLS     r3,r3,#1
        0x00000c08:    189a        ..      ADDS     r2,r3,r2
        0x00000c0a:    1d12        ..      ADDS     r2,r2,#4
        0x00000c0c:    1ad3        ..      SUBS     r3,r2,r3
        0x00000c0e:    1f1b        ..      SUBS     r3,r3,#4
        0x00000c10:    6343        Cc      STR      r3,[r0,#0x34]
        0x00000c12:    1a8b        ..      SUBS     r3,r1,r2
        0x00000c14:    079b        ..      LSLS     r3,r3,#30
        0x00000c16:    0f9b        ..      LSRS     r3,r3,#30
        0x00000c18:    189a        ..      ADDS     r2,r3,r2
        0x00000c1a:    6d83        .m      LDR      r3,[r0,#0x58]
        0x00000c1c:    005b        [.      LSLS     r3,r3,#1
        0x00000c1e:    189a        ..      ADDS     r2,r3,r2
        0x00000c20:    1ad3        ..      SUBS     r3,r2,r3
        0x00000c22:    6383        .c      STR      r3,[r0,#0x38]
        0x00000c24:    1a8b        ..      SUBS     r3,r1,r2
        0x00000c26:    079b        ..      LSLS     r3,r3,#30
        0x00000c28:    0f9b        ..      LSRS     r3,r3,#30
        0x00000c2a:    189a        ..      ADDS     r2,r3,r2
        0x00000c2c:    6d83        .m      LDR      r3,[r0,#0x58]
        0x00000c2e:    005b        [.      LSLS     r3,r3,#1
        0x00000c30:    189a        ..      ADDS     r2,r3,r2
        0x00000c32:    1ad3        ..      SUBS     r3,r2,r3
        0x00000c34:    6483        .d      STR      r3,[r0,#0x48]
        0x00000c36:    1a8b        ..      SUBS     r3,r1,r2
        0x00000c38:    079b        ..      LSLS     r3,r3,#30
        0x00000c3a:    0f9b        ..      LSRS     r3,r3,#30
        0x00000c3c:    189d        ..      ADDS     r5,r3,r2
        0x00000c3e:    1dc2        ..      ADDS     r2,r0,#7
        0x00000c40:    32ff        .2      ADDS     r2,r2,#0xff
        0x00000c42:    32fa        .2      ADDS     r2,r2,#0xfa
        0x00000c44:    4613        .F      MOV      r3,r2
        0x00000c46:    6a52        Rj      LDR      r2,[r2,#0x24]
        0x00000c48:    0054        T.      LSLS     r4,r2,#1
        0x00000c4a:    1962        b.      ADDS     r2,r4,r5
        0x00000c4c:    1b14        ..      SUBS     r4,r2,r4
        0x00000c4e:    63c4        .c      STR      r4,[r0,#0x3c]
        0x00000c50:    1a8c        ..      SUBS     r4,r1,r2
        0x00000c52:    07a4        ..      LSLS     r4,r4,#30
        0x00000c54:    0fa4        ..      LSRS     r4,r4,#30
        0x00000c56:    18a2        ..      ADDS     r2,r4,r2
        0x00000c58:    6a5c        \j      LDR      r4,[r3,#0x24]
        0x00000c5a:    0064        d.      LSLS     r4,r4,#1
        0x00000c5c:    18a2        ..      ADDS     r2,r4,r2
        0x00000c5e:    1a89        ..      SUBS     r1,r1,r2
        0x00000c60:    0789        ..      LSLS     r1,r1,#30
        0x00000c62:    1b14        ..      SUBS     r4,r2,r4
        0x00000c64:    0f89        ..      LSRS     r1,r1,#30
        0x00000c66:    1889        ..      ADDS     r1,r1,r2
        0x00000c68:    6404        .d      STR      r4,[r0,#0x40]
        0x00000c6a:    6a5a        Zj      LDR      r2,[r3,#0x24]
        0x00000c6c:    0053        S.      LSLS     r3,r2,#1
        0x00000c6e:    185a        Z.      ADDS     r2,r3,r1
        0x00000c70:    1ad1        ..      SUBS     r1,r2,r3
        0x00000c72:    2400        .$      MOVS     r4,#0
        0x00000c74:    6441        Ad      STR      r1,[r0,#0x44]
        0x00000c76:    e022        ".      B        0xcbe ; BsrAnn + 244
        0x00000c78:    00a1        ..      LSLS     r1,r4,#2
        0x00000c7a:    1809        ..      ADDS     r1,r1,r0
        0x00000c7c:    3180        .1      ADDS     r1,r1,#0x80
        0x00000c7e:    6a8b        .j      LDR      r3,[r1,#0x28]
        0x00000c80:    469e        .F      MOV      lr,r3
        0x00000c82:    2b00        .+      CMP      r3,#0
        0x00000c84:    d01a        ..      BEQ      0xcbc ; BsrAnn + 242
        0x00000c86:    2304        .#      MOVS     r3,#4
        0x00000c88:    1a9b        ..      SUBS     r3,r3,r2
        0x00000c8a:    079b        ..      LSLS     r3,r3,#30
        0x00000c8c:    0f9b        ..      LSRS     r3,r3,#30
        0x00000c8e:    189a        ..      ADDS     r2,r3,r2
        0x00000c90:    2501        .%      MOVS     r5,#1
        0x00000c92:    2300        .#      MOVS     r3,#0
        0x00000c94:    650a        .e      STR      r2,[r1,#0x50]
        0x00000c96:    3280        .2      ADDS     r2,r2,#0x80
        0x00000c98:    e00c        ..      B        0xcb4 ; BsrAnn + 234
        0x00000c9a:    071f        ..      LSLS     r7,r3,#28
        0x00000c9c:    d105        ..      BNE      0xcaa ; BsrAnn + 224
        0x00000c9e:    111e        ..      ASRS     r6,r3,#4
        0x00000ca0:    2e20         .      CMP      r6,#0x20
        0x00000ca2:    da02        ..      BGE      0xcaa ; BsrAnn + 224
        0x00000ca4:    6d0f        .m      LDR      r7,[r1,#0x50]
        0x00000ca6:    00b6        ..      LSLS     r6,r6,#2
        0x00000ca8:    51bd        .Q      STR      r5,[r7,r6]
        0x00000caa:    00af        ..      LSLS     r7,r5,#2
        0x00000cac:    4676        vF      MOV      r6,lr
        0x00000cae:    59f7        .Y      LDR      r7,[r6,r7]
        0x00000cb0:    197d        }.      ADDS     r5,r7,r5
        0x00000cb2:    1c5b        [.      ADDS     r3,r3,#1
        0x00000cb4:    6a8f        .j      LDR      r7,[r1,#0x28]
        0x00000cb6:    683f        ?h      LDR      r7,[r7,#0]
        0x00000cb8:    429f        .B      CMP      r7,r3
        0x00000cba:    dcee        ..      BGT      0xc9a ; BsrAnn + 208
        0x00000cbc:    1c64        d.      ADDS     r4,r4,#1
        0x00000cbe:    6ac1        .j      LDR      r1,[r0,#0x2c]
        0x00000cc0:    42a1        .B      CMP      r1,r4
        0x00000cc2:    dcd9        ..      BGT      0xc78 ; BsrAnn + 174
        0x00000cc4:    21ff        .!      MOVS     r1,#0xff
        0x00000cc6:    3121        !1      ADDS     r1,r1,#0x21
        0x00000cc8:    5809        .X      LDR      r1,[r1,r0]
        0x00000cca:    2900        .)      CMP      r1,#0
        0x00000ccc:    dd1a        ..      BLE      0xd04 ; BsrAnn + 314
        0x00000cce:    2304        .#      MOVS     r3,#4
        0x00000cd0:    1a9b        ..      SUBS     r3,r3,r2
        0x00000cd2:    079b        ..      LSLS     r3,r3,#30
        0x00000cd4:    0f9b        ..      LSRS     r3,r3,#30
        0x00000cd6:    189a        ..      ADDS     r2,r3,r2
        0x00000cd8:    0049        I.      LSLS     r1,r1,#1
        0x00000cda:    188a        ..      ADDS     r2,r1,r2
        0x00000cdc:    1a53        S.      SUBS     r3,r2,r1
        0x00000cde:    21f8        .!      MOVS     r1,#0xf8
        0x00000ce0:    500b        .P      STR      r3,[r1,r0]
        0x00000ce2:    2101        .!      MOVS     r1,#1
        0x00000ce4:    e00b        ..      B        0xcfe ; BsrAnn + 308
        0x00000ce6:    008b        ..      LSLS     r3,r1,#2
        0x00000ce8:    181b        ..      ADDS     r3,r3,r0
        0x00000cea:    3380        .3      ADDS     r3,r3,#0x80
        0x00000cec:    6a5d        ]j      LDR      r5,[r3,#0x24]
        0x00000cee:    6f5c        \o      LDR      r4,[r3,#0x74]
        0x00000cf0:    2d00        .-      CMP      r5,#0
        0x00000cf2:    d000        ..      BEQ      0xcf6 ; BsrAnn + 300
        0x00000cf4:    682d        -h      LDR      r5,[r5,#0]
        0x00000cf6:    006d        m.      LSLS     r5,r5,#1
        0x00000cf8:    1964        d.      ADDS     r4,r4,r5
        0x00000cfa:    1c49        I.      ADDS     r1,r1,#1
        0x00000cfc:    679c        .g      STR      r4,[r3,#0x78]
        0x00000cfe:    6ac3        .j      LDR      r3,[r0,#0x2c]
        0x00000d00:    428b        .B      CMP      r3,r1
        0x00000d02:    dcf0        ..      BGT      0xce6 ; BsrAnn + 284
        0x00000d04:    4661        aF      MOV      r1,r12
        0x00000d06:    1a52        R.      SUBS     r2,r2,r1
        0x00000d08:    9902        ..      LDR      r1,[sp,#8]
        0x00000d0a:    428a        .B      CMP      r2,r1
        0x00000d0c:    dd03        ..      BLE      0xd16 ; BsrAnn + 332
        0x00000d0e:    2100        .!      MOVS     r1,#0
        0x00000d10:    6301        .c      STR      r1,[r0,#0x30]
        0x00000d12:    1e88        ..      SUBS     r0,r1,#2
        0x00000d14:    bdfe        ..      POP      {r1-r7,pc}
        0x00000d16:    2000        .       MOVS     r0,#0
        0x00000d18:    bdfe        ..      POP      {r1-r7,pc}
    i.BsrAnna
    BsrAnna
        0x00000d1a:    b510        ..      PUSH     {r4,lr}
        0x00000d1c:    2800        .(      CMP      r0,#0
        0x00000d1e:    d008        ..      BEQ      0xd32 ; BsrAnna + 24
        0x00000d20:    460a        .F      MOV      r2,r1
        0x00000d22:    23ff        .#      MOVS     r3,#0xff
        0x00000d24:    3acc        .:      SUBS     r2,r2,#0xcc
        0x00000d26:    3336        63      ADDS     r3,r3,#0x36
        0x00000d28:    429a        .B      CMP      r2,r3
        0x00000d2a:    d305        ..      BCC      0xd38 ; BsrAnna + 30
        0x00000d2c:    2028        (       MOVS     r0,#0x28
        0x00000d2e:    43c0        .C      MVNS     r0,r0
        0x00000d30:    bd10        ..      POP      {r4,pc}
        0x00000d32:    2004        .       MOVS     r0,#4
        0x00000d34:    43c0        .C      MVNS     r0,r0
        0x00000d36:    bd10        ..      POP      {r4,pc}
        0x00000d38:    f001fb76    ..v.    BL       BsrErica ; 0x2428
        0x00000d3c:    2000        .       MOVS     r0,#0
        0x00000d3e:    bd10        ..      POP      {r4,pc}
    i.BsrAnne
    BsrAnne
        0x00000d40:    b510        ..      PUSH     {r4,lr}
        0x00000d42:    3880        .8      SUBS     r0,r0,#0x80
        0x00000d44:    2881        .(      CMP      r0,#0x81
        0x00000d46:    d301        ..      BCC      0xd4c ; BsrAnne + 12
        0x00000d48:    2000        .       MOVS     r0,#0
        0x00000d4a:    bd10        ..      POP      {r4,pc}
        0x00000d4c:    2413        .$      MOVS     r4,#0x13
        0x00000d4e:    0164        d.      LSLS     r4,r4,#5
        0x00000d50:    f002fef7    ....    BL       BsrZoe ; 0x3b42
        0x00000d54:    1900        ..      ADDS     r0,r0,r4
        0x00000d56:    bd10        ..      POP      {r4,pc}
    i.BsrAnnie
    BsrAnnie
        0x00000d58:    4601        .F      MOV      r1,r0
        0x00000d5a:    b510        ..      PUSH     {r4,lr}
        0x00000d5c:    3980        .9      SUBS     r1,r1,#0x80
        0x00000d5e:    2981        .)      CMP      r1,#0x81
        0x00000d60:    d301        ..      BCC      0xd66 ; BsrAnnie + 14
        0x00000d62:    2000        .       MOVS     r0,#0
        0x00000d64:    bd10        ..      POP      {r4,pc}
        0x00000d66:    00c4        ..      LSLS     r4,r0,#3
        0x00000d68:    34ff        .4      ADDS     r4,r4,#0xff
        0x00000d6a:    3491        .4      ADDS     r4,r4,#0x91
        0x00000d6c:    f002fee9    ....    BL       BsrZoe ; 0x3b42
        0x00000d70:    1900        ..      ADDS     r0,r0,r4
        0x00000d72:    bd10        ..      POP      {r4,pc}
    i.BsrAri
    BsrAri
        0x00000d74:    b530        0.      PUSH     {r4,r5,lr}
        0x00000d76:    2800        .(      CMP      r0,#0
        0x00000d78:    d006        ..      BEQ      0xd88 ; BsrAri + 20
        0x00000d7a:    6b01        .k      LDR      r1,[r0,#0x30]
        0x00000d7c:    2900        .)      CMP      r1,#0
        0x00000d7e:    d006        ..      BEQ      0xd8e ; BsrAri + 26
        0x00000d80:    2200        ."      MOVS     r2,#0
        0x00000d82:    4611        .F      MOV      r1,r2
        0x00000d84:    4c16        .L      LDR      r4,[pc,#88] ; [0xde0] = 0xffff9e58
        0x00000d86:    e00b        ..      B        0xda0 ; BsrAri + 44
        0x00000d88:    2000        .       MOVS     r0,#0
        0x00000d8a:    43c0        .C      MVNS     r0,r0
        0x00000d8c:    bd30        0.      POP      {r4,r5,pc}
        0x00000d8e:    2001        .       MOVS     r0,#1
        0x00000d90:    43c0        .C      MVNS     r0,r0
        0x00000d92:    bd30        0.      POP      {r4,r5,pc}
        0x00000d94:    6b05        .k      LDR      r5,[r0,#0x30]
        0x00000d96:    0053        S.      LSLS     r3,r2,#1
        0x00000d98:    52ec        .R      STRH     r4,[r5,r3]
        0x00000d9a:    6b45        Ek      LDR      r5,[r0,#0x34]
        0x00000d9c:    1c52        R.      ADDS     r2,r2,#1
        0x00000d9e:    52e9        .R      STRH     r1,[r5,r3]
        0x00000da0:    6dc3        .m      LDR      r3,[r0,#0x5c]
        0x00000da2:    1c9b        ..      ADDS     r3,r3,#2
        0x00000da4:    4293        .B      CMP      r3,r2
        0x00000da6:    dcf5        ..      BGT      0xd94 ; BsrAri + 32
        0x00000da8:    6b02        .k      LDR      r2,[r0,#0x30]
        0x00000daa:    8011        ..      STRH     r1,[r2,#0]
        0x00000dac:    6c02        .l      LDR      r2,[r0,#0x40]
        0x00000dae:    8011        ..      STRH     r1,[r2,#0]
        0x00000db0:    6bc2        .k      LDR      r2,[r0,#0x3c]
        0x00000db2:    8011        ..      STRH     r1,[r2,#0]
        0x00000db4:    6c42        Bl      LDR      r2,[r0,#0x44]
        0x00000db6:    8011        ..      STRH     r1,[r2,#0]
        0x00000db8:    2200        ."      MOVS     r2,#0
        0x00000dba:    e005        ..      B        0xdc8 ; BsrAri + 84
        0x00000dbc:    6c84        .l      LDR      r4,[r0,#0x48]
        0x00000dbe:    0053        S.      LSLS     r3,r2,#1
        0x00000dc0:    52e1        .R      STRH     r1,[r4,r3]
        0x00000dc2:    6b84        .k      LDR      r4,[r0,#0x38]
        0x00000dc4:    1c52        R.      ADDS     r2,r2,#1
        0x00000dc6:    52e1        .R      STRH     r1,[r4,r3]
        0x00000dc8:    6d83        .m      LDR      r3,[r0,#0x58]
        0x00000dca:    4293        .B      CMP      r3,r2
        0x00000dcc:    dcf6        ..      BGT      0xdbc ; BsrAri + 72
        0x00000dce:    30ff        .0      ADDS     r0,r0,#0xff
        0x00000dd0:    30ff        .0      ADDS     r0,r0,#0xff
        0x00000dd2:    3002        .0      ADDS     r0,#2
        0x00000dd4:    61c1        .a      STR      r1,[r0,#0x1c]
        0x00000dd6:    6201        .b      STR      r1,[r0,#0x20]
        0x00000dd8:    2101        .!      MOVS     r1,#1
        0x00000dda:    6301        .c      STR      r1,[r0,#0x30]
        0x00000ddc:    2000        .       MOVS     r0,#0
        0x00000dde:    bd30        0.      POP      {r4,r5,pc}
    $d
        0x00000de0:    ffff9e58    X...    DCD    4294942296
    $t
    i.BsrAsa
    BsrAsa
        0x00000de4:    b570        p.      PUSH     {r4-r6,lr}
        0x00000de6:    460e        .F      MOV      r6,r1
        0x00000de8:    0004        ..      MOVS     r4,r0
        0x00000dea:    4605        .F      MOV      r5,r0
        0x00000dec:    d025        %.      BEQ      0xe3a ; BsrAsa + 86
        0x00000dee:    2e00        ..      CMP      r6,#0
        0x00000df0:    d023        #.      BEQ      0xe3a ; BsrAsa + 86
        0x00000df2:    6b28        (k      LDR      r0,[r5,#0x30]
        0x00000df4:    2800        .(      CMP      r0,#0
        0x00000df6:    d023        #.      BEQ      0xe40 ; BsrAsa + 92
        0x00000df8:    4620         F      MOV      r0,r4
        0x00000dfa:    f000f99d    ....    BL       BsrCade ; 0x1138
        0x00000dfe:    4631        1F      MOV      r1,r6
        0x00000e00:    4628        (F      MOV      r0,r5
        0x00000e02:    f000fa49    ..I.    BL       BsrCale ; 0x1298
        0x00000e06:    4631        1F      MOV      r1,r6
        0x00000e08:    4628        (F      MOV      r0,r5
        0x00000e0a:    f000fa53    ..S.    BL       BsrCara ; 0x12b4
        0x00000e0e:    462a        *F      MOV      r2,r5
        0x00000e10:    32ff        .2      ADDS     r2,r2,#0xff
        0x00000e12:    3281        .2      ADDS     r2,r2,#0x81
        0x00000e14:    6590        .e      STR      r0,[r2,#0x58]
        0x00000e16:    6b2b        +k      LDR      r3,[r5,#0x30]
        0x00000e18:    2100        .!      MOVS     r1,#0
        0x00000e1a:    34ff        .4      ADDS     r4,r4,#0xff
        0x00000e1c:    5e59        Y^      LDRSH    r1,[r3,r1]
        0x00000e1e:    34ff        .4      ADDS     r4,r4,#0xff
        0x00000e20:    3402        .4      ADDS     r4,#2
        0x00000e22:    4288        .B      CMP      r0,r1
        0x00000e24:    d00f        ..      BEQ      0xe46 ; BsrAsa + 98
        0x00000e26:    6de8        .m      LDR      r0,[r5,#0x5c]
        0x00000e28:    6b69        ik      LDR      r1,[r5,#0x34]
        0x00000e2a:    0040        @.      LSLS     r0,r0,#1
        0x00000e2c:    1c80        ..      ADDS     r0,r0,#2
        0x00000e2e:    5e08        .^      LDRSH    r0,[r1,r0]
        0x00000e30:    280f        .(      CMP      r0,#0xf
        0x00000e32:    da08        ..      BGE      0xe46 ; BsrAsa + 98
        0x00000e34:    69a0        .i      LDR      r0,[r4,#0x18]
        0x00000e36:    1c40        @.      ADDS     r0,r0,#1
        0x00000e38:    e006        ..      B        0xe48 ; BsrAsa + 100
        0x00000e3a:    2000        .       MOVS     r0,#0
        0x00000e3c:    43c0        .C      MVNS     r0,r0
        0x00000e3e:    bd70        p.      POP      {r4-r6,pc}
        0x00000e40:    2001        .       MOVS     r0,#1
        0x00000e42:    43c0        .C      MVNS     r0,r0
        0x00000e44:    bd70        p.      POP      {r4-r6,pc}
        0x00000e46:    2000        .       MOVS     r0,#0
        0x00000e48:    61a0        .a      STR      r0,[r4,#0x18]
        0x00000e4a:    2814        .(      CMP      r0,#0x14
        0x00000e4c:    db01        ..      BLT      0xe52 ; BsrAsa + 110
        0x00000e4e:    2001        .       MOVS     r0,#1
        0x00000e50:    e000        ..      B        0xe54 ; BsrAsa + 112
        0x00000e52:    2000        .       MOVS     r0,#0
        0x00000e54:    6160        `a      STR      r0,[r4,#0x14]
        0x00000e56:    4628        (F      MOV      r0,r5
        0x00000e58:    6d91        .m      LDR      r1,[r2,#0x58]
        0x00000e5a:    f000fb6b    ..k.    BL       BsrChad ; 0x1534
        0x00000e5e:    6aa1        .j      LDR      r1,[r4,#0x28]
        0x00000e60:    4281        .B      CMP      r1,r0
        0x00000e62:    da02        ..      BGE      0xe6a ; BsrAsa + 134
        0x00000e64:    4628        (F      MOV      r0,r5
        0x00000e66:    f000fbb1    ....    BL       BsrChaz ; 0x15cc
        0x00000e6a:    4628        (F      MOV      r0,r5
        0x00000e6c:    f000fc00    ....    BL       BsrChaza ; 0x1670
        0x00000e70:    4628        (F      MOV      r0,r5
        0x00000e72:    f000fc37    ..7.    BL       BsrChazi ; 0x16e4
        0x00000e76:    69e0        .i      LDR      r0,[r4,#0x1c]
        0x00000e78:    6c2a        *l      LDR      r2,[r5,#0x40]
        0x00000e7a:    0041        A.      LSLS     r1,r0,#1
        0x00000e7c:    5e53        S^      LDRSH    r3,[r2,r1]
        0x00000e7e:    4a0d        .J      LDR      r2,[pc,#52] ; [0xeb4] = 0xffffc568
        0x00000e80:    4293        .B      CMP      r3,r2
        0x00000e82:    db03        ..      BLT      0xe8c ; BsrAsa + 168
        0x00000e84:    6c6b        kl      LDR      r3,[r5,#0x44]
        0x00000e86:    5e59        Y^      LDRSH    r1,[r3,r1]
        0x00000e88:    4291        .B      CMP      r1,r2
        0x00000e8a:    da05        ..      BGE      0xe98 ; BsrAsa + 180
        0x00000e8c:    4628        (F      MOV      r0,r5
        0x00000e8e:    f7ffff71    ..q.    BL       BsrAri ; 0xd74
        0x00000e92:    2009        .       MOVS     r0,#9
        0x00000e94:    43c0        .C      MVNS     r0,r0
        0x00000e96:    bd70        p.      POP      {r4-r6,pc}
        0x00000e98:    1c40        @.      ADDS     r0,r0,#1
        0x00000e9a:    61e0        .a      STR      r0,[r4,#0x1c]
        0x00000e9c:    6a61        aj      LDR      r1,[r4,#0x24]
        0x00000e9e:    4288        .B      CMP      r0,r1
        0x00000ea0:    db04        ..      BLT      0xeac ; BsrAsa + 200
        0x00000ea2:    6a20         j      LDR      r0,[r4,#0x20]
        0x00000ea4:    1c40        @.      ADDS     r0,r0,#1
        0x00000ea6:    6220         b      STR      r0,[r4,#0x20]
        0x00000ea8:    2000        .       MOVS     r0,#0
        0x00000eaa:    61e0        .a      STR      r0,[r4,#0x1c]
        0x00000eac:    4628        (F      MOV      r0,r5
        0x00000eae:    f000fc7f    ....    BL       BsrClay ; 0x17b0
        0x00000eb2:    bd70        p.      POP      {r4-r6,pc}
    $d
        0x00000eb4:    ffffc568    h...    DCD    4294952296
    $t
    i.BsrAve
    BsrAve
        0x00000eb8:    b5ff        ..      PUSH     {r0-r7,lr}
        0x00000eba:    b081        ..      SUB      sp,sp,#4
        0x00000ebc:    460f        .F      MOV      r7,r1
        0x00000ebe:    0006        ..      MOVS     r6,r0
        0x00000ec0:    d027        '.      BEQ      0xf12 ; BsrAve + 90
        0x00000ec2:    9803        ..      LDR      r0,[sp,#0xc]
        0x00000ec4:    2800        .(      CMP      r0,#0
        0x00000ec6:    db24        $.      BLT      0xf12 ; BsrAve + 90
        0x00000ec8:    9804        ..      LDR      r0,[sp,#0x10]
        0x00000eca:    2800        .(      CMP      r0,#0
        0x00000ecc:    db21        !.      BLT      0xf12 ; BsrAve + 90
        0x00000ece:    258f        .%      MOVS     r5,#0x8f
        0x00000ed0:    00ad        ..      LSLS     r5,r5,#2
        0x00000ed2:    2400        .$      MOVS     r4,#0
        0x00000ed4:    e014        ..      B        0xf00 ; BsrAve + 72
        0x00000ed6:    00a0        ..      LSLS     r0,r4,#2
        0x00000ed8:    5830        0X      LDR      r0,[r6,r0]
        0x00000eda:    2800        .(      CMP      r0,#0
        0x00000edc:    d019        ..      BEQ      0xf12 ; BsrAve + 90
        0x00000ede:    6c01        .l      LDR      r1,[r0,#0x40]
        0x00000ee0:    0049        I.      LSLS     r1,r1,#1
        0x00000ee2:    194a        J.      ADDS     r2,r1,r5
        0x00000ee4:    1889        ..      ADDS     r1,r1,r2
        0x00000ee6:    2204        ."      MOVS     r2,#4
        0x00000ee8:    1a52        R.      SUBS     r2,r2,r1
        0x00000eea:    0792        ..      LSLS     r2,r2,#30
        0x00000eec:    0f92        ..      LSRS     r2,r2,#30
        0x00000eee:    1855        U.      ADDS     r5,r2,r1
        0x00000ef0:    2c00        .,      CMP      r4,#0
        0x00000ef2:    d011        ..      BEQ      0xf18 ; BsrAve + 96
        0x00000ef4:    2200        ."      MOVS     r2,#0
        0x00000ef6:    4611        .F      MOV      r1,r2
        0x00000ef8:    f000f826    ..&.    BL       BsrBen ; 0xf48
        0x00000efc:    1945        E.      ADDS     r5,r0,r5
        0x00000efe:    1c64        d.      ADDS     r4,r4,#1
        0x00000f00:    42bc        .B      CMP      r4,r7
        0x00000f02:    dbe8        ..      BLT      0xed6 ; BsrAve + 30
        0x00000f04:    f002fe1d    ....    BL       BsrZoe ; 0x3b42
        0x00000f08:    0041        A.      LSLS     r1,r0,#1
        0x00000f0a:    1840        @.      ADDS     r0,r0,r1
        0x00000f0c:    1940        @.      ADDS     r0,r0,r5
        0x00000f0e:    b005        ..      ADD      sp,sp,#0x14
        0x00000f10:    bdf0        ..      POP      {r4-r7,pc}
        0x00000f12:    2000        .       MOVS     r0,#0
        0x00000f14:    43c0        .C      MVNS     r0,r0
        0x00000f16:    e7fa        ..      B        0xf0e ; BsrAve + 86
        0x00000f18:    6830        0h      LDR      r0,[r6,#0]
        0x00000f1a:    9a04        ..      LDR      r2,[sp,#0x10]
        0x00000f1c:    9903        ..      LDR      r1,[sp,#0xc]
        0x00000f1e:    e7eb        ..      B        0xef8 ; BsrAve + 64
    i.BsrAyla
    BsrAyla
        0x00000f20:    2800        .(      CMP      r0,#0
        0x00000f22:    d004        ..      BEQ      0xf2e ; BsrAyla + 14
        0x00000f24:    2909        .)      CMP      r1,#9
        0x00000f26:    d305        ..      BCC      0xf34 ; BsrAyla + 20
        0x00000f28:    2028        (       MOVS     r0,#0x28
        0x00000f2a:    43c0        .C      MVNS     r0,r0
        0x00000f2c:    4770        pG      BX       lr
        0x00000f2e:    2004        .       MOVS     r0,#4
        0x00000f30:    43c0        .C      MVNS     r0,r0
        0x00000f32:    4770        pG      BX       lr
        0x00000f34:    6181        .a      STR      r1,[r0,#0x18]
        0x00000f36:    2000        .       MOVS     r0,#0
        0x00000f38:    4770        pG      BX       lr
    i.BsrBaby
    BsrBaby
        0x00000f3a:    2800        .(      CMP      r0,#0
        0x00000f3c:    d001        ..      BEQ      0xf42 ; BsrBaby + 8
        0x00000f3e:    6880        .h      LDR      r0,[r0,#8]
        0x00000f40:    4770        pG      BX       lr
        0x00000f42:    2004        .       MOVS     r0,#4
        0x00000f44:    43c0        .C      MVNS     r0,r0
        0x00000f46:    4770        pG      BX       lr
    i.BsrBen
    BsrBen
        0x00000f48:    b570        p.      PUSH     {r4-r6,lr}
        0x00000f4a:    2800        .(      CMP      r0,#0
        0x00000f4c:    d003        ..      BEQ      0xf56 ; BsrBen + 14
        0x00000f4e:    2900        .)      CMP      r1,#0
        0x00000f50:    db01        ..      BLT      0xf56 ; BsrBen + 14
        0x00000f52:    2a00        .*      CMP      r2,#0
        0x00000f54:    da02        ..      BGE      0xf5c ; BsrBen + 20
        0x00000f56:    2000        .       MOVS     r0,#0
        0x00000f58:    43c0        .C      MVNS     r0,r0
        0x00000f5a:    bd70        p.      POP      {r4-r6,pc}
        0x00000f5c:    6c42        Bl      LDR      r2,[r0,#0x44]
        0x00000f5e:    2404        .$      MOVS     r4,#4
        0x00000f60:    0053        S.      LSLS     r3,r2,#1
        0x00000f62:    1d1a        ..      ADDS     r2,r3,#4
        0x00000f64:    1aa6        ..      SUBS     r6,r4,r2
        0x00000f66:    07b6        ..      LSLS     r6,r6,#30
        0x00000f68:    0fb6        ..      LSRS     r6,r6,#30
        0x00000f6a:    18b6        ..      ADDS     r6,r6,r2
        0x00000f6c:    199a        ..      ADDS     r2,r3,r6
        0x00000f6e:    1d12        ..      ADDS     r2,r2,#4
        0x00000f70:    1aa3        ..      SUBS     r3,r4,r2
        0x00000f72:    079b        ..      LSLS     r3,r3,#30
        0x00000f74:    0f9b        ..      LSRS     r3,r3,#30
        0x00000f76:    6c05        .l      LDR      r5,[r0,#0x40]
        0x00000f78:    189a        ..      ADDS     r2,r3,r2
        0x00000f7a:    006b        k.      LSLS     r3,r5,#1
        0x00000f7c:    189a        ..      ADDS     r2,r3,r2
        0x00000f7e:    1aa6        ..      SUBS     r6,r4,r2
        0x00000f80:    07b6        ..      LSLS     r6,r6,#30
        0x00000f82:    0fb6        ..      LSRS     r6,r6,#30
        0x00000f84:    18b2        ..      ADDS     r2,r6,r2
        0x00000f86:    189a        ..      ADDS     r2,r3,r2
        0x00000f88:    1aa3        ..      SUBS     r3,r4,r2
        0x00000f8a:    079b        ..      LSLS     r3,r3,#30
        0x00000f8c:    0f9b        ..      LSRS     r3,r3,#30
        0x00000f8e:    189a        ..      ADDS     r2,r3,r2
        0x00000f90:    0049        I.      LSLS     r1,r1,#1
        0x00000f92:    188a        ..      ADDS     r2,r1,r2
        0x00000f94:    1aa3        ..      SUBS     r3,r4,r2
        0x00000f96:    079b        ..      LSLS     r3,r3,#30
        0x00000f98:    0f9b        ..      LSRS     r3,r3,#30
        0x00000f9a:    189a        ..      ADDS     r2,r3,r2
        0x00000f9c:    188a        ..      ADDS     r2,r1,r2
        0x00000f9e:    1aa3        ..      SUBS     r3,r4,r2
        0x00000fa0:    079b        ..      LSLS     r3,r3,#30
        0x00000fa2:    0f9b        ..      LSRS     r3,r3,#30
        0x00000fa4:    189a        ..      ADDS     r2,r3,r2
        0x00000fa6:    1889        ..      ADDS     r1,r1,r2
        0x00000fa8:    1a62        b.      SUBS     r2,r4,r1
        0x00000faa:    0792        ..      LSLS     r2,r2,#30
        0x00000fac:    0f92        ..      LSRS     r2,r2,#30
        0x00000fae:    1851        Q.      ADDS     r1,r2,r1
        0x00000fb0:    2d00        .-      CMP      r5,#0
        0x00000fb2:    dd0d        ..      BLE      0xfd0 ; BsrBen + 136
        0x00000fb4:    7d82        .}      LDRB     r2,[r0,#0x16]
        0x00000fb6:    0692        ..      LSLS     r2,r2,#26
        0x00000fb8:    d50a        ..      BPL      0xfd0 ; BsrBen + 136
        0x00000fba:    460d        .F      MOV      r5,r1
        0x00000fbc:    3580        .5      ADDS     r5,r5,#0x80
        0x00000fbe:    f002fa5b    ..[.    BL       BsrMaxi ; 0x3478
        0x00000fc2:    6800        .h      LDR      r0,[r0,#0]
        0x00000fc4:    0040        @.      LSLS     r0,r0,#1
        0x00000fc6:    1940        @.      ADDS     r0,r0,r5
        0x00000fc8:    1a21        !.      SUBS     r1,r4,r0
        0x00000fca:    0789        ..      LSLS     r1,r1,#30
        0x00000fcc:    0f89        ..      LSRS     r1,r1,#30
        0x00000fce:    1809        ..      ADDS     r1,r1,r0
        0x00000fd0:    4608        .F      MOV      r0,r1
        0x00000fd2:    bd70        p.      POP      {r4-r6,pc}
    i.BsrBrad
    BsrBrad
        0x00000fd4:    2801        .(      CMP      r0,#1
        0x00000fd6:    dc01        ..      BGT      0xfdc ; BsrBrad + 8
        0x00000fd8:    2000        .       MOVS     r0,#0
        0x00000fda:    4770        pG      BX       lr
        0x00000fdc:    2100        .!      MOVS     r1,#0
        0x00000fde:    e000        ..      B        0xfe2 ; BsrBrad + 14
        0x00000fe0:    1c49        I.      ADDS     r1,r1,#1
        0x00000fe2:    4602        .F      MOV      r2,r0
        0x00000fe4:    410a        .A      ASRS     r2,r2,r1
        0x00000fe6:    2a01        .*      CMP      r2,#1
        0x00000fe8:    d1fa        ..      BNE      0xfe0 ; BsrBrad + 12
        0x00000fea:    0292        ..      LSLS     r2,r2,#10
        0x00000fec:    290a        .)      CMP      r1,#0xa
        0x00000fee:    dc03        ..      BGT      0xff8 ; BsrBrad + 36
        0x00000ff0:    230a        .#      MOVS     r3,#0xa
        0x00000ff2:    1a5b        [.      SUBS     r3,r3,r1
        0x00000ff4:    4098        .@      LSLS     r0,r0,r3
        0x00000ff6:    e002        ..      B        0xffe ; BsrBrad + 42
        0x00000ff8:    460b        .F      MOV      r3,r1
        0x00000ffa:    3b0a        .;      SUBS     r3,r3,#0xa
        0x00000ffc:    4118        .A      ASRS     r0,r0,r3
        0x00000ffe:    1a80        ..      SUBS     r0,r0,r2
        0x00001000:    4a02        .J      LDR      r2,[pc,#8] ; [0x100c] = 0x5d10
        0x00001002:    0040        @.      LSLS     r0,r0,#1
        0x00001004:    5e10        .^      LDRSH    r0,[r2,r0]
        0x00001006:    0249        I.      LSLS     r1,r1,#9
        0x00001008:    1808        ..      ADDS     r0,r1,r0
        0x0000100a:    4770        pG      BX       lr
    $d
        0x0000100c:    00005d10    .]..    DCD    23824
    $t
    i.BsrBret
    BsrBret
        0x00001010:    b5ff        ..      PUSH     {r0-r7,lr}
        0x00001012:    b090        ..      SUB      sp,sp,#0x40
        0x00001014:    9810        ..      LDR      r0,[sp,#0x40]
        0x00001016:    6ec2        .n      LDR      r2,[r0,#0x6c]
        0x00001018:    6f00        .o      LDR      r0,[r0,#0x70]
        0x0000101a:    1a10        ..      SUBS     r0,r2,r0
        0x0000101c:    9004        ..      STR      r0,[sp,#0x10]
        0x0000101e:    1098        ..      ASRS     r0,r3,#2
        0x00001020:    4684        .F      MOV      r12,r0
        0x00001022:    6848        Hh      LDR      r0,[r1,#4]
        0x00001024:    3108        .1      ADDS     r1,r1,#8
        0x00001026:    0040        @.      LSLS     r0,r0,#1
        0x00001028:    0840        @.      LSRS     r0,r0,#1
        0x0000102a:    9006        ..      STR      r0,[sp,#0x18]
        0x0000102c:    4660        `F      MOV      r0,r12
        0x0000102e:    0080        ..      LSLS     r0,r0,#2
        0x00001030:    1843        C.      ADDS     r3,r0,r1
        0x00001032:    900a        ..      STR      r0,[sp,#0x28]
        0x00001034:    483e        >H      LDR      r0,[pc,#248] ; [0x1130] = 0x7fffffff
        0x00001036:    9002        ..      STR      r0,[sp,#8]
        0x00001038:    9819        ..      LDR      r0,[sp,#0x64]
        0x0000103a:    2800        .(      CMP      r0,#0
        0x0000103c:    d002        ..      BEQ      0x1044 ; BsrBret + 52
        0x0000103e:    2200        ."      MOVS     r2,#0
        0x00001040:    43d2        .C      MVNS     r2,r2
        0x00001042:    6002        .`      STR      r2,[r0,#0]
        0x00001044:    2000        .       MOVS     r0,#0
        0x00001046:    e064        d.      B        0x1112 ; BsrBret + 258
        0x00001048:    2000        .       MOVS     r0,#0
        0x0000104a:    9000        ..      STR      r0,[sp,#0]
        0x0000104c:    9a10        ..      LDR      r2,[sp,#0x40]
        0x0000104e:    9812        ..      LDR      r0,[sp,#0x48]
        0x00001050:    6e92        .n      LDR      r2,[r2,#0x68]
        0x00001052:    2400        .$      MOVS     r4,#0
        0x00001054:    e046        F.      B        0x10e4 ; BsrBret + 212
        0x00001056:    680d        .h      LDR      r5,[r1,#0]
        0x00001058:    681f        .h      LDR      r7,[r3,#0]
        0x0000105a:    970f        ..      STR      r7,[sp,#0x3c]
        0x0000105c:    0c3f        ?.      LSRS     r7,r7,#16
        0x0000105e:    970c        ..      STR      r7,[sp,#0x30]
        0x00001060:    c880        ..      LDM      r0!,{r7}
        0x00001062:    162e        ..      ASRS     r6,r5,#24
        0x00001064:    1bbe        ..      SUBS     r6,r7,r6
        0x00001066:    7817        .x      LDRB     r7,[r2,#0]
        0x00001068:    1d12        ..      ADDS     r2,r2,#4
        0x0000106a:    4686        .F      MOV      lr,r0
        0x0000106c:    9207        ..      STR      r2,[sp,#0x1c]
        0x0000106e:    980c        ..      LDR      r0,[sp,#0x30]
        0x00001070:    4376        vC      MULS     r6,r6,r6
        0x00001072:    4346        FC      MULS     r6,r0,r6
        0x00001074:    9800        ..      LDR      r0,[sp,#0]
        0x00001076:    413e        >A      ASRS     r6,r6,r7
        0x00001078:    1830        0.      ADDS     r0,r6,r0
        0x0000107a:    9000        ..      STR      r0,[sp,#0]
        0x0000107c:    1428        (.      ASRS     r0,r5,#16
        0x0000107e:    b242        B.      SXTB     r2,r0
        0x00001080:    4670        pF      MOV      r0,lr
        0x00001082:    6800        .h      LDR      r0,[r0,#0]
        0x00001084:    9f0f        ..      LDR      r7,[sp,#0x3c]
        0x00001086:    1a86        ..      SUBS     r6,r0,r2
        0x00001088:    4670        pF      MOV      r0,lr
        0x0000108a:    1d00        ..      ADDS     r0,r0,#4
        0x0000108c:    9a07        ..      LDR      r2,[sp,#0x1c]
        0x0000108e:    4686        .F      MOV      lr,r0
        0x00001090:    b2bf        ..      UXTH     r7,r7
        0x00001092:    7810        .x      LDRB     r0,[r2,#0]
        0x00001094:    4376        vC      MULS     r6,r6,r6
        0x00001096:    437e        ~C      MULS     r6,r7,r6
        0x00001098:    4106        .A      ASRS     r6,r6,r0
        0x0000109a:    9800        ..      LDR      r0,[sp,#0]
        0x0000109c:    1836        6.      ADDS     r6,r6,r0
        0x0000109e:    9600        ..      STR      r6,[sp,#0]
        0x000010a0:    1d1e        ..      ADDS     r6,r3,#4
        0x000010a2:    960b        ..      STR      r6,[sp,#0x2c]
        0x000010a4:    1228        (.      ASRS     r0,r5,#8
        0x000010a6:    6836        6h      LDR      r6,[r6,#0]
        0x000010a8:    b243        C.      SXTB     r3,r0
        0x000010aa:    960f        ..      STR      r6,[sp,#0x3c]
        0x000010ac:    4670        pF      MOV      r0,lr
        0x000010ae:    6800        .h      LDR      r0,[r0,#0]
        0x000010b0:    0c36        6.      LSRS     r6,r6,#16
        0x000010b2:    1ac3        ..      SUBS     r3,r0,r3
        0x000010b4:    435b        [C      MULS     r3,r3,r3
        0x000010b6:    7917        .y      LDRB     r7,[r2,#4]
        0x000010b8:    4373        sC      MULS     r3,r6,r3
        0x000010ba:    9e00        ..      LDR      r6,[sp,#0]
        0x000010bc:    413b        ;A      ASRS     r3,r3,r7
        0x000010be:    199f        ..      ADDS     r7,r3,r6
        0x000010c0:    4670        pF      MOV      r0,lr
        0x000010c2:    b26b        k.      SXTB     r3,r5
        0x000010c4:    6845        Eh      LDR      r5,[r0,#4]
        0x000010c6:    9e0f        ..      LDR      r6,[sp,#0x3c]
        0x000010c8:    1aeb        ..      SUBS     r3,r5,r3
        0x000010ca:    b2b6        ..      UXTH     r6,r6
        0x000010cc:    7a15        .z      LDRB     r5,[r2,#8]
        0x000010ce:    435b        [C      MULS     r3,r3,r3
        0x000010d0:    4373        sC      MULS     r3,r6,r3
        0x000010d2:    412b        +A      ASRS     r3,r3,r5
        0x000010d4:    19db        ..      ADDS     r3,r3,r7
        0x000010d6:    9300        ..      STR      r3,[sp,#0]
        0x000010d8:    9b0b        ..      LDR      r3,[sp,#0x2c]
        0x000010da:    3008        .0      ADDS     r0,r0,#8
        0x000010dc:    1d09        ..      ADDS     r1,r1,#4
        0x000010de:    320c        .2      ADDS     r2,r2,#0xc
        0x000010e0:    1d1b        ..      ADDS     r3,r3,#4
        0x000010e2:    1c64        d.      ADDS     r4,r4,#1
        0x000010e4:    4564        dE      CMP      r4,r12
        0x000010e6:    dbb6        ..      BLT      0x1056 ; BsrBret + 70
        0x000010e8:    9904        ..      LDR      r1,[sp,#0x10]
        0x000010ea:    9800        ..      LDR      r0,[sp,#0]
        0x000010ec:    4108        .A      ASRS     r0,r0,r1
        0x000010ee:    6819        .h      LDR      r1,[r3,#0]
        0x000010f0:    1040        @.      ASRS     r0,r0,#1
        0x000010f2:    1840        @.      ADDS     r0,r0,r1
        0x000010f4:    9902        ..      LDR      r1,[sp,#8]
        0x000010f6:    4281        .B      CMP      r1,r0
        0x000010f8:    dd06        ..      BLE      0x1108 ; BsrBret + 248
        0x000010fa:    9002        ..      STR      r0,[sp,#8]
        0x000010fc:    9819        ..      LDR      r0,[sp,#0x64]
        0x000010fe:    2800        .(      CMP      r0,#0
        0x00001100:    d002        ..      BEQ      0x1108 ; BsrBret + 248
        0x00001102:    9919        ..      LDR      r1,[sp,#0x64]
        0x00001104:    9803        ..      LDR      r0,[sp,#0xc]
        0x00001106:    6008        .`      STR      r0,[r1,#0]
        0x00001108:    980a        ..      LDR      r0,[sp,#0x28]
        0x0000110a:    1d19        ..      ADDS     r1,r3,#4
        0x0000110c:    1843        C.      ADDS     r3,r0,r1
        0x0000110e:    9803        ..      LDR      r0,[sp,#0xc]
        0x00001110:    1c40        @.      ADDS     r0,r0,#1
        0x00001112:    9a06        ..      LDR      r2,[sp,#0x18]
        0x00001114:    9003        ..      STR      r0,[sp,#0xc]
        0x00001116:    4290        .B      CMP      r0,r2
        0x00001118:    db96        ..      BLT      0x1048 ; BsrBret + 56
        0x0000111a:    9810        ..      LDR      r0,[sp,#0x40]
        0x0000111c:    6f01        .o      LDR      r1,[r0,#0x70]
        0x0000111e:    9802        ..      LDR      r0,[sp,#8]
        0x00001120:    4108        .A      ASRS     r0,r0,r1
        0x00001122:    4904        .I      LDR      r1,[pc,#16] ; [0x1134] = 0xffffec78
        0x00001124:    4240        @B      RSBS     r0,r0,#0
        0x00001126:    4288        .B      CMP      r0,r1
        0x00001128:    da00        ..      BGE      0x112c ; BsrBret + 284
        0x0000112a:    4608        .F      MOV      r0,r1
        0x0000112c:    b014        ..      ADD      sp,sp,#0x50
        0x0000112e:    bdf0        ..      POP      {r4-r7,pc}
    $d
        0x00001130:    7fffffff    ....    DCD    2147483647
        0x00001134:    ffffec78    x...    DCD    4294962296
    $t
    i.BsrCade
    BsrCade
        0x00001138:    b5ff        ..      PUSH     {r0-r7,lr}
        0x0000113a:    4b56        VK      LDR      r3,[pc,#344] ; [0x1294] = 0xffff9e58
        0x0000113c:    6b42        Bk      LDR      r2,[r0,#0x34]
        0x0000113e:    6b01        .k      LDR      r1,[r0,#0x30]
        0x00001140:    9302        ..      STR      r3,[sp,#8]
        0x00001142:    2300        .#      MOVS     r3,#0
        0x00001144:    9301        ..      STR      r3,[sp,#4]
        0x00001146:    23ff        .#      MOVS     r3,#0xff
        0x00001148:    3325        %3      ADDS     r3,r3,#0x25
        0x0000114a:    581b        .X      LDR      r3,[r3,r0]
        0x0000114c:    469e        .F      MOV      lr,r3
        0x0000114e:    2301        .#      MOVS     r3,#1
        0x00001150:    469c        .F      MOV      r12,r3
        0x00001152:    2400        .$      MOVS     r4,#0
        0x00001154:    e065        e.      B        0x1222 ; BsrCade + 234
        0x00001156:    9b01        ..      LDR      r3,[sp,#4]
        0x00001158:    009b        ..      LSLS     r3,r3,#2
        0x0000115a:    181b        ..      ADDS     r3,r3,r0
        0x0000115c:    33ff        .3      ADDS     r3,r3,#0xff
        0x0000115e:    3301        .3      ADDS     r3,#1
        0x00001160:    6cdb        .l      LDR      r3,[r3,#0x4c]
        0x00001162:    42a3        .B      CMP      r3,r4
        0x00001164:    dc08        ..      BGT      0x1178 ; BsrCade + 64
        0x00001166:    9b01        ..      LDR      r3,[sp,#4]
        0x00001168:    1c5b        [.      ADDS     r3,r3,#1
        0x0000116a:    9301        ..      STR      r3,[sp,#4]
        0x0000116c:    009b        ..      LSLS     r3,r3,#2
        0x0000116e:    181b        ..      ADDS     r3,r3,r0
        0x00001170:    33ff        .3      ADDS     r3,r3,#0xff
        0x00001172:    3301        .3      ADDS     r3,#1
        0x00001174:    6a5b        [j      LDR      r3,[r3,#0x24]
        0x00001176:    469e        .F      MOV      lr,r3
        0x00001178:    4673        sF      MOV      r3,lr
        0x0000117a:    685d        ]h      LDR      r5,[r3,#4]
        0x0000117c:    4663        cF      MOV      r3,r12
        0x0000117e:    18eb        ..      ADDS     r3,r5,r3
        0x00001180:    005f        _.      LSLS     r7,r3,#1
        0x00001182:    9300        ..      STR      r3,[sp,#0]
        0x00001184:    5bd3        .[      LDRH     r3,[r2,r7]
        0x00001186:    187d        }.      ADDS     r5,r7,r1
        0x00001188:    1c5b        [.      ADDS     r3,r3,#1
        0x0000118a:    53d3        .S      STRH     r3,[r2,r7]
        0x0000118c:    5fce        ._      LDRSH    r6,[r1,r7]
        0x0000118e:    3d40        @=      SUBS     r5,r5,#0x40
        0x00001190:    233e        >#      MOVS     r3,#0x3e
        0x00001192:    9503        ..      STR      r5,[sp,#0xc]
        0x00001194:    5eeb        .^      LDRSH    r3,[r5,r3]
        0x00001196:    429e        .B      CMP      r6,r3
        0x00001198:    da0c        ..      BGE      0x11b4 ; BsrCade + 124
        0x0000119a:    53cb        .S      STRH     r3,[r1,r7]
        0x0000119c:    2301        .#      MOVS     r3,#1
        0x0000119e:    53d3        .S      STRH     r3,[r2,r7]
        0x000011a0:    18bb        ..      ADDS     r3,r7,r2
        0x000011a2:    3b40        @;      SUBS     r3,r3,#0x40
        0x000011a4:    8fdd        ..      LDRH     r5,[r3,#0x3e]
        0x000011a6:    6b86        .k      LDR      r6,[r0,#0x38]
        0x000011a8:    0063        c.      LSLS     r3,r4,#1
        0x000011aa:    52f5        .R      STRH     r5,[r6,r3]
        0x000011ac:    9d03        ..      LDR      r5,[sp,#0xc]
        0x000011ae:    6c86        .l      LDR      r6,[r0,#0x48]
        0x000011b0:    8fed        ..      LDRH     r5,[r5,#0x3e]
        0x000011b2:    52f5        .R      STRH     r5,[r6,r3]
        0x000011b4:    9d03        ..      LDR      r5,[sp,#0xc]
        0x000011b6:    233e        >#      MOVS     r3,#0x3e
        0x000011b8:    5eeb        .^      LDRSH    r3,[r5,r3]
        0x000011ba:    9d02        ..      LDR      r5,[sp,#8]
        0x000011bc:    42ab        .B      CMP      r3,r5
        0x000011be:    dd00        ..      BLE      0x11c2 ; BsrCade + 138
        0x000011c0:    9302        ..      STR      r3,[sp,#8]
        0x000011c2:    9b00        ..      LDR      r3,[sp,#0]
        0x000011c4:    e014        ..      B        0x11f0 ; BsrCade + 184
        0x000011c6:    005d        ].      LSLS     r5,r3,#1
        0x000011c8:    9503        ..      STR      r5,[sp,#0xc]
        0x000011ca:    5b56        V[      LDRH     r6,[r2,r5]
        0x000011cc:    186f        o.      ADDS     r7,r5,r1
        0x000011ce:    1c76        v.      ADDS     r6,r6,#1
        0x000011d0:    5356        VS      STRH     r6,[r2,r5]
        0x000011d2:    5f4e        N_      LDRSH    r6,[r1,r5]
        0x000011d4:    3f40        @?      SUBS     r7,r7,#0x40
        0x000011d6:    253e        >%      MOVS     r5,#0x3e
        0x000011d8:    5f7d        }_      LDRSH    r5,[r7,r5]
        0x000011da:    42ae        .B      CMP      r6,r5
        0x000011dc:    da08        ..      BGE      0x11f0 ; BsrCade + 184
        0x000011de:    9e03        ..      LDR      r6,[sp,#0xc]
        0x000011e0:    538d        .S      STRH     r5,[r1,r6]
        0x000011e2:    9d03        ..      LDR      r5,[sp,#0xc]
        0x000011e4:    9e03        ..      LDR      r6,[sp,#0xc]
        0x000011e6:    18ad        ..      ADDS     r5,r5,r2
        0x000011e8:    3d40        @=      SUBS     r5,r5,#0x40
        0x000011ea:    8fed        ..      LDRH     r5,[r5,#0x3e]
        0x000011ec:    1c6d        m.      ADDS     r5,r5,#1
        0x000011ee:    5395        .S      STRH     r5,[r2,r6]
        0x000011f0:    1e5b        [.      SUBS     r3,r3,#1
        0x000011f2:    4563        cE      CMP      r3,r12
        0x000011f4:    dce7        ..      BGT      0x11c6 ; BsrCade + 142
        0x000011f6:    005b        [.      LSLS     r3,r3,#1
        0x000011f8:    5ad5        .Z      LDRH     r5,[r2,r3]
        0x000011fa:    1c6d        m.      ADDS     r5,r5,#1
        0x000011fc:    52d5        .R      STRH     r5,[r2,r3]
        0x000011fe:    2500        .%      MOVS     r5,#0
        0x00001200:    5ece        .^      LDRSH    r6,[r1,r3]
        0x00001202:    5f4d        M_      LDRSH    r5,[r1,r5]
        0x00001204:    42ae        .B      CMP      r6,r5
        0x00001206:    da02        ..      BGE      0x120e ; BsrCade + 214
        0x00001208:    52cd        .R      STRH     r5,[r1,r3]
        0x0000120a:    2501        .%      MOVS     r5,#1
        0x0000120c:    52d5        .R      STRH     r5,[r2,r3]
        0x0000120e:    9b00        ..      LDR      r3,[sp,#0]
        0x00001210:    1c5b        [.      ADDS     r3,r3,#1
        0x00001212:    469c        .F      MOV      r12,r3
        0x00001214:    4673        sF      MOV      r3,lr
        0x00001216:    681b        .h      LDR      r3,[r3,#0]
        0x00001218:    009d        ..      LSLS     r5,r3,#2
        0x0000121a:    4673        sF      MOV      r3,lr
        0x0000121c:    18eb        ..      ADDS     r3,r5,r3
        0x0000121e:    469e        .F      MOV      lr,r3
        0x00001220:    1c64        d.      ADDS     r4,r4,#1
        0x00001222:    6d83        .m      LDR      r3,[r0,#0x58]
        0x00001224:    42a3        .B      CMP      r3,r4
        0x00001226:    dc96        ..      BGT      0x1156 ; BsrCade + 30
        0x00001228:    6dc3        .m      LDR      r3,[r0,#0x5c]
        0x0000122a:    2502        .%      MOVS     r5,#2
        0x0000122c:    005b        [.      LSLS     r3,r3,#1
        0x0000122e:    189c        ..      ADDS     r4,r3,r2
        0x00001230:    8863        c.      LDRH     r3,[r4,#2]
        0x00001232:    1c5b        [.      ADDS     r3,r3,#1
        0x00001234:    8063        c.      STRH     r3,[r4,#2]
        0x00001236:    6dc3        .m      LDR      r3,[r0,#0x5c]
        0x00001238:    005c        \.      LSLS     r4,r3,#1
        0x0000123a:    1863        c.      ADDS     r3,r4,r1
        0x0000123c:    5f5d        ]_      LDRSH    r5,[r3,r5]
        0x0000123e:    5f0c        ._      LDRSH    r4,[r1,r4]
        0x00001240:    42a5        .B      CMP      r5,r4
        0x00001242:    da05        ..      BGE      0x1250 ; BsrCade + 280
        0x00001244:    805c        \.      STRH     r4,[r3,#2]
        0x00001246:    6dc4        .m      LDR      r4,[r0,#0x5c]
        0x00001248:    2301        .#      MOVS     r3,#1
        0x0000124a:    0064        d.      LSLS     r4,r4,#1
        0x0000124c:    18a4        ..      ADDS     r4,r4,r2
        0x0000124e:    8063        c.      STRH     r3,[r4,#2]
        0x00001250:    6dc3        .m      LDR      r3,[r0,#0x5c]
        0x00001252:    005b        [.      LSLS     r3,r3,#1
        0x00001254:    5ad4        .Z      LDRH     r4,[r2,r3]
        0x00001256:    1c64        d.      ADDS     r4,r4,#1
        0x00001258:    52d4        .R      STRH     r4,[r2,r3]
        0x0000125a:    6dc3        .m      LDR      r3,[r0,#0x5c]
        0x0000125c:    005c        \.      LSLS     r4,r3,#1
        0x0000125e:    2300        .#      MOVS     r3,#0
        0x00001260:    5f0d        ._      LDRSH    r5,[r1,r4]
        0x00001262:    5ecb        .^      LDRSH    r3,[r1,r3]
        0x00001264:    429d        .B      CMP      r5,r3
        0x00001266:    da04        ..      BGE      0x1272 ; BsrCade + 314
        0x00001268:    530b        .S      STRH     r3,[r1,r4]
        0x0000126a:    6dc4        .m      LDR      r4,[r0,#0x5c]
        0x0000126c:    2301        .#      MOVS     r3,#1
        0x0000126e:    0064        d.      LSLS     r4,r4,#1
        0x00001270:    5313        .S      STRH     r3,[r2,r4]
        0x00001272:    6dc3        .m      LDR      r3,[r0,#0x5c]
        0x00001274:    2500        .%      MOVS     r5,#0
        0x00001276:    005c        \.      LSLS     r4,r3,#1
        0x00001278:    5f4d        M_      LDRSH    r5,[r1,r5]
        0x0000127a:    5f0b        ._      LDRSH    r3,[r1,r4]
        0x0000127c:    429d        .B      CMP      r5,r3
        0x0000127e:    da08        ..      BGE      0x1292 ; BsrCade + 346
        0x00001280:    18a4        ..      ADDS     r4,r4,r2
        0x00001282:    30ff        .0      ADDS     r0,r0,#0xff
        0x00001284:    2202        ."      MOVS     r2,#2
        0x00001286:    3081        .0      ADDS     r0,r0,#0x81
        0x00001288:    5ea2        .^      LDRSH    r2,[r4,r2]
        0x0000128a:    6d00        .m      LDR      r0,[r0,#0x50]
        0x0000128c:    4282        .B      CMP      r2,r0
        0x0000128e:    dd00        ..      BLE      0x1292 ; BsrCade + 346
        0x00001290:    800b        ..      STRH     r3,[r1,#0]
        0x00001292:    bdff        ..      POP      {r0-r7,pc}
    $d
        0x00001294:    ffff9e58    X...    DCD    4294942296
    $t
    i.BsrCale
    BsrCale
        0x00001298:    b530        0.      PUSH     {r4,r5,lr}
        0x0000129a:    2200        ."      MOVS     r2,#0
        0x0000129c:    e006        ..      B        0x12ac ; BsrCale + 20
        0x0000129e:    6e44        Dn      LDR      r4,[r0,#0x64]
        0x000012a0:    0093        ..      LSLS     r3,r2,#2
        0x000012a2:    5ce5        .\      LDRB     r5,[r4,r3]
        0x000012a4:    58cc        .X      LDR      r4,[r1,r3]
        0x000012a6:    40ac        .@      LSLS     r4,r4,r5
        0x000012a8:    50cc        .P      STR      r4,[r1,r3]
        0x000012aa:    1c52        R.      ADDS     r2,r2,#1
        0x000012ac:    6e03        .n      LDR      r3,[r0,#0x60]
        0x000012ae:    4293        .B      CMP      r3,r2
        0x000012b0:    dcf5        ..      BGT      0x129e ; BsrCale + 6
        0x000012b2:    bd30        0.      POP      {r4,r5,pc}
    i.BsrCara
    BsrCara
        0x000012b4:    b5f3        ..      PUSH     {r0,r1,r4-r7,lr}
        0x000012b6:    b093        ..      SUB      sp,sp,#0x4c
        0x000012b8:    2700        .'      MOVS     r7,#0
        0x000012ba:    6b06        .k      LDR      r6,[r0,#0x30]
        0x000012bc:    9700        ..      STR      r7,[sp,#0]
        0x000012be:    4605        .F      MOV      r5,r0
        0x000012c0:    6e03        .n      LDR      r3,[r0,#0x60]
        0x000012c2:    3080        .0      ADDS     r0,r0,#0x80
        0x000012c4:    9009        ..      STR      r0,[sp,#0x24]
        0x000012c6:    6981        .i      LDR      r1,[r0,#0x18]
        0x000012c8:    4c99        .L      LDR      r4,[pc,#612] ; [0x1530] = 0xffff9e58
        0x000012ca:    4628        (F      MOV      r0,r5
        0x000012cc:    9a14        ..      LDR      r2,[sp,#0x50]
        0x000012ce:    f7fffe9f    ....    BL       BsrBret ; 0x1010
        0x000012d2:    9700        ..      STR      r7,[sp,#0]
        0x000012d4:    9003        ..      STR      r0,[sp,#0xc]
        0x000012d6:    9809        ..      LDR      r0,[sp,#0x24]
        0x000012d8:    6e2b        +n      LDR      r3,[r5,#0x60]
        0x000012da:    69c1        .i      LDR      r1,[r0,#0x1c]
        0x000012dc:    4628        (F      MOV      r0,r5
        0x000012de:    9a14        ..      LDR      r2,[sp,#0x50]
        0x000012e0:    f7fffe96    ....    BL       BsrBret ; 0x1010
        0x000012e4:    9903        ..      LDR      r1,[sp,#0xc]
        0x000012e6:    4281        .B      CMP      r1,r0
        0x000012e8:    dd00        ..      BLE      0x12ec ; BsrCara + 56
        0x000012ea:    4608        .F      MOV      r0,r1
        0x000012ec:    900d        ..      STR      r0,[sp,#0x34]
        0x000012ee:    8831        1.      LDRH     r1,[r6,#0]
        0x000012f0:    1808        ..      ADDS     r0,r1,r0
        0x000012f2:    b200        ..      SXTH     r0,r0
        0x000012f4:    8030        0.      STRH     r0,[r6,#0]
        0x000012f6:    42a0        .B      CMP      r0,r4
        0x000012f8:    dd00        ..      BLE      0x12fc ; BsrCara + 72
        0x000012fa:    4604        .F      MOV      r4,r0
        0x000012fc:    a80c        ..      ADD      r0,sp,#0x30
        0x000012fe:    9000        ..      STR      r0,[sp,#0]
        0x00001300:    9809        ..      LDR      r0,[sp,#0x24]
        0x00001302:    6e2b        +n      LDR      r3,[r5,#0x60]
        0x00001304:    6a01        .j      LDR      r1,[r0,#0x20]
        0x00001306:    4628        (F      MOV      r0,r5
        0x00001308:    9a14        ..      LDR      r2,[sp,#0x50]
        0x0000130a:    f7fffe81    ....    BL       BsrBret ; 0x1010
        0x0000130e:    4607        .F      MOV      r7,r0
        0x00001310:    4628        (F      MOV      r0,r5
        0x00001312:    30ff        .0      ADDS     r0,r0,#0xff
        0x00001314:    3081        .0      ADDS     r0,r0,#0x81
        0x00001316:    9006        ..      STR      r0,[sp,#0x18]
        0x00001318:    65c7        .e      STR      r7,[r0,#0x5c]
        0x0000131a:    9809        ..      LDR      r0,[sp,#0x24]
        0x0000131c:    6a41        Aj      LDR      r1,[r0,#0x24]
        0x0000131e:    2900        .)      CMP      r1,#0
        0x00001320:    d017        ..      BEQ      0x1352 ; BsrCara + 158
        0x00001322:    2000        .       MOVS     r0,#0
        0x00001324:    9a0c        ..      LDR      r2,[sp,#0x30]
        0x00001326:    e003        ..      B        0x1330 ; BsrCara + 124
        0x00001328:    680b        .h      LDR      r3,[r1,#0]
        0x0000132a:    009b        ..      LSLS     r3,r3,#2
        0x0000132c:    1859        Y.      ADDS     r1,r3,r1
        0x0000132e:    1c40        @.      ADDS     r0,r0,#1
        0x00001330:    4290        .B      CMP      r0,r2
        0x00001332:    dbf9        ..      BLT      0x1328 ; BsrCara + 116
        0x00001334:    6848        Hh      LDR      r0,[r1,#4]
        0x00001336:    2800        .(      CMP      r0,#0
        0x00001338:    dd0b        ..      BLE      0x1352 ; BsrCara + 158
        0x0000133a:    2000        .       MOVS     r0,#0
        0x0000133c:    9000        ..      STR      r0,[sp,#0]
        0x0000133e:    6e2b        +n      LDR      r3,[r5,#0x60]
        0x00001340:    4628        (F      MOV      r0,r5
        0x00001342:    9a14        ..      LDR      r2,[sp,#0x50]
        0x00001344:    f7fffe64    ..d.    BL       BsrBret ; 0x1010
        0x00001348:    4287        .B      CMP      r7,r0
        0x0000134a:    da00        ..      BGE      0x134e ; BsrCara + 154
        0x0000134c:    4607        .F      MOV      r7,r0
        0x0000134e:    9906        ..      LDR      r1,[sp,#0x18]
        0x00001350:    65c8        .e      STR      r0,[r1,#0x5c]
        0x00001352:    1de8        ..      ADDS     r0,r5,#7
        0x00001354:    30ff        .0      ADDS     r0,r0,#0xff
        0x00001356:    30fa        .0      ADDS     r0,r0,#0xfa
        0x00001358:    900e        ..      STR      r0,[sp,#0x38]
        0x0000135a:    6ac0        .j      LDR      r0,[r0,#0x2c]
        0x0000135c:    2100        .!      MOVS     r1,#0
        0x0000135e:    1a38        8.      SUBS     r0,r7,r0
        0x00001360:    9004        ..      STR      r0,[sp,#0x10]
        0x00001362:    1de8        ..      ADDS     r0,r5,#7
        0x00001364:    30f9        .0      ADDS     r0,r0,#0xf9
        0x00001366:    e005        ..      B        0x1374 ; BsrCara + 192
        0x00001368:    9b09        ..      LDR      r3,[sp,#0x24]
        0x0000136a:    2200        ."      MOVS     r2,#0
        0x0000136c:    6f9b        .o      LDR      r3,[r3,#0x78]
        0x0000136e:    004f        O.      LSLS     r7,r1,#1
        0x00001370:    53da        .S      STRH     r2,[r3,r7]
        0x00001372:    1c49        I.      ADDS     r1,r1,#1
        0x00001374:    6a02        .j      LDR      r2,[r0,#0x20]
        0x00001376:    428a        .B      CMP      r2,r1
        0x00001378:    dcf6        ..      BGT      0x1368 ; BsrCara + 180
        0x0000137a:    2100        .!      MOVS     r1,#0
        0x0000137c:    910b        ..      STR      r1,[sp,#0x2c]
        0x0000137e:    6a40        @j      LDR      r0,[r0,#0x24]
        0x00001380:    9010        ..      STR      r0,[sp,#0x40]
        0x00001382:    6868        hh      LDR      r0,[r5,#4]
        0x00001384:    9011        ..      STR      r0,[sp,#0x44]
        0x00001386:    2701        .'      MOVS     r7,#1
        0x00001388:    4608        .F      MOV      r0,r1
        0x0000138a:    9107        ..      STR      r1,[sp,#0x1c]
        0x0000138c:    e08f        ..      B        0x14ae ; BsrCara + 506
        0x0000138e:    980b        ..      LDR      r0,[sp,#0x2c]
        0x00001390:    0080        ..      LSLS     r0,r0,#2
        0x00001392:    1940        @.      ADDS     r0,r0,r5
        0x00001394:    30ff        .0      ADDS     r0,r0,#0xff
        0x00001396:    3001        .0      ADDS     r0,#1
        0x00001398:    6cc1        .l      LDR      r1,[r0,#0x4c]
        0x0000139a:    9807        ..      LDR      r0,[sp,#0x1c]
        0x0000139c:    4281        .B      CMP      r1,r0
        0x0000139e:    dc0a        ..      BGT      0x13b6 ; BsrCara + 258
        0x000013a0:    980b        ..      LDR      r0,[sp,#0x2c]
        0x000013a2:    21ff        .!      MOVS     r1,#0xff
        0x000013a4:    1c40        @.      ADDS     r0,r0,#1
        0x000013a6:    900b        ..      STR      r0,[sp,#0x2c]
        0x000013a8:    0080        ..      LSLS     r0,r0,#2
        0x000013aa:    1940        @.      ADDS     r0,r0,r5
        0x000013ac:    3125        %1      ADDS     r1,r1,#0x25
        0x000013ae:    5809        .X      LDR      r1,[r1,r0]
        0x000013b0:    9110        ..      STR      r1,[sp,#0x40]
        0x000013b2:    6840        @h      LDR      r0,[r0,#4]
        0x000013b4:    9011        ..      STR      r0,[sp,#0x44]
        0x000013b6:    9810        ..      LDR      r0,[sp,#0x40]
        0x000013b8:    6840        @h      LDR      r0,[r0,#4]
        0x000013ba:    9008        ..      STR      r0,[sp,#0x20]
        0x000013bc:    9810        ..      LDR      r0,[sp,#0x40]
        0x000013be:    3008        .0      ADDS     r0,r0,#8
        0x000013c0:    9005        ..      STR      r0,[sp,#0x14]
        0x000013c2:    9811        ..      LDR      r0,[sp,#0x44]
        0x000013c4:    7d80        .}      LDRB     r0,[r0,#0x16]
        0x000013c6:    0680        ..      LSLS     r0,r0,#26
        0x000013c8:    d430        0.      BMI      0x142c ; BsrCara + 376
        0x000013ca:    2000        .       MOVS     r0,#0
        0x000013cc:    9006        ..      STR      r0,[sp,#0x18]
        0x000013ce:    e028        (.      B        0x1422 ; BsrCara + 366
        0x000013d0:    0078        x.      LSLS     r0,r7,#1
        0x000013d2:    9009        ..      STR      r0,[sp,#0x24]
        0x000013d4:    5e31        1^      LDRSH    r1,[r6,r0]
        0x000013d6:    4856        VH      LDR      r0,[pc,#344] ; [0x1530] = 0xffff9e58
        0x000013d8:    4281        .B      CMP      r1,r0
        0x000013da:    dd18        ..      BLE      0x140e ; BsrCara + 346
        0x000013dc:    2000        .       MOVS     r0,#0
        0x000013de:    9000        ..      STR      r0,[sp,#0]
        0x000013e0:    6e2b        +n      LDR      r3,[r5,#0x60]
        0x000013e2:    4628        (F      MOV      r0,r5
        0x000013e4:    9a14        ..      LDR      r2,[sp,#0x50]
        0x000013e6:    9905        ..      LDR      r1,[sp,#0x14]
        0x000013e8:    f7fffe12    ....    BL       BsrBret ; 0x1010
        0x000013ec:    9905        ..      LDR      r1,[sp,#0x14]
        0x000013ee:    6849        Ih      LDR      r1,[r1,#4]
        0x000013f0:    2900        .)      CMP      r1,#0
        0x000013f2:    da03        ..      BGE      0x13fc ; BsrCara + 328
        0x000013f4:    9903        ..      LDR      r1,[sp,#0xc]
        0x000013f6:    4288        .B      CMP      r0,r1
        0x000013f8:    da00        ..      BGE      0x13fc ; BsrCara + 328
        0x000013fa:    4608        .F      MOV      r0,r1
        0x000013fc:    9909        ..      LDR      r1,[sp,#0x24]
        0x000013fe:    5a71        qZ      LDRH     r1,[r6,r1]
        0x00001400:    1808        ..      ADDS     r0,r1,r0
        0x00001402:    b200        ..      SXTH     r0,r0
        0x00001404:    9909        ..      LDR      r1,[sp,#0x24]
        0x00001406:    42a0        .B      CMP      r0,r4
        0x00001408:    5270        pR      STRH     r0,[r6,r1]
        0x0000140a:    dd00        ..      BLE      0x140e ; BsrCara + 346
        0x0000140c:    4604        .F      MOV      r4,r0
        0x0000140e:    9805        ..      LDR      r0,[sp,#0x14]
        0x00001410:    6800        .h      LDR      r0,[r0,#0]
        0x00001412:    0081        ..      LSLS     r1,r0,#2
        0x00001414:    9805        ..      LDR      r0,[sp,#0x14]
        0x00001416:    1808        ..      ADDS     r0,r1,r0
        0x00001418:    9005        ..      STR      r0,[sp,#0x14]
        0x0000141a:    9806        ..      LDR      r0,[sp,#0x18]
        0x0000141c:    1c40        @.      ADDS     r0,r0,#1
        0x0000141e:    1c7f        ..      ADDS     r7,r7,#1
        0x00001420:    9006        ..      STR      r0,[sp,#0x18]
        0x00001422:    4601        .F      MOV      r1,r0
        0x00001424:    9808        ..      LDR      r0,[sp,#0x20]
        0x00001426:    4281        .B      CMP      r1,r0
        0x00001428:    dbd2        ..      BLT      0x13d0 ; BsrCara + 284
        0x0000142a:    e02d        -.      B        0x1488 ; BsrCara + 468
        0x0000142c:    2000        .       MOVS     r0,#0
        0x0000142e:    9006        ..      STR      r0,[sp,#0x18]
        0x00001430:    e027        '.      B        0x1482 ; BsrCara + 462
        0x00001432:    0078        x.      LSLS     r0,r7,#1
        0x00001434:    9009        ..      STR      r0,[sp,#0x24]
        0x00001436:    5e31        1^      LDRSH    r1,[r6,r0]
        0x00001438:    483d        =H      LDR      r0,[pc,#244] ; [0x1530] = 0xffff9e58
        0x0000143a:    4281        .B      CMP      r1,r0
        0x0000143c:    dd1d        ..      BLE      0x147a ; BsrCara + 454
        0x0000143e:    9806        ..      LDR      r0,[sp,#0x18]
        0x00001440:    0081        ..      LSLS     r1,r0,#2
        0x00001442:    910a        ..      STR      r1,[sp,#0x28]
        0x00001444:    9805        ..      LDR      r0,[sp,#0x14]
        0x00001446:    9b14        ..      LDR      r3,[sp,#0x50]
        0x00001448:    5840        @X      LDR      r0,[r0,r1]
        0x0000144a:    990b        ..      LDR      r1,[sp,#0x2c]
        0x0000144c:    0042        B.      LSLS     r2,r0,#1
        0x0000144e:    0852        R.      LSRS     r2,r2,#1
        0x00001450:    4628        (F      MOV      r0,r5
        0x00001452:    f001fb53    ..S.    BL       BsrJanek ; 0x2afc
        0x00001456:    9a05        ..      LDR      r2,[sp,#0x14]
        0x00001458:    990a        ..      LDR      r1,[sp,#0x28]
        0x0000145a:    5851        QX      LDR      r1,[r2,r1]
        0x0000145c:    2900        .)      CMP      r1,#0
        0x0000145e:    da03        ..      BGE      0x1468 ; BsrCara + 436
        0x00001460:    9903        ..      LDR      r1,[sp,#0xc]
        0x00001462:    4288        .B      CMP      r0,r1
        0x00001464:    da00        ..      BGE      0x1468 ; BsrCara + 436
        0x00001466:    4608        .F      MOV      r0,r1
        0x00001468:    9909        ..      LDR      r1,[sp,#0x24]
        0x0000146a:    5a71        qZ      LDRH     r1,[r6,r1]
        0x0000146c:    1808        ..      ADDS     r0,r1,r0
        0x0000146e:    b200        ..      SXTH     r0,r0
        0x00001470:    9909        ..      LDR      r1,[sp,#0x24]
        0x00001472:    42a0        .B      CMP      r0,r4
        0x00001474:    5270        pR      STRH     r0,[r6,r1]
        0x00001476:    dd00        ..      BLE      0x147a ; BsrCara + 454
        0x00001478:    4604        .F      MOV      r4,r0
        0x0000147a:    9806        ..      LDR      r0,[sp,#0x18]
        0x0000147c:    1c40        @.      ADDS     r0,r0,#1
        0x0000147e:    1c7f        ..      ADDS     r7,r7,#1
        0x00001480:    9006        ..      STR      r0,[sp,#0x18]
        0x00001482:    9908        ..      LDR      r1,[sp,#0x20]
        0x00001484:    4288        .B      CMP      r0,r1
        0x00001486:    dbd4        ..      BLT      0x1432 ; BsrCara + 382
        0x00001488:    0079        y.      LSLS     r1,r7,#1
        0x0000148a:    5a72        rZ      LDRH     r2,[r6,r1]
        0x0000148c:    980d        ..      LDR      r0,[sp,#0x34]
        0x0000148e:    1810        ..      ADDS     r0,r2,r0
        0x00001490:    b200        ..      SXTH     r0,r0
        0x00001492:    5270        pR      STRH     r0,[r6,r1]
        0x00001494:    42a0        .B      CMP      r0,r4
        0x00001496:    dd00        ..      BLE      0x149a ; BsrCara + 486
        0x00001498:    4604        .F      MOV      r4,r0
        0x0000149a:    9810        ..      LDR      r0,[sp,#0x40]
        0x0000149c:    6800        .h      LDR      r0,[r0,#0]
        0x0000149e:    0081        ..      LSLS     r1,r0,#2
        0x000014a0:    9810        ..      LDR      r0,[sp,#0x40]
        0x000014a2:    1808        ..      ADDS     r0,r1,r0
        0x000014a4:    9010        ..      STR      r0,[sp,#0x40]
        0x000014a6:    9807        ..      LDR      r0,[sp,#0x1c]
        0x000014a8:    1c40        @.      ADDS     r0,r0,#1
        0x000014aa:    1c7f        ..      ADDS     r7,r7,#1
        0x000014ac:    9007        ..      STR      r0,[sp,#0x1c]
        0x000014ae:    6da9        .m      LDR      r1,[r5,#0x58]
        0x000014b0:    4281        .B      CMP      r1,r0
        0x000014b2:    dd00        ..      BLE      0x14b6 ; BsrCara + 514
        0x000014b4:    e76b        k.      B        0x138e ; BsrCara + 218
        0x000014b6:    6de8        .m      LDR      r0,[r5,#0x5c]
        0x000014b8:    0041        A.      LSLS     r1,r0,#1
        0x000014ba:    5a72        rZ      LDRH     r2,[r6,r1]
        0x000014bc:    9804        ..      LDR      r0,[sp,#0x10]
        0x000014be:    1810        ..      ADDS     r0,r2,r0
        0x000014c0:    b200        ..      SXTH     r0,r0
        0x000014c2:    5270        pR      STRH     r0,[r6,r1]
        0x000014c4:    6de9        .m      LDR      r1,[r5,#0x5c]
        0x000014c6:    0049        I.      LSLS     r1,r1,#1
        0x000014c8:    42a0        .B      CMP      r0,r4
        0x000014ca:    dd00        ..      BLE      0x14ce ; BsrCara + 538
        0x000014cc:    4604        .F      MOV      r4,r0
        0x000014ce:    1989        ..      ADDS     r1,r1,r6
        0x000014d0:    884a        J.      LDRH     r2,[r1,#2]
        0x000014d2:    980d        ..      LDR      r0,[sp,#0x34]
        0x000014d4:    1810        ..      ADDS     r0,r2,r0
        0x000014d6:    b200        ..      SXTH     r0,r0
        0x000014d8:    8048        H.      STRH     r0,[r1,#2]
        0x000014da:    42a0        .B      CMP      r0,r4
        0x000014dc:    dd00        ..      BLE      0x14e0 ; BsrCara + 556
        0x000014de:    4604        .F      MOV      r4,r0
        0x000014e0:    980e        ..      LDR      r0,[sp,#0x38]
        0x000014e2:    6beb        .k      LDR      r3,[r5,#0x3c]
        0x000014e4:    69c0        .i      LDR      r0,[r0,#0x1c]
        0x000014e6:    8832        2.      LDRH     r2,[r6,#0]
        0x000014e8:    0041        A.      LSLS     r1,r0,#1
        0x000014ea:    525a        ZR      STRH     r2,[r3,r1]
        0x000014ec:    9a0e        ..      LDR      r2,[sp,#0x38]
        0x000014ee:    6b12        .k      LDR      r2,[r2,#0x30]
        0x000014f0:    2a01        .*      CMP      r2,#1
        0x000014f2:    d017        ..      BEQ      0x1524 ; BsrCara + 624
        0x000014f4:    1e40        @.      SUBS     r0,r0,#1
        0x000014f6:    d502        ..      BPL      0x14fe ; BsrCara + 586
        0x000014f8:    9a0e        ..      LDR      r2,[sp,#0x38]
        0x000014fa:    6a52        Rj      LDR      r2,[r2,#0x24]
        0x000014fc:    1810        ..      ADDS     r0,r2,r0
        0x000014fe:    6c2a        *l      LDR      r2,[r5,#0x40]
        0x00001500:    0040        @.      LSLS     r0,r0,#1
        0x00001502:    5a16        .Z      LDRH     r6,[r2,r0]
        0x00001504:    9b04        ..      LDR      r3,[sp,#0x10]
        0x00001506:    18f3        ..      ADDS     r3,r6,r3
        0x00001508:    5253        SR      STRH     r3,[r2,r1]
        0x0000150a:    6c6a        jl      LDR      r2,[r5,#0x44]
        0x0000150c:    5a13        .Z      LDRH     r3,[r2,r0]
        0x0000150e:    980d        ..      LDR      r0,[sp,#0x34]
        0x00001510:    1818        ..      ADDS     r0,r3,r0
        0x00001512:    5250        PR      STRH     r0,[r2,r1]
        0x00001514:    6c28        (l      LDR      r0,[r5,#0x40]
        0x00001516:    5e40        @^      LDRSH    r0,[r0,r1]
        0x00001518:    42a0        .B      CMP      r0,r4
        0x0000151a:    dd00        ..      BLE      0x151e ; BsrCara + 618
        0x0000151c:    4604        .F      MOV      r4,r0
        0x0000151e:    4620         F      MOV      r0,r4
        0x00001520:    b015        ..      ADD      sp,sp,#0x54
        0x00001522:    bdf0        ..      POP      {r4-r7,pc}
        0x00001524:    6c2a        *l      LDR      r2,[r5,#0x40]
        0x00001526:    9804        ..      LDR      r0,[sp,#0x10]
        0x00001528:    5250        PR      STRH     r0,[r2,r1]
        0x0000152a:    980d        ..      LDR      r0,[sp,#0x34]
        0x0000152c:    6c6a        jl      LDR      r2,[r5,#0x44]
        0x0000152e:    e7f0        ..      B        0x1512 ; BsrCara + 606
    $d
        0x00001530:    ffff9e58    X...    DCD    4294942296
    $t
    i.BsrChad
    BsrChad
        0x00001534:    b5f0        ..      PUSH     {r4-r7,lr}
        0x00001536:    6b03        .k      LDR      r3,[r0,#0x30]
        0x00001538:    2500        .%      MOVS     r5,#0
        0x0000153a:    5f5a        Z_      LDRSH    r2,[r3,r5]
        0x0000153c:    4c22        "L      LDR      r4,[pc,#136] ; [0x15c8] = 0xffff9e58
        0x0000153e:    42a2        .B      CMP      r2,r4
        0x00001540:    dd01        ..      BLE      0x1546 ; BsrChad + 18
        0x00001542:    1a52        R.      SUBS     r2,r2,r1
        0x00001544:    801a        ..      STRH     r2,[r3,#0]
        0x00001546:    2201        ."      MOVS     r2,#1
        0x00001548:    e010        ..      B        0x156c ; BsrChad + 56
        0x0000154a:    0054        T.      LSLS     r4,r2,#1
        0x0000154c:    5f1e        ._      LDRSH    r6,[r3,r4]
        0x0000154e:    4f1e        .O      LDR      r7,[pc,#120] ; [0x15c8] = 0xffff9e58
        0x00001550:    42be        .B      CMP      r6,r7
        0x00001552:    dd01        ..      BLE      0x1558 ; BsrChad + 36
        0x00001554:    1a76        v.      SUBS     r6,r6,r1
        0x00001556:    531e        .S      STRH     r6,[r3,r4]
        0x00001558:    6f47        Go      LDR      r7,[r0,#0x74]
        0x0000155a:    5f1e        ._      LDRSH    r6,[r3,r4]
        0x0000155c:    427f        .B      RSBS     r7,r7,#0
        0x0000155e:    42be        .B      CMP      r6,r7
        0x00001560:    da02        ..      BGE      0x1568 ; BsrChad + 52
        0x00001562:    4e19        .N      LDR      r6,[pc,#100] ; [0x15c8] = 0xffff9e58
        0x00001564:    531e        .S      STRH     r6,[r3,r4]
        0x00001566:    e000        ..      B        0x156a ; BsrChad + 54
        0x00001568:    1c6d        m.      ADDS     r5,r5,#1
        0x0000156a:    1c52        R.      ADDS     r2,r2,#1
        0x0000156c:    6dc4        .m      LDR      r4,[r0,#0x5c]
        0x0000156e:    4294        .B      CMP      r4,r2
        0x00001570:    dceb        ..      BGT      0x154a ; BsrChad + 22
        0x00001572:    4c15        .L      LDR      r4,[pc,#84] ; [0x15c8] = 0xffff9e58
        0x00001574:    6dc6        .m      LDR      r6,[r0,#0x5c]
        0x00001576:    1cb6        ..      ADDS     r6,r6,#2
        0x00001578:    4296        .B      CMP      r6,r2
        0x0000157a:    dd07        ..      BLE      0x158c ; BsrChad + 88
        0x0000157c:    0057        W.      LSLS     r7,r2,#1
        0x0000157e:    5fde        ._      LDRSH    r6,[r3,r7]
        0x00001580:    42a6        .B      CMP      r6,r4
        0x00001582:    dd01        ..      BLE      0x1588 ; BsrChad + 84
        0x00001584:    1a76        v.      SUBS     r6,r6,r1
        0x00001586:    53de        .S      STRH     r6,[r3,r7]
        0x00001588:    1c52        R.      ADDS     r2,r2,#1
        0x0000158a:    e7f3        ..      B        0x1574 ; BsrChad + 64
        0x0000158c:    2287        ."      MOVS     r2,#0x87
        0x0000158e:    0092        ..      LSLS     r2,r2,#2
        0x00001590:    5812        .X      LDR      r2,[r2,r0]
        0x00001592:    6bc6        .k      LDR      r6,[r0,#0x3c]
        0x00001594:    0052        R.      LSLS     r2,r2,#1
        0x00001596:    5eb3        .^      LDRSH    r3,[r6,r2]
        0x00001598:    42a3        .B      CMP      r3,r4
        0x0000159a:    dd01        ..      BLE      0x15a0 ; BsrChad + 108
        0x0000159c:    1a5b        [.      SUBS     r3,r3,r1
        0x0000159e:    52b3        .R      STRH     r3,[r6,r2]
        0x000015a0:    6c06        .l      LDR      r6,[r0,#0x40]
        0x000015a2:    5eb3        .^      LDRSH    r3,[r6,r2]
        0x000015a4:    42a3        .B      CMP      r3,r4
        0x000015a6:    dd01        ..      BLE      0x15ac ; BsrChad + 120
        0x000015a8:    1a5b        [.      SUBS     r3,r3,r1
        0x000015aa:    52b3        .R      STRH     r3,[r6,r2]
        0x000015ac:    6c46        Fl      LDR      r6,[r0,#0x44]
        0x000015ae:    5eb3        .^      LDRSH    r3,[r6,r2]
        0x000015b0:    42a3        .B      CMP      r3,r4
        0x000015b2:    dd01        ..      BLE      0x15b8 ; BsrChad + 132
        0x000015b4:    1a5b        [.      SUBS     r3,r3,r1
        0x000015b6:    52b3        .R      STRH     r3,[r6,r2]
        0x000015b8:    30ff        .0      ADDS     r0,r0,#0xff
        0x000015ba:    3081        .0      ADDS     r0,r0,#0x81
        0x000015bc:    6d82        .m      LDR      r2,[r0,#0x58]
        0x000015be:    1a51        Q.      SUBS     r1,r2,r1
        0x000015c0:    6581        .e      STR      r1,[r0,#0x58]
        0x000015c2:    4628        (F      MOV      r0,r5
        0x000015c4:    bdf0        ..      POP      {r4-r7,pc}
    $d
        0x000015c6:    0000        ..      DCW    0
        0x000015c8:    ffff9e58    X...    DCD    4294942296
    $t
    i.BsrChaz
    BsrChaz
        0x000015cc:    b5f8        ..      PUSH     {r3-r7,lr}
        0x000015ce:    4604        .F      MOV      r4,r0
        0x000015d0:    6f47        Go      LDR      r7,[r0,#0x74]
        0x000015d2:    6b06        .k      LDR      r6,[r0,#0x30]
        0x000015d4:    1078        x.      ASRS     r0,r7,#1
        0x000015d6:    1de5        ..      ADDS     r5,r4,#7
        0x000015d8:    0041        A.      LSLS     r1,r0,#1
        0x000015da:    35ff        .5      ADDS     r5,r5,#0xff
        0x000015dc:    35fa        .5      ADDS     r5,r5,#0xfa
        0x000015de:    1c89        ..      ADDS     r1,r1,#2
        0x000015e0:    6b68        hk      LDR      r0,[r5,#0x34]
        0x000015e2:    f7fff92f    ../.    BL       BsrAbel ; 0x844
        0x000015e6:    0001        ..      MOVS     r1,r0
        0x000015e8:    d03f        ?.      BEQ      0x166a ; BsrChaz + 158
        0x000015ea:    2200        ."      MOVS     r2,#0
        0x000015ec:    1078        x.      ASRS     r0,r7,#1
        0x000015ee:    4613        .F      MOV      r3,r2
        0x000015f0:    1c40        @.      ADDS     r0,r0,#1
        0x000015f2:    e002        ..      B        0x15fa ; BsrChaz + 46
        0x000015f4:    0057        W.      LSLS     r7,r2,#1
        0x000015f6:    53cb        .S      STRH     r3,[r1,r7]
        0x000015f8:    1c52        R.      ADDS     r2,r2,#1
        0x000015fa:    4290        .B      CMP      r0,r2
        0x000015fc:    dcfa        ..      BGT      0x15f4 ; BsrChaz + 40
        0x000015fe:    2201        ."      MOVS     r2,#1
        0x00001600:    e00b        ..      B        0x161a ; BsrChaz + 78
        0x00001602:    0053        S.      LSLS     r3,r2,#1
        0x00001604:    5ef3        .^      LDRSH    r3,[r6,r3]
        0x00001606:    4f19        .O      LDR      r7,[pc,#100] ; [0x166c] = 0xffff9e58
        0x00001608:    42bb        .B      CMP      r3,r7
        0x0000160a:    dd05        ..      BLE      0x1618 ; BsrChaz + 76
        0x0000160c:    425b        [B      RSBS     r3,r3,#0
        0x0000160e:    085b        [.      LSRS     r3,r3,#1
        0x00001610:    005b        [.      LSLS     r3,r3,#1
        0x00001612:    5acf        .Z      LDRH     r7,[r1,r3]
        0x00001614:    1c7f        ..      ADDS     r7,r7,#1
        0x00001616:    52cf        .R      STRH     r7,[r1,r3]
        0x00001618:    1c52        R.      ADDS     r2,r2,#1
        0x0000161a:    6de3        .m      LDR      r3,[r4,#0x5c]
        0x0000161c:    4293        .B      CMP      r3,r2
        0x0000161e:    dcf0        ..      BGT      0x1602 ; BsrChaz + 54
        0x00001620:    2300        .#      MOVS     r3,#0
        0x00001622:    461a        .F      MOV      r2,r3
        0x00001624:    e006        ..      B        0x1634 ; BsrChaz + 104
        0x00001626:    0057        W.      LSLS     r7,r2,#1
        0x00001628:    5fcf        ._      LDRSH    r7,[r1,r7]
        0x0000162a:    18fb        ..      ADDS     r3,r7,r3
        0x0000162c:    6aaf        .j      LDR      r7,[r5,#0x28]
        0x0000162e:    429f        .B      CMP      r7,r3
        0x00001630:    db02        ..      BLT      0x1638 ; BsrChaz + 108
        0x00001632:    1c52        R.      ADDS     r2,r2,#1
        0x00001634:    4290        .B      CMP      r0,r2
        0x00001636:    dcf6        ..      BGT      0x1626 ; BsrChaz + 90
        0x00001638:    0052        R.      LSLS     r2,r2,#1
        0x0000163a:    2700        .'      MOVS     r7,#0
        0x0000163c:    2001        .       MOVS     r0,#1
        0x0000163e:    1e92        ..      SUBS     r2,r2,#2
        0x00001640:    4252        RB      RSBS     r2,r2,#0
        0x00001642:    4694        .F      MOV      r12,r2
        0x00001644:    e00a        ..      B        0x165c ; BsrChaz + 144
        0x00001646:    0042        B.      LSLS     r2,r0,#1
        0x00001648:    5eb3        .^      LDRSH    r3,[r6,r2]
        0x0000164a:    4696        .F      MOV      lr,r2
        0x0000164c:    4563        cE      CMP      r3,r12
        0x0000164e:    da03        ..      BGE      0x1658 ; BsrChaz + 140
        0x00001650:    4b06        .K      LDR      r3,[pc,#24] ; [0x166c] = 0xffff9e58
        0x00001652:    4672        rF      MOV      r2,lr
        0x00001654:    52b3        .R      STRH     r3,[r6,r2]
        0x00001656:    e000        ..      B        0x165a ; BsrChaz + 142
        0x00001658:    1c7f        ..      ADDS     r7,r7,#1
        0x0000165a:    1c40        @.      ADDS     r0,r0,#1
        0x0000165c:    6de2        .m      LDR      r2,[r4,#0x5c]
        0x0000165e:    4282        .B      CMP      r2,r0
        0x00001660:    dcf1        ..      BGT      0x1646 ; BsrChaz + 122
        0x00001662:    6b68        hk      LDR      r0,[r5,#0x34]
        0x00001664:    f7fff92a    ..*.    BL       BsrAdam ; 0x8bc
        0x00001668:    4638        8F      MOV      r0,r7
        0x0000166a:    bdf8        ..      POP      {r3-r7,pc}
    $d
        0x0000166c:    ffff9e58    X...    DCD    4294942296
    $t
    i.BsrChaza
    BsrChaza
        0x00001670:    b5f0        ..      PUSH     {r4-r7,lr}
        0x00001672:    6d41        Am      LDR      r1,[r0,#0x54]
        0x00001674:    2906        .)      CMP      r1,#6
        0x00001676:    db31        1.      BLT      0x16dc ; BsrChaza + 108
        0x00001678:    2100        .!      MOVS     r1,#0
        0x0000167a:    468c        .F      MOV      r12,r1
        0x0000167c:    21ff        .!      MOVS     r1,#0xff
        0x0000167e:    3125        %1      ADDS     r1,r1,#0x25
        0x00001680:    2301        .#      MOVS     r3,#1
        0x00001682:    580a        .X      LDR      r2,[r1,r0]
        0x00001684:    2400        .$      MOVS     r4,#0
        0x00001686:    6b05        .k      LDR      r5,[r0,#0x30]
        0x00001688:    e025        %.      B        0x16d6 ; BsrChaza + 102
        0x0000168a:    4661        aF      MOV      r1,r12
        0x0000168c:    0089        ..      LSLS     r1,r1,#2
        0x0000168e:    1809        ..      ADDS     r1,r1,r0
        0x00001690:    31ff        .1      ADDS     r1,r1,#0xff
        0x00001692:    3101        .1      ADDS     r1,#1
        0x00001694:    6cc9        .l      LDR      r1,[r1,#0x4c]
        0x00001696:    42a1        .B      CMP      r1,r4
        0x00001698:    dc07        ..      BGT      0x16aa ; BsrChaza + 58
        0x0000169a:    4661        aF      MOV      r1,r12
        0x0000169c:    1c49        I.      ADDS     r1,r1,#1
        0x0000169e:    468c        .F      MOV      r12,r1
        0x000016a0:    0089        ..      LSLS     r1,r1,#2
        0x000016a2:    1809        ..      ADDS     r1,r1,r0
        0x000016a4:    31ff        .1      ADDS     r1,r1,#0xff
        0x000016a6:    3101        .1      ADDS     r1,#1
        0x000016a8:    6a4a        Jj      LDR      r2,[r1,#0x24]
        0x000016aa:    6851        Qh      LDR      r1,[r2,#4]
        0x000016ac:    18c9        ..      ADDS     r1,r1,r3
        0x000016ae:    e008        ..      B        0x16c2 ; BsrChaza + 82
        0x000016b0:    005e        ^.      LSLS     r6,r3,#1
        0x000016b2:    46b6        .F      MOV      lr,r6
        0x000016b4:    5fae        ._      LDRSH    r6,[r5,r6]
        0x000016b6:    2764        d'      MOVS     r7,#0x64
        0x000016b8:    42fe        .B      CMN      r6,r7
        0x000016ba:    da02        ..      BGE      0x16c2 ; BsrChaza + 82
        0x000016bc:    4f08        .O      LDR      r7,[pc,#32] ; [0x16e0] = 0xffff9e58
        0x000016be:    4676        vF      MOV      r6,lr
        0x000016c0:    53af        .S      STRH     r7,[r5,r6]
        0x000016c2:    6d46        Fm      LDR      r6,[r0,#0x54]
        0x000016c4:    18f3        ..      ADDS     r3,r6,r3
        0x000016c6:    1b8e        ..      SUBS     r6,r1,r6
        0x000016c8:    429e        .B      CMP      r6,r3
        0x000016ca:    dcf1        ..      BGT      0x16b0 ; BsrChaza + 64
        0x000016cc:    1c4b        K.      ADDS     r3,r1,#1
        0x000016ce:    6811        .h      LDR      r1,[r2,#0]
        0x000016d0:    0089        ..      LSLS     r1,r1,#2
        0x000016d2:    188a        ..      ADDS     r2,r1,r2
        0x000016d4:    1c64        d.      ADDS     r4,r4,#1
        0x000016d6:    6d81        .m      LDR      r1,[r0,#0x58]
        0x000016d8:    42a1        .B      CMP      r1,r4
        0x000016da:    dcd6        ..      BGT      0x168a ; BsrChaza + 26
        0x000016dc:    bdf0        ..      POP      {r4-r7,pc}
    $d
        0x000016de:    0000        ..      DCW    0
        0x000016e0:    ffff9e58    X...    DCD    4294942296
    $t
    i.BsrChazi
    BsrChazi
        0x000016e4:    b5ff        ..      PUSH     {r0-r7,lr}
        0x000016e6:    6b04        .k      LDR      r4,[r0,#0x30]
        0x000016e8:    6b41        Ak      LDR      r1,[r0,#0x34]
        0x000016ea:    9103        ..      STR      r1,[sp,#0xc]
        0x000016ec:    2187        .!      MOVS     r1,#0x87
        0x000016ee:    0089        ..      LSLS     r1,r1,#2
        0x000016f0:    5809        .X      LDR      r1,[r1,r0]
        0x000016f2:    9102        ..      STR      r1,[sp,#8]
        0x000016f4:    2100        .!      MOVS     r1,#0
        0x000016f6:    5e61        a^      LDRSH    r1,[r4,r1]
        0x000016f8:    2200        ."      MOVS     r2,#0
        0x000016fa:    43d2        .C      MVNS     r2,r2
        0x000016fc:    9101        ..      STR      r1,[sp,#4]
        0x000016fe:    2900        .)      CMP      r1,#0
        0x00001700:    d052        R.      BEQ      0x17a8 ; BsrChazi + 196
        0x00001702:    2300        .#      MOVS     r3,#0
        0x00001704:    469e        .F      MOV      lr,r3
        0x00001706:    23ff        .#      MOVS     r3,#0xff
        0x00001708:    3325        %3      ADDS     r3,r3,#0x25
        0x0000170a:    6d87        .m      LDR      r7,[r0,#0x58]
        0x0000170c:    581d        .X      LDR      r5,[r3,r0]
        0x0000170e:    2601        .&      MOVS     r6,#1
        0x00001710:    2300        .#      MOVS     r3,#0
        0x00001712:    46bc        .F      MOV      r12,r7
        0x00001714:    e026        &.      B        0x1764 ; BsrChazi + 128
        0x00001716:    4677        wF      MOV      r7,lr
        0x00001718:    00bf        ..      LSLS     r7,r7,#2
        0x0000171a:    183f        ?.      ADDS     r7,r7,r0
        0x0000171c:    37ff        .7      ADDS     r7,r7,#0xff
        0x0000171e:    3701        .7      ADDS     r7,#1
        0x00001720:    6cff        .l      LDR      r7,[r7,#0x4c]
        0x00001722:    429f        .B      CMP      r7,r3
        0x00001724:    dc07        ..      BGT      0x1736 ; BsrChazi + 82
        0x00001726:    4675        uF      MOV      r5,lr
        0x00001728:    1c6d        m.      ADDS     r5,r5,#1
        0x0000172a:    46ae        .F      MOV      lr,r5
        0x0000172c:    00ad        ..      LSLS     r5,r5,#2
        0x0000172e:    182d        -.      ADDS     r5,r5,r0
        0x00001730:    35ff        .5      ADDS     r5,r5,#0xff
        0x00001732:    3501        .5      ADDS     r5,#1
        0x00001734:    6a6d        mj      LDR      r5,[r5,#0x24]
        0x00001736:    686f        oh      LDR      r7,[r5,#4]
        0x00001738:    19be        ..      ADDS     r6,r7,r6
        0x0000173a:    0077        w.      LSLS     r7,r6,#1
        0x0000173c:    9600        ..      STR      r6,[sp,#0]
        0x0000173e:    5fe6        ._      LDRSH    r6,[r4,r7]
        0x00001740:    428e        .B      CMP      r6,r1
        0x00001742:    dd01        ..      BLE      0x1748 ; BsrChazi + 100
        0x00001744:    4631        1F      MOV      r1,r6
        0x00001746:    461a        .F      MOV      r2,r3
        0x00001748:    193f        ?.      ADDS     r7,r7,r4
        0x0000174a:    3f40        @?      SUBS     r7,r7,#0x40
        0x0000174c:    263e        >&      MOVS     r6,#0x3e
        0x0000174e:    5fbe        ._      LDRSH    r6,[r7,r6]
        0x00001750:    428e        .B      CMP      r6,r1
        0x00001752:    dd01        ..      BLE      0x1758 ; BsrChazi + 116
        0x00001754:    4631        1F      MOV      r1,r6
        0x00001756:    461a        .F      MOV      r2,r3
        0x00001758:    682f        /h      LDR      r7,[r5,#0]
        0x0000175a:    9e00        ..      LDR      r6,[sp,#0]
        0x0000175c:    00bf        ..      LSLS     r7,r7,#2
        0x0000175e:    197d        }.      ADDS     r5,r7,r5
        0x00001760:    1c5b        [.      ADDS     r3,r3,#1
        0x00001762:    1c76        v.      ADDS     r6,r6,#1
        0x00001764:    4667        gF      MOV      r7,r12
        0x00001766:    459c        .E      CMP      r12,r3
        0x00001768:    dcd5        ..      BGT      0x1716 ; BsrChazi + 50
        0x0000176a:    6dc3        .m      LDR      r3,[r0,#0x5c]
        0x0000176c:    2502        .%      MOVS     r5,#2
        0x0000176e:    005b        [.      LSLS     r3,r3,#1
        0x00001770:    191e        ..      ADDS     r6,r3,r4
        0x00001772:    5f75        u_      LDRSH    r5,[r6,r5]
        0x00001774:    428d        .B      CMP      r5,r1
        0x00001776:    dd01        ..      BLE      0x177c ; BsrChazi + 152
        0x00001778:    4629        )F      MOV      r1,r5
        0x0000177a:    463a        :F      MOV      r2,r7
        0x0000177c:    5ee5        .^      LDRSH    r5,[r4,r3]
        0x0000177e:    428d        .B      CMP      r5,r1
        0x00001780:    dd01        ..      BLE      0x1786 ; BsrChazi + 162
        0x00001782:    4629        )F      MOV      r1,r5
        0x00001784:    4662        bF      MOV      r2,r12
        0x00001786:    9d01        ..      LDR      r5,[sp,#4]
        0x00001788:    428d        .B      CMP      r5,r1
        0x0000178a:    da0d        ..      BGE      0x17a8 ; BsrChazi + 196
        0x0000178c:    9d03        ..      LDR      r5,[sp,#0xc]
        0x0000178e:    195b        [.      ADDS     r3,r3,r5
        0x00001790:    2502        .%      MOVS     r5,#2
        0x00001792:    5f5d        ]_      LDRSH    r5,[r3,r5]
        0x00001794:    23ff        .#      MOVS     r3,#0xff
        0x00001796:    33d1        .3      ADDS     r3,r3,#0xd1
        0x00001798:    581b        .X      LDR      r3,[r3,r0]
        0x0000179a:    429d        .B      CMP      r5,r3
        0x0000179c:    db04        ..      BLT      0x17a8 ; BsrChazi + 196
        0x0000179e:    8021        !.      STRH     r1,[r4,#0]
        0x000017a0:    6bc3        .k      LDR      r3,[r0,#0x3c]
        0x000017a2:    9802        ..      LDR      r0,[sp,#8]
        0x000017a4:    0040        @.      LSLS     r0,r0,#1
        0x000017a6:    5219        .R      STRH     r1,[r3,r0]
        0x000017a8:    4610        .F      MOV      r0,r2
        0x000017aa:    b004        ..      ADD      sp,sp,#0x10
        0x000017ac:    bdf0        ..      POP      {r4-r7,pc}
        0x000017ae:    0000        ..      MOVS     r0,r0
    i.BsrClay
    BsrClay
        0x000017b0:    b5f0        ..      PUSH     {r4-r7,lr}
        0x000017b2:    4605        .F      MOV      r5,r0
        0x000017b4:    4604        .F      MOV      r4,r0
        0x000017b6:    6b00        .k      LDR      r0,[r0,#0x30]
        0x000017b8:    b08f        ..      SUB      sp,sp,#0x3c
        0x000017ba:    4684        .F      MOV      r12,r0
        0x000017bc:    6b60        `k      LDR      r0,[r4,#0x34]
        0x000017be:    9006        ..      STR      r0,[sp,#0x18]
        0x000017c0:    20ff        .       MOVS     r0,#0xff
        0x000017c2:    35ff        .5      ADDS     r5,r5,#0xff
        0x000017c4:    3025        %0      ADDS     r0,r0,#0x25
        0x000017c6:    35ed        .5      ADDS     r5,r5,#0xed
        0x000017c8:    2300        .#      MOVS     r3,#0
        0x000017ca:    5902        .Y      LDR      r2,[r0,r4]
        0x000017cc:    2101        .!      MOVS     r1,#1
        0x000017ce:    1e88        ..      SUBS     r0,r1,#2
        0x000017d0:    9001        ..      STR      r0,[sp,#4]
        0x000017d2:    48a7        .H      LDR      r0,[pc,#668] ; [0x1a70] = 0xffff9e58
        0x000017d4:    9007        ..      STR      r0,[sp,#0x1c]
        0x000017d6:    6da6        .m      LDR      r6,[r4,#0x58]
        0x000017d8:    4618        .F      MOV      r0,r3
        0x000017da:    9603        ..      STR      r6,[sp,#0xc]
        0x000017dc:    e027        '.      B        0x182e ; BsrClay + 126
        0x000017de:    009e        ..      LSLS     r6,r3,#2
        0x000017e0:    1936        6.      ADDS     r6,r6,r4
        0x000017e2:    36ff        .6      ADDS     r6,r6,#0xff
        0x000017e4:    3601        .6      ADDS     r6,#1
        0x000017e6:    6cf6        .l      LDR      r6,[r6,#0x4c]
        0x000017e8:    4286        .B      CMP      r6,r0
        0x000017ea:    dc05        ..      BGT      0x17f8 ; BsrClay + 72
        0x000017ec:    1c5b        [.      ADDS     r3,r3,#1
        0x000017ee:    009a        ..      LSLS     r2,r3,#2
        0x000017f0:    1912        ..      ADDS     r2,r2,r4
        0x000017f2:    32ff        .2      ADDS     r2,r2,#0xff
        0x000017f4:    3201        .2      ADDS     r2,#1
        0x000017f6:    6a52        Rj      LDR      r2,[r2,#0x24]
        0x000017f8:    6856        Vh      LDR      r6,[r2,#4]
        0x000017fa:    1871        q.      ADDS     r1,r6,r1
        0x000017fc:    004f        O.      LSLS     r7,r1,#1
        0x000017fe:    4666        fF      MOV      r6,r12
        0x00001800:    46be        .F      MOV      lr,r7
        0x00001802:    5ff6        ._      LDRSH    r6,[r6,r7]
        0x00001804:    9f07        ..      LDR      r7,[sp,#0x1c]
        0x00001806:    42be        .B      CMP      r6,r7
        0x00001808:    dd0b        ..      BLE      0x1822 ; BsrClay + 114
        0x0000180a:    9607        ..      STR      r6,[sp,#0x1c]
        0x0000180c:    9001        ..      STR      r0,[sp,#4]
        0x0000180e:    9e06        ..      LDR      r6,[sp,#0x18]
        0x00001810:    4677        wF      MOV      r7,lr
        0x00001812:    5ff6        ._      LDRSH    r6,[r6,r7]
        0x00001814:    4667        gF      MOV      r7,r12
        0x00001816:    4477        wD      ADD      r7,r7,lr
        0x00001818:    3f40        @?      SUBS     r7,r7,#0x40
        0x0000181a:    9600        ..      STR      r6,[sp,#0]
        0x0000181c:    263e        >&      MOVS     r6,#0x3e
        0x0000181e:    5fbe        ._      LDRSH    r6,[r7,r6]
        0x00001820:    9609        ..      STR      r6,[sp,#0x24]
        0x00001822:    6816        .h      LDR      r6,[r2,#0]
        0x00001824:    1c40        @.      ADDS     r0,r0,#1
        0x00001826:    00b6        ..      LSLS     r6,r6,#2
        0x00001828:    18b2        ..      ADDS     r2,r6,r2
        0x0000182a:    9e03        ..      LDR      r6,[sp,#0xc]
        0x0000182c:    1c49        I.      ADDS     r1,r1,#1
        0x0000182e:    4286        .B      CMP      r6,r0
        0x00001830:    dcd5        ..      BGT      0x17de ; BsrClay + 46
        0x00001832:    1de7        ..      ADDS     r7,r4,#7
        0x00001834:    37ff        .7      ADDS     r7,r7,#0xff
        0x00001836:    37fa        .7      ADDS     r7,r7,#0xfa
        0x00001838:    463e        >F      MOV      r6,r7
        0x0000183a:    6b38        8k      LDR      r0,[r7,#0x30]
        0x0000183c:    3e80        .>      SUBS     r6,r6,#0x80
        0x0000183e:    2801        .(      CMP      r0,#1
        0x00001840:    d10b        ..      BNE      0x185a ; BsrClay + 170
        0x00001842:    2000        .       MOVS     r0,#0
        0x00001844:    6338        8c      STR      r0,[r7,#0x30]
        0x00001846:    1e40        @.      SUBS     r0,r0,#1
        0x00001848:    6630        0f      STR      r0,[r6,#0x60]
        0x0000184a:    2000        .       MOVS     r0,#0
        0x0000184c:    6670        pf      STR      r0,[r6,#0x64]
        0x0000184e:    66b0        .f      STR      r0,[r6,#0x68]
        0x00001850:    4620         F      MOV      r0,r4
        0x00001852:    f001fa35    ..5.    BL       BsrJena ; 0x2cc0
        0x00001856:    2000        .       MOVS     r0,#0
        0x00001858:    60f8        .`      STR      r0,[r7,#0xc]
        0x0000185a:    4985        .I      LDR      r1,[pc,#532] ; [0x1a70] = 0xffff9e58
        0x0000185c:    9807        ..      LDR      r0,[sp,#0x1c]
        0x0000185e:    4288        .B      CMP      r0,r1
        0x00001860:    d075        u.      BEQ      0x194e ; BsrClay + 414
        0x00001862:    69f9        .i      LDR      r1,[r7,#0x1c]
        0x00001864:    9800        ..      LDR      r0,[sp,#0]
        0x00001866:    1a08        ..      SUBS     r0,r1,r0
        0x00001868:    1e40        @.      SUBS     r0,r0,#1
        0x0000186a:    9006        ..      STR      r0,[sp,#0x18]
        0x0000186c:    d502        ..      BPL      0x1874 ; BsrClay + 196
        0x0000186e:    6a7a        zj      LDR      r2,[r7,#0x24]
        0x00001870:    1810        ..      ADDS     r0,r2,r0
        0x00001872:    9006        ..      STR      r0,[sp,#0x18]
        0x00001874:    9801        ..      LDR      r0,[sp,#4]
        0x00001876:    6ba2        .k      LDR      r2,[r4,#0x38]
        0x00001878:    0040        @.      LSLS     r0,r0,#1
        0x0000187a:    900b        ..      STR      r0,[sp,#0x2c]
        0x0000187c:    5e10        .^      LDRSH    r0,[r2,r0]
        0x0000187e:    9a06        ..      LDR      r2,[sp,#0x18]
        0x00001880:    1a12        ..      SUBS     r2,r2,r0
        0x00001882:    9202        ..      STR      r2,[sp,#8]
        0x00001884:    9a00        ..      LDR      r2,[sp,#0]
        0x00001886:    1882        ..      ADDS     r2,r0,r2
        0x00001888:    6a78        xj      LDR      r0,[r7,#0x24]
        0x0000188a:    4282        .B      CMP      r2,r0
        0x0000188c:    da01        ..      BGE      0x1892 ; BsrClay + 226
        0x0000188e:    9902        ..      LDR      r1,[sp,#8]
        0x00001890:    e000        ..      B        0x1894 ; BsrClay + 228
        0x00001892:    9102        ..      STR      r1,[sp,#8]
        0x00001894:    2900        .)      CMP      r1,#0
        0x00001896:    da05        ..      BGE      0x18a4 ; BsrClay + 244
        0x00001898:    6a39        9j      LDR      r1,[r7,#0x20]
        0x0000189a:    2900        .)      CMP      r1,#0
        0x0000189c:    d03d        =.      BEQ      0x191a ; BsrClay + 362
        0x0000189e:    9902        ..      LDR      r1,[sp,#8]
        0x000018a0:    1840        @.      ADDS     r0,r0,r1
        0x000018a2:    9002        ..      STR      r0,[sp,#8]
        0x000018a4:    9800        ..      LDR      r0,[sp,#0]
        0x000018a6:    2801        .(      CMP      r0,#1
        0x000018a8:    dc05        ..      BGT      0x18b6 ; BsrClay + 262
        0x000018aa:    6ce2        .l      LDR      r2,[r4,#0x4c]
        0x000018ac:    4620         F      MOV      r0,r4
        0x000018ae:    9901        ..      LDR      r1,[sp,#4]
        0x000018b0:    f001f98c    ....    BL       BsrJean ; 0x2bcc
        0x000018b4:    66b0        .f      STR      r0,[r6,#0x68]
        0x000018b6:    6cf1        .l      LDR      r1,[r6,#0x4c]
        0x000018b8:    9800        ..      LDR      r0,[sp,#0]
        0x000018ba:    4281        .B      CMP      r1,r0
        0x000018bc:    da37        7.      BGE      0x192e ; BsrClay + 382
        0x000018be:    4620         F      MOV      r0,r4
        0x000018c0:    f001f9d6    ....    BL       BsrJeff ; 0x2c70
        0x000018c4:    6ba1        .k      LDR      r1,[r4,#0x38]
        0x000018c6:    980b        ..      LDR      r0,[sp,#0x2c]
        0x000018c8:    9b06        ..      LDR      r3,[sp,#0x18]
        0x000018ca:    5e08        .^      LDRSH    r0,[r1,r0]
        0x000018cc:    9000        ..      STR      r0,[sp,#0]
        0x000018ce:    4620         F      MOV      r0,r4
        0x000018d0:    9a02        ..      LDR      r2,[sp,#8]
        0x000018d2:    9901        ..      LDR      r1,[sp,#4]
        0x000018d4:    f001f8f0    ....    BL       BsrJana ; 0x2ab8
        0x000018d8:    9003        ..      STR      r0,[sp,#0xc]
        0x000018da:    6ba1        .k      LDR      r1,[r4,#0x38]
        0x000018dc:    980b        ..      LDR      r0,[sp,#0x2c]
        0x000018de:    9b06        ..      LDR      r3,[sp,#0x18]
        0x000018e0:    5e08        .^      LDRSH    r0,[r1,r0]
        0x000018e2:    9000        ..      STR      r0,[sp,#0]
        0x000018e4:    4620         F      MOV      r0,r4
        0x000018e6:    9a02        ..      LDR      r2,[sp,#8]
        0x000018e8:    9901        ..      LDR      r1,[sp,#4]
        0x000018ea:    f001f8fa    ....    BL       BsrJane ; 0x2ae2
        0x000018ee:    4601        .F      MOV      r1,r0
        0x000018f0:    9803        ..      LDR      r0,[sp,#0xc]
        0x000018f2:    1a40        @.      SUBS     r0,r0,r1
        0x000018f4:    6939        9i      LDR      r1,[r7,#0x10]
        0x000018f6:    4288        .B      CMP      r0,r1
        0x000018f8:    db29        ).      BLT      0x194e ; BsrClay + 414
        0x000018fa:    4620         F      MOV      r0,r4
        0x000018fc:    f001f9e0    ....    BL       BsrJena ; 0x2cc0
        0x00001900:    9801        ..      LDR      r0,[sp,#4]
        0x00001902:    8028        (.      STRH     r0,[r5,#0]
        0x00001904:    9802        ..      LDR      r0,[sp,#8]
        0x00001906:    80e8        ..      STRH     r0,[r5,#6]
        0x00001908:    9806        ..      LDR      r0,[sp,#0x18]
        0x0000190a:    8128        (.      STRH     r0,[r5,#8]
        0x0000190c:    2000        .       MOVS     r0,#0
        0x0000190e:    43c0        .C      MVNS     r0,r0
        0x00001910:    8168        h.      STRH     r0,[r5,#0xa]
        0x00001912:    6eb0        .n      LDR      r0,[r6,#0x68]
        0x00001914:    2800        .(      CMP      r0,#0
        0x00001916:    d002        ..      BEQ      0x191e ; BsrClay + 366
        0x00001918:    e004        ..      B        0x1924 ; BsrClay + 372
        0x0000191a:    2000        .       MOVS     r0,#0
        0x0000191c:    e7c1        ..      B        0x18a2 ; BsrClay + 242
        0x0000191e:    2002        .       MOVS     r0,#2
        0x00001920:    43c0        .C      MVNS     r0,r0
        0x00001922:    8168        h.      STRH     r0,[r5,#0xa]
        0x00001924:    4620         F      MOV      r0,r4
        0x00001926:    f001f9dd    ....    BL       BsrJeni ; 0x2ce4
        0x0000192a:    60f8        .`      STR      r0,[r7,#0xc]
        0x0000192c:    e081        ..      B        0x1a32 ; BsrClay + 642
        0x0000192e:    6cb1        .l      LDR      r1,[r6,#0x48]
        0x00001930:    980b        ..      LDR      r0,[sp,#0x2c]
        0x00001932:    5e09        .^      LDRSH    r1,[r1,r0]
        0x00001934:    9800        ..      LDR      r0,[sp,#0]
        0x00001936:    1a40        @.      SUBS     r0,r0,r1
        0x00001938:    6d31        1m      LDR      r1,[r6,#0x50]
        0x0000193a:    4288        .B      CMP      r0,r1
        0x0000193c:    db07        ..      BLT      0x194e ; BsrClay + 414
        0x0000193e:    6e31        1n      LDR      r1,[r6,#0x60]
        0x00001940:    9801        ..      LDR      r0,[sp,#4]
        0x00001942:    4281        .B      CMP      r1,r0
        0x00001944:    d104        ..      BNE      0x1950 ; BsrClay + 416
        0x00001946:    6e70        pn      LDR      r0,[r6,#0x64]
        0x00001948:    1c40        @.      ADDS     r0,r0,#1
        0x0000194a:    6670        pf      STR      r0,[r6,#0x64]
        0x0000194c:    e009        ..      B        0x1962 ; BsrClay + 434
        0x0000194e:    e088        ..      B        0x1a62 ; BsrClay + 690
        0x00001950:    6630        0f      STR      r0,[r6,#0x60]
        0x00001952:    2001        .       MOVS     r0,#1
        0x00001954:    6670        pf      STR      r0,[r6,#0x64]
        0x00001956:    4620         F      MOV      r0,r4
        0x00001958:    f001f9b2    ....    BL       BsrJena ; 0x2cc0
        0x0000195c:    2000        .       MOVS     r0,#0
        0x0000195e:    60f8        .`      STR      r0,[r7,#0xc]
        0x00001960:    6e70        pn      LDR      r0,[r6,#0x64]
        0x00001962:    6d71        qm      LDR      r1,[r6,#0x54]
        0x00001964:    4288        .B      CMP      r0,r1
        0x00001966:    db7d        }.      BLT      0x1a64 ; BsrClay + 692
        0x00001968:    9801        ..      LDR      r0,[sp,#4]
        0x0000196a:    8028        (.      STRH     r0,[r5,#0]
        0x0000196c:    9802        ..      LDR      r0,[sp,#8]
        0x0000196e:    80e8        ..      STRH     r0,[r5,#6]
        0x00001970:    9806        ..      LDR      r0,[sp,#0x18]
        0x00001972:    8128        (.      STRH     r0,[r5,#8]
        0x00001974:    4620         F      MOV      r0,r4
        0x00001976:    f001f9b5    ....    BL       BsrJeni ; 0x2ce4
        0x0000197a:    60f8        .`      STR      r0,[r7,#0xc]
        0x0000197c:    6eb0        .n      LDR      r0,[r6,#0x68]
        0x0000197e:    2800        .(      CMP      r0,#0
        0x00001980:    d070        p.      BEQ      0x1a64 ; BsrClay + 692
        0x00001982:    9802        ..      LDR      r0,[sp,#8]
        0x00001984:    6be1        .k      LDR      r1,[r4,#0x3c]
        0x00001986:    0040        @.      LSLS     r0,r0,#1
        0x00001988:    9004        ..      STR      r0,[sp,#0x10]
        0x0000198a:    5e08        .^      LDRSH    r0,[r1,r0]
        0x0000198c:    4240        @B      RSBS     r0,r0,#0
        0x0000198e:    2832        2(      CMP      r0,#0x32
        0x00001990:    dd05        ..      BLE      0x199e ; BsrClay + 494
        0x00001992:    2132        2!      MOVS     r1,#0x32
        0x00001994:    f7fefc40    ..@.    BL       __aeabi_idiv ; 0x218
        0x00001998:    2119        .!      MOVS     r1,#0x19
        0x0000199a:    4348        HC      MULS     r0,r1,r0
        0x0000199c:    e000        ..      B        0x19a0 ; BsrClay + 496
        0x0000199e:    2000        .       MOVS     r0,#0
        0x000019a0:    6d22        "m      LDR      r2,[r4,#0x50]
        0x000019a2:    6db1        .m      LDR      r1,[r6,#0x58]
        0x000019a4:    1810        ..      ADDS     r0,r2,r0
        0x000019a6:    1a09        ..      SUBS     r1,r1,r0
        0x000019a8:    9807        ..      LDR      r0,[sp,#0x1c]
        0x000019aa:    4281        .B      CMP      r1,r0
        0x000019ac:    dc5a        Z.      BGT      0x1a64 ; BsrClay + 692
        0x000019ae:    6ba1        .k      LDR      r1,[r4,#0x38]
        0x000019b0:    980b        ..      LDR      r0,[sp,#0x2c]
        0x000019b2:    9b06        ..      LDR      r3,[sp,#0x18]
        0x000019b4:    5e08        .^      LDRSH    r0,[r1,r0]
        0x000019b6:    9000        ..      STR      r0,[sp,#0]
        0x000019b8:    4620         F      MOV      r0,r4
        0x000019ba:    9a02        ..      LDR      r2,[sp,#8]
        0x000019bc:    9901        ..      LDR      r1,[sp,#4]
        0x000019be:    f001f87b    ..{.    BL       BsrJana ; 0x2ab8
        0x000019c2:    9003        ..      STR      r0,[sp,#0xc]
        0x000019c4:    6ca1        .l      LDR      r1,[r4,#0x48]
        0x000019c6:    980b        ..      LDR      r0,[sp,#0x2c]
        0x000019c8:    6be2        .k      LDR      r2,[r4,#0x3c]
        0x000019ca:    5e09        .^      LDRSH    r1,[r1,r0]
        0x000019cc:    9804        ..      LDR      r0,[sp,#0x10]
        0x000019ce:    5e10        .^      LDRSH    r0,[r2,r0]
        0x000019d0:    6ba2        .k      LDR      r2,[r4,#0x38]
        0x000019d2:    1a08        ..      SUBS     r0,r1,r0
        0x000019d4:    210a        .!      MOVS     r1,#0xa
        0x000019d6:    4348        HC      MULS     r0,r1,r0
        0x000019d8:    990b        ..      LDR      r1,[sp,#0x2c]
        0x000019da:    5e51        Q^      LDRSH    r1,[r2,r1]
        0x000019dc:    9100        ..      STR      r1,[sp,#0]
        0x000019de:    f7fefc1b    ....    BL       __aeabi_idiv ; 0x218
        0x000019e2:    9004        ..      STR      r0,[sp,#0x10]
        0x000019e4:    4620         F      MOV      r0,r4
        0x000019e6:    9b06        ..      LDR      r3,[sp,#0x18]
        0x000019e8:    9a02        ..      LDR      r2,[sp,#8]
        0x000019ea:    9901        ..      LDR      r1,[sp,#4]
        0x000019ec:    f001f879    ..y.    BL       BsrJane ; 0x2ae2
        0x000019f0:    9000        ..      STR      r0,[sp,#0]
        0x000019f2:    6c71        ql      LDR      r1,[r6,#0x44]
        0x000019f4:    980b        ..      LDR      r0,[sp,#0x2c]
        0x000019f6:    5e09        .^      LDRSH    r1,[r1,r0]
        0x000019f8:    9804        ..      LDR      r0,[sp,#0x10]
        0x000019fa:    1808        ..      ADDS     r0,r1,r0
        0x000019fc:    9903        ..      LDR      r1,[sp,#0xc]
        0x000019fe:    1a0a        ..      SUBS     r2,r1,r0
        0x00001a00:    9900        ..      LDR      r1,[sp,#0]
        0x00001a02:    806a        j.      STRH     r2,[r5,#2]
        0x00001a04:    1a41        A.      SUBS     r1,r0,r1
        0x00001a06:    4620         F      MOV      r0,r4
        0x00001a08:    80a9        ..      STRH     r1,[r5,#4]
        0x00001a0a:    3080        .0      ADDS     r0,r0,#0x80
        0x00001a0c:    6883        .h      LDR      r3,[r0,#8]
        0x00001a0e:    4293        .B      CMP      r3,r2
        0x00001a10:    db02        ..      BLT      0x1a18 ; BsrClay + 616
        0x00001a12:    68c3        .h      LDR      r3,[r0,#0xc]
        0x00001a14:    428b        .B      CMP      r3,r1
        0x00001a16:    dd10        ..      BLE      0x1a3a ; BsrClay + 650
        0x00001a18:    4915        .I      LDR      r1,[pc,#84] ; [0x1a70] = 0xffff9e58
        0x00001a1a:    9809        ..      LDR      r0,[sp,#0x24]
        0x00001a1c:    4288        .B      CMP      r0,r1
        0x00001a1e:    d121        !.      BNE      0x1a64 ; BsrClay + 692
        0x00001a20:    4620         F      MOV      r0,r4
        0x00001a22:    f001f925    ..%.    BL       BsrJeff ; 0x2c70
        0x00001a26:    9900        ..      LDR      r1,[sp,#0]
        0x00001a28:    9803        ..      LDR      r0,[sp,#0xc]
        0x00001a2a:    1a40        @.      SUBS     r0,r0,r1
        0x00001a2c:    6939        9i      LDR      r1,[r7,#0x10]
        0x00001a2e:    4288        .B      CMP      r0,r1
        0x00001a30:    db18        ..      BLT      0x1a64 ; BsrClay + 692
        0x00001a32:    200a        .       MOVS     r0,#0xa
        0x00001a34:    43c0        .C      MVNS     r0,r0
        0x00001a36:    b00f        ..      ADD      sp,sp,#0x3c
        0x00001a38:    bdf0        ..      POP      {r4-r7,pc}
        0x00001a3a:    6903        .i      LDR      r3,[r0,#0x10]
        0x00001a3c:    4293        .B      CMP      r3,r2
        0x00001a3e:    da02        ..      BGE      0x1a46 ; BsrClay + 662
        0x00001a40:    6940        @i      LDR      r0,[r0,#0x14]
        0x00001a42:    4288        .B      CMP      r0,r1
        0x00001a44:    dc05        ..      BGT      0x1a52 ; BsrClay + 674
        0x00001a46:    4620         F      MOV      r0,r4
        0x00001a48:    9901        ..      LDR      r1,[sp,#4]
        0x00001a4a:    f001f886    ....    BL       BsrJanelle ; 0x2b5a
        0x00001a4e:    2800        .(      CMP      r0,#0
        0x00001a50:    d00b        ..      BEQ      0x1a6a ; BsrClay + 698
        0x00001a52:    4907        .I      LDR      r1,[pc,#28] ; [0x1a70] = 0xffff9e58
        0x00001a54:    9809        ..      LDR      r0,[sp,#0x24]
        0x00001a56:    4288        .B      CMP      r0,r1
        0x00001a58:    d104        ..      BNE      0x1a64 ; BsrClay + 692
        0x00001a5a:    4620         F      MOV      r0,r4
        0x00001a5c:    f001f908    ....    BL       BsrJeff ; 0x2c70
        0x00001a60:    e7e7        ..      B        0x1a32 ; BsrClay + 642
        0x00001a62:    e7ff        ..      B        0x1a64 ; BsrClay + 692
        0x00001a64:    2009        .       MOVS     r0,#9
        0x00001a66:    43c0        .C      MVNS     r0,r0
        0x00001a68:    e7e5        ..      B        0x1a36 ; BsrClay + 646
        0x00001a6a:    9801        ..      LDR      r0,[sp,#4]
        0x00001a6c:    e7e3        ..      B        0x1a36 ; BsrClay + 646
    $d
        0x00001a6e:    0000        ..      DCW    0
        0x00001a70:    ffff9e58    X...    DCD    4294942296
    $t
    i.BsrCory
    BsrCory
        0x00001a74:    b5f8        ..      PUSH     {r3-r7,lr}
        0x00001a76:    000d        ..      MOVS     r5,r1
        0x00001a78:    4606        .F      MOV      r6,r0
        0x00001a7a:    d013        ..      BEQ      0x1aa4 ; BsrCory + 48
        0x00001a7c:    2e00        ..      CMP      r6,#0
        0x00001a7e:    d011        ..      BEQ      0x1aa4 ; BsrCory + 48
        0x00001a80:    214c        L!      MOVS     r1,#0x4c
        0x00001a82:    f7fefedf    ....    BL       BsrAbel ; 0x844
        0x00001a86:    0004        ..      MOVS     r4,r0
        0x00001a88:    d00c        ..      BEQ      0x1aa4 ; BsrCory + 48
        0x00001a8a:    224c        L"      MOVS     r2,#0x4c
        0x00001a8c:    2100        .!      MOVS     r1,#0
        0x00001a8e:    f001fc26    ..&.    BL       BsrJohn ; 0x32de
        0x00001a92:    2208        ."      MOVS     r2,#8
        0x00001a94:    494f        OI      LDR      r1,[pc,#316] ; [0x1bd4] = 0x6574
        0x00001a96:    4628        (F      MOV      r0,r5
        0x00001a98:    6026        &`      STR      r6,[r4,#0]
        0x00001a9a:    f001fc3c    ..<.    BL       BsrJosh ; 0x3316
        0x00001a9e:    2800        .(      CMP      r0,#0
        0x00001aa0:    d152        R.      BNE      0x1b48 ; BsrCory + 212
        0x00001aa2:    e001        ..      B        0x1aa8 ; BsrCory + 52
        0x00001aa4:    2000        .       MOVS     r0,#0
        0x00001aa6:    bdf8        ..      POP      {r3-r7,pc}
        0x00001aa8:    68a8        .h      LDR      r0,[r5,#8]
        0x00001aaa:    62e0        .b      STR      r0,[r4,#0x2c]
        0x00001aac:    68e8        .h      LDR      r0,[r5,#0xc]
        0x00001aae:    9000        ..      STR      r0,[sp,#0]
        0x00001ab0:    63e0        .c      STR      r0,[r4,#0x3c]
        0x00001ab2:    6928        (i      LDR      r0,[r5,#0x10]
        0x00001ab4:    6060        ``      STR      r0,[r4,#4]
        0x00001ab6:    696a        ji      LDR      r2,[r5,#0x14]
        0x00001ab8:    60a2        .`      STR      r2,[r4,#8]
        0x00001aba:    69a9        .i      LDR      r1,[r5,#0x18]
        0x00001abc:    60e1        .`      STR      r1,[r4,#0xc]
        0x00001abe:    69eb        .i      LDR      r3,[r5,#0x1c]
        0x00001ac0:    2601        .&      MOVS     r6,#1
        0x00001ac2:    3508        .5      ADDS     r5,r5,#8
        0x00001ac4:    6123        #a      STR      r3,[r4,#0x10]
        0x00001ac6:    2800        .(      CMP      r0,#0
        0x00001ac8:    dd03        ..      BLE      0x1ad2 ; BsrCory + 94
        0x00001aca:    4637        7F      MOV      r7,r6
        0x00001acc:    1e40        @.      SUBS     r0,r0,#1
        0x00001ace:    4087        .@      LSLS     r7,r7,r0
        0x00001ad0:    e000        ..      B        0x1ad4 ; BsrCory + 96
        0x00001ad2:    2700        .'      MOVS     r7,#0
        0x00001ad4:    6167        ga      STR      r7,[r4,#0x14]
        0x00001ad6:    2a00        .*      CMP      r2,#0
        0x00001ad8:    dd03        ..      BLE      0x1ae2 ; BsrCory + 110
        0x00001ada:    4630        0F      MOV      r0,r6
        0x00001adc:    1e52        R.      SUBS     r2,r2,#1
        0x00001ade:    4090        .@      LSLS     r0,r0,r2
        0x00001ae0:    e000        ..      B        0x1ae4 ; BsrCory + 112
        0x00001ae2:    2000        .       MOVS     r0,#0
        0x00001ae4:    61a0        .a      STR      r0,[r4,#0x18]
        0x00001ae6:    2900        .)      CMP      r1,#0
        0x00001ae8:    dd03        ..      BLE      0x1af2 ; BsrCory + 126
        0x00001aea:    4630        0F      MOV      r0,r6
        0x00001aec:    1e49        I.      SUBS     r1,r1,#1
        0x00001aee:    4088        .@      LSLS     r0,r0,r1
        0x00001af0:    e000        ..      B        0x1af4 ; BsrCory + 128
        0x00001af2:    2000        .       MOVS     r0,#0
        0x00001af4:    61e0        .a      STR      r0,[r4,#0x1c]
        0x00001af6:    2b00        .+      CMP      r3,#0
        0x00001af8:    dd03        ..      BLE      0x1b02 ; BsrCory + 142
        0x00001afa:    4630        0F      MOV      r0,r6
        0x00001afc:    1e5b        [.      SUBS     r3,r3,#1
        0x00001afe:    4098        .@      LSLS     r0,r0,r3
        0x00001b00:    e000        ..      B        0x1b04 ; BsrCory + 144
        0x00001b02:    2000        .       MOVS     r0,#0
        0x00001b04:    4622        "F      MOV      r2,r4
        0x00001b06:    3244        D2      ADDS     r2,r2,#0x44
        0x00001b08:    6220         b      STR      r0,[r4,#0x20]
        0x00001b0a:    1f11        ..      SUBS     r1,r2,#4
        0x00001b0c:    4628        (F      MOV      r0,r5
        0x00001b0e:    f000ff51    ..Q.    BL       BsrJade ; 0x29b4
        0x00001b12:    4628        (F      MOV      r0,r5
        0x00001b14:    3018        .0      ADDS     r0,r0,#0x18
        0x00001b16:    6260        `b      STR      r0,[r4,#0x24]
        0x00001b18:    6ae0        .j      LDR      r0,[r4,#0x2c]
        0x00001b1a:    6c21        !l      LDR      r1,[r4,#0x40]
        0x00001b1c:    00c0        ..      LSLS     r0,r0,#3
        0x00001b1e:    0089        ..      LSLS     r1,r1,#2
        0x00001b20:    180f        ..      ADDS     r7,r1,r0
        0x00001b22:    4639        9F      MOV      r1,r7
        0x00001b24:    6820         h      LDR      r0,[r4,#0]
        0x00001b26:    f7fefe8d    ....    BL       BsrAbel ; 0x844
        0x00001b2a:    6320         c      STR      r0,[r4,#0x30]
        0x00001b2c:    6ae1        .j      LDR      r1,[r4,#0x2c]
        0x00001b2e:    0089        ..      LSLS     r1,r1,#2
        0x00001b30:    1842        B.      ADDS     r2,r0,r1
        0x00001b32:    1851        Q.      ADDS     r1,r2,r1
        0x00001b34:    6362        bc      STR      r2,[r4,#0x34]
        0x00001b36:    64a1        .d      STR      r1,[r4,#0x48]
        0x00001b38:    2800        .(      CMP      r0,#0
        0x00001b3a:    d005        ..      BEQ      0x1b48 ; BsrCory + 212
        0x00001b3c:    6c22        "l      LDR      r2,[r4,#0x40]
        0x00001b3e:    0092        ..      LSLS     r2,r2,#2
        0x00001b40:    188a        ..      ADDS     r2,r1,r2
        0x00001b42:    1a10        ..      SUBS     r0,r2,r0
        0x00001b44:    42b8        .B      CMP      r0,r7
        0x00001b46:    dd03        ..      BLE      0x1b50 ; BsrCory + 220
        0x00001b48:    4620         F      MOV      r0,r4
        0x00001b4a:    f000f845    ..E.    BL       BsrCoty ; 0x1bd8
        0x00001b4e:    e7a9        ..      B        0x1aa4 ; BsrCory + 48
        0x00001b50:    9a00        ..      LDR      r2,[sp,#0]
        0x00001b52:    2700        .'      MOVS     r7,#0
        0x00001b54:    1d90        ..      ADDS     r0,r2,#6
        0x00001b56:    0092        ..      LSLS     r2,r2,#2
        0x00001b58:    3218        .2      ADDS     r2,r2,#0x18
        0x00001b5a:    1952        R.      ADDS     r2,r2,r5
        0x00001b5c:    6812        .h      LDR      r2,[r2,#0]
        0x00001b5e:    6008        .`      STR      r0,[r1,#0]
        0x00001b60:    0051        Q.      LSLS     r1,r2,#1
        0x00001b62:    1853        S.      ADDS     r3,r2,r1
        0x00001b64:    6426        &d      STR      r6,[r4,#0x40]
        0x00001b66:    9900        ..      LDR      r1,[sp,#0]
        0x00001b68:    6462        bd      STR      r2,[r4,#0x44]
        0x00001b6a:    4351        QC      MULS     r1,r2,r1
        0x00001b6c:    0049        I.      LSLS     r1,r1,#1
        0x00001b6e:    1859        Y.      ADDS     r1,r3,r1
        0x00001b70:    1808        ..      ADDS     r0,r1,r0
        0x00001b72:    1c40        @.      ADDS     r0,r0,#1
        0x00001b74:    e025        %.      B        0x1bc2 ; BsrCory + 334
        0x00001b76:    0081        ..      LSLS     r1,r0,#2
        0x00001b78:    1949        I.      ADDS     r1,r1,r5
        0x00001b7a:    6809        .h      LDR      r1,[r1,#0]
        0x00001b7c:    6b63        ck      LDR      r3,[r4,#0x34]
        0x00001b7e:    468c        .F      MOV      r12,r1
        0x00001b80:    00b9        ..      LSLS     r1,r7,#2
        0x00001b82:    6c22        "l      LDR      r2,[r4,#0x40]
        0x00001b84:    505a        ZP      STR      r2,[r3,r1]
        0x00001b86:    6b22        "k      LDR      r2,[r4,#0x30]
        0x00001b88:    5050        PP      STR      r0,[r2,r1]
        0x00001b8a:    2200        ."      MOVS     r2,#0
        0x00001b8c:    1c40        @.      ADDS     r0,r0,#1
        0x00001b8e:    e015        ..      B        0x1bbc ; BsrCory + 328
        0x00001b90:    0081        ..      LSLS     r1,r0,#2
        0x00001b92:    6c26        &l      LDR      r6,[r4,#0x40]
        0x00001b94:    1949        I.      ADDS     r1,r1,r5
        0x00001b96:    6ca3        .l      LDR      r3,[r4,#0x48]
        0x00001b98:    6809        .h      LDR      r1,[r1,#0]
        0x00001b9a:    00b6        ..      LSLS     r6,r6,#2
        0x00001b9c:    5198        .Q      STR      r0,[r3,r6]
        0x00001b9e:    004b        K.      LSLS     r3,r1,#1
        0x00001ba0:    18ce        ..      ADDS     r6,r1,r3
        0x00001ba2:    9b00        ..      LDR      r3,[sp,#0]
        0x00001ba4:    434b        KC      MULS     r3,r1,r3
        0x00001ba6:    005b        [.      LSLS     r3,r3,#1
        0x00001ba8:    18f3        ..      ADDS     r3,r6,r3
        0x00001baa:    1818        ..      ADDS     r0,r3,r0
        0x00001bac:    6c63        cl      LDR      r3,[r4,#0x44]
        0x00001bae:    1c40        @.      ADDS     r0,r0,#1
        0x00001bb0:    1859        Y.      ADDS     r1,r3,r1
        0x00001bb2:    6461        ad      STR      r1,[r4,#0x44]
        0x00001bb4:    6c21        !l      LDR      r1,[r4,#0x40]
        0x00001bb6:    1c49        I.      ADDS     r1,r1,#1
        0x00001bb8:    1c52        R.      ADDS     r2,r2,#1
        0x00001bba:    6421        !d      STR      r1,[r4,#0x40]
        0x00001bbc:    4562        bE      CMP      r2,r12
        0x00001bbe:    dbe7        ..      BLT      0x1b90 ; BsrCory + 284
        0x00001bc0:    1c7f        ..      ADDS     r7,r7,#1
        0x00001bc2:    6ae1        .j      LDR      r1,[r4,#0x2c]
        0x00001bc4:    42b9        .B      CMP      r1,r7
        0x00001bc6:    dcd6        ..      BGT      0x1b76 ; BsrCory + 258
        0x00001bc8:    0080        ..      LSLS     r0,r0,#2
        0x00001bca:    62a5        .b      STR      r5,[r4,#0x28]
        0x00001bcc:    63a0        .c      STR      r0,[r4,#0x38]
        0x00001bce:    4620         F      MOV      r0,r4
        0x00001bd0:    bdf8        ..      POP      {r3-r7,pc}
    $d
        0x00001bd2:    0000        ..      DCW    0
        0x00001bd4:    00006574    te..    DCD    25972
    $t
    i.BsrCoty
    BsrCoty
        0x00001bd8:    b510        ..      PUSH     {r4,lr}
        0x00001bda:    0004        ..      MOVS     r4,r0
        0x00001bdc:    d009        ..      BEQ      0x1bf2 ; BsrCoty + 26
        0x00001bde:    6b21        !k      LDR      r1,[r4,#0x30]
        0x00001be0:    2900        .)      CMP      r1,#0
        0x00001be2:    d002        ..      BEQ      0x1bea ; BsrCoty + 18
        0x00001be4:    6820         h      LDR      r0,[r4,#0]
        0x00001be6:    f7fefe69    ..i.    BL       BsrAdam ; 0x8bc
        0x00001bea:    4621        !F      MOV      r1,r4
        0x00001bec:    6820         h      LDR      r0,[r4,#0]
        0x00001bee:    f7fefe65    ..e.    BL       BsrAdam ; 0x8bc
        0x00001bf2:    2000        .       MOVS     r0,#0
        0x00001bf4:    bd10        ..      POP      {r4,pc}
    i.BsrDale
    BsrDale
        0x00001bf6:    2800        .(      CMP      r0,#0
        0x00001bf8:    d005        ..      BEQ      0x1c06 ; BsrDale + 16
        0x00001bfa:    6c82        .l      LDR      r2,[r0,#0x48]
        0x00001bfc:    0089        ..      LSLS     r1,r1,#2
        0x00001bfe:    5851        QX      LDR      r1,[r2,r1]
        0x00001c00:    6a80        .j      LDR      r0,[r0,#0x28]
        0x00001c02:    0089        ..      LSLS     r1,r1,#2
        0x00001c04:    1840        @.      ADDS     r0,r0,r1
        0x00001c06:    4770        pG      BX       lr
    i.BsrDan
    BsrDan
        0x00001c08:    b510        ..      PUSH     {r4,lr}
        0x00001c0a:    2800        .(      CMP      r0,#0
        0x00001c0c:    d01f        ..      BEQ      0x1c4e ; BsrDan + 70
        0x00001c0e:    4a11        .J      LDR      r2,[pc,#68] ; [0x1c54] = 0x5555
        0x00001c10:    434a        JC      MULS     r2,r1,r2
        0x00001c12:    1413        ..      ASRS     r3,r2,#16
        0x00001c14:    6f82        .o      LDR      r2,[r0,#0x78]
        0x00001c16:    1a54        T.      SUBS     r4,r2,r1
        0x00001c18:    4602        .F      MOV      r2,r0
        0x00001c1a:    3280        .2      ADDS     r2,r2,#0x80
        0x00001c1c:    6094        .`      STR      r4,[r2,#8]
        0x00001c1e:    6fc4        .o      LDR      r4,[r0,#0x7c]
        0x00001c20:    18e4        ..      ADDS     r4,r4,r3
        0x00001c22:    60d4        .`      STR      r4,[r2,#0xc]
        0x00001c24:    6814        .h      LDR      r4,[r2,#0]
        0x00001c26:    1a64        d.      SUBS     r4,r4,r1
        0x00001c28:    6114        .a      STR      r4,[r2,#0x10]
        0x00001c2a:    6854        Th      LDR      r4,[r2,#4]
        0x00001c2c:    18e3        ..      ADDS     r3,r4,r3
        0x00001c2e:    6153        Sa      STR      r3,[r2,#0x14]
        0x00001c30:    2232        2"      MOVS     r2,#0x32
        0x00001c32:    6502        .e      STR      r2,[r0,#0x50]
        0x00001c34:    220a        ."      MOVS     r2,#0xa
        0x00001c36:    42d1        .B      CMN      r1,r2
        0x00001c38:    da07        ..      BGE      0x1c4a ; BsrDan + 66
        0x00001c3a:    310a        .1      ADDS     r1,r1,#0xa
        0x00001c3c:    4349        IC      MULS     r1,r1,r1
        0x00001c3e:    1189        ..      ASRS     r1,r1,#6
        0x00001c40:    2932        2)      CMP      r1,#0x32
        0x00001c42:    dd00        ..      BLE      0x1c46 ; BsrDan + 62
        0x00001c44:    2132        2!      MOVS     r1,#0x32
        0x00001c46:    3132        21      ADDS     r1,r1,#0x32
        0x00001c48:    6501        .e      STR      r1,[r0,#0x50]
        0x00001c4a:    2000        .       MOVS     r0,#0
        0x00001c4c:    bd10        ..      POP      {r4,pc}
        0x00001c4e:    2000        .       MOVS     r0,#0
        0x00001c50:    43c0        .C      MVNS     r0,r0
        0x00001c52:    bd10        ..      POP      {r4,pc}
    $d
        0x00001c54:    00005555    UU..    DCD    21845
    $t
    i.BsrDane
    BsrDane
        0x00001c58:    2800        .(      CMP      r0,#0
        0x00001c5a:    d000        ..      BEQ      0x1c5e ; BsrDane + 6
        0x00001c5c:    6ac0        .j      LDR      r0,[r0,#0x2c]
        0x00001c5e:    4770        pG      BX       lr
    i.BsrDawn
    BsrDawn
        0x00001c60:    2800        .(      CMP      r0,#0
        0x00001c62:    d000        ..      BEQ      0x1c66 ; BsrDawn + 6
        0x00001c64:    6bc0        .k      LDR      r0,[r0,#0x3c]
        0x00001c66:    4770        pG      BX       lr
    i.BsrDeja
    BsrDeja
        0x00001c68:    b5f0        ..      PUSH     {r4-r7,lr}
        0x00001c6a:    2800        .(      CMP      r0,#0
        0x00001c6c:    d01f        ..      BEQ      0x1cae ; BsrDeja + 70
        0x00001c6e:    2500        .%      MOVS     r5,#0
        0x00001c70:    277f        .'      MOVS     r7,#0x7f
        0x00001c72:    43ff        .C      MVNS     r7,r7
        0x00001c74:    e00e        ..      B        0x1c94 ; BsrDeja + 44
        0x00001c76:    6a44        Dj      LDR      r4,[r0,#0x24]
        0x00001c78:    00ab        ..      LSLS     r3,r5,#2
        0x00001c7a:    5ce6        .\      LDRB     r6,[r4,r3]
        0x00001c7c:    58cc        .X      LDR      r4,[r1,r3]
        0x00001c7e:    4134        4A      ASRS     r4,r4,r6
        0x00001c80:    50cc        .P      STR      r4,[r1,r3]
        0x00001c82:    2c7f        .,      CMP      r4,#0x7f
        0x00001c84:    dd02        ..      BLE      0x1c8c ; BsrDeja + 36
        0x00001c86:    247f        .$      MOVS     r4,#0x7f
        0x00001c88:    50cc        .P      STR      r4,[r1,r3]
        0x00001c8a:    e002        ..      B        0x1c92 ; BsrDeja + 42
        0x00001c8c:    42bc        .B      CMP      r4,r7
        0x00001c8e:    da00        ..      BGE      0x1c92 ; BsrDeja + 42
        0x00001c90:    50cf        .P      STR      r7,[r1,r3]
        0x00001c92:    1c6d        m.      ADDS     r5,r5,#1
        0x00001c94:    4295        .B      CMP      r5,r2
        0x00001c96:    dbee        ..      BLT      0x1c76 ; BsrDeja + 14
        0x00001c98:    2300        .#      MOVS     r3,#0
        0x00001c9a:    e005        ..      B        0x1ca8 ; BsrDeja + 64
        0x00001c9c:    009c        ..      LSLS     r4,r3,#2
        0x00001c9e:    590d        .Y      LDR      r5,[r1,r4]
        0x00001ca0:    7906        .y      LDRB     r6,[r0,#4]
        0x00001ca2:    40b5        .@      LSLS     r5,r5,r6
        0x00001ca4:    510d        .Q      STR      r5,[r1,r4]
        0x00001ca6:    1c5b        [.      ADDS     r3,r3,#1
        0x00001ca8:    4293        .B      CMP      r3,r2
        0x00001caa:    dbf7        ..      BLT      0x1c9c ; BsrDeja + 52
        0x00001cac:    4618        .F      MOV      r0,r3
        0x00001cae:    bdf0        ..      POP      {r4-r7,pc}
    i.BsrDemi
    BsrDemi
        0x00001cb0:    b5ff        ..      PUSH     {r0-r7,lr}
        0x00001cb2:    b085        ..      SUB      sp,sp,#0x14
        0x00001cb4:    0003        ..      MOVS     r3,r0
        0x00001cb6:    d01a        ..      BEQ      0x1cee ; BsrDemi + 62
        0x00001cb8:    f7ffff9d    ....    BL       BsrDale ; 0x1bf6
        0x00001cbc:    4927        'I      LDR      r1,[pc,#156] ; [0x1d5c] = 0x7fffffff
        0x00001cbe:    6806        .h      LDR      r6,[r0,#0]
        0x00001cc0:    9102        ..      STR      r1,[sp,#8]
        0x00001cc2:    2200        ."      MOVS     r2,#0
        0x00001cc4:    990e        ..      LDR      r1,[sp,#0x38]
        0x00001cc6:    43d2        .C      MVNS     r2,r2
        0x00001cc8:    600a        .`      STR      r2,[r1,#0]
        0x00001cca:    6859        Yh      LDR      r1,[r3,#4]
        0x00001ccc:    691a        .i      LDR      r2,[r3,#0x10]
        0x00001cce:    468e        .F      MOV      lr,r1
        0x00001cd0:    6899        .h      LDR      r1,[r3,#8]
        0x00001cd2:    1a89        ..      SUBS     r1,r1,r2
        0x00001cd4:    9104        ..      STR      r1,[sp,#0x10]
        0x00001cd6:    00f1        ..      LSLS     r1,r6,#3
        0x00001cd8:    1808        ..      ADDS     r0,r1,r0
        0x00001cda:    1d00        ..      ADDS     r0,r0,#4
        0x00001cdc:    00b1        ..      LSLS     r1,r6,#2
        0x00001cde:    9003        ..      STR      r0,[sp,#0xc]
        0x00001ce0:    1808        ..      ADDS     r0,r1,r0
        0x00001ce2:    4684        .F      MOV      r12,r0
        0x00001ce4:    9808        ..      LDR      r0,[sp,#0x20]
        0x00001ce6:    2100        .!      MOVS     r1,#0
        0x00001ce8:    0080        ..      LSLS     r0,r0,#2
        0x00001cea:    9001        ..      STR      r0,[sp,#4]
        0x00001cec:    e02e        ..      B        0x1d4c ; BsrDemi + 156
        0x00001cee:    481c        .H      LDR      r0,[pc,#112] ; [0x1d60] = 0xffd23940
        0x00001cf0:    b009        ..      ADD      sp,sp,#0x24
        0x00001cf2:    bdf0        ..      POP      {r4-r7,pc}
        0x00001cf4:    9801        ..      LDR      r0,[sp,#4]
        0x00001cf6:    2400        .$      MOVS     r4,#0
        0x00001cf8:    4460        `D      ADD      r0,r0,r12
        0x00001cfa:    4622        "F      MOV      r2,r4
        0x00001cfc:    9000        ..      STR      r0,[sp,#0]
        0x00001cfe:    e010        ..      B        0x1d22 ; BsrDemi + 114
        0x00001d00:    0097        ..      LSLS     r7,r2,#2
        0x00001d02:    9807        ..      LDR      r0,[sp,#0x1c]
        0x00001d04:    4665        eF      MOV      r5,r12
        0x00001d06:    59c0        .Y      LDR      r0,[r0,r7]
        0x00001d08:    59ed        .Y      LDR      r5,[r5,r7]
        0x00001d0a:    1b40        @.      SUBS     r0,r0,r5
        0x00001d0c:    4340        @C      MULS     r0,r0,r0
        0x00001d0e:    4675        uF      MOV      r5,lr
        0x00001d10:    40e8        .@      LSRS     r0,r0,r5
        0x00001d12:    4605        .F      MOV      r5,r0
        0x00001d14:    9800        ..      LDR      r0,[sp,#0]
        0x00001d16:    59c7        .Y      LDR      r7,[r0,r7]
        0x00001d18:    436f        oC      MULS     r7,r5,r7
        0x00001d1a:    4675        uF      MOV      r5,lr
        0x00001d1c:    40ef        .@      LSRS     r7,r7,r5
        0x00001d1e:    193c        <.      ADDS     r4,r7,r4
        0x00001d20:    1c52        R.      ADDS     r2,r2,#1
        0x00001d22:    9808        ..      LDR      r0,[sp,#0x20]
        0x00001d24:    4282        .B      CMP      r2,r0
        0x00001d26:    dbeb        ..      BLT      0x1d00 ; BsrDemi + 80
        0x00001d28:    9804        ..      LDR      r0,[sp,#0x10]
        0x00001d2a:    1c40        @.      ADDS     r0,r0,#1
        0x00001d2c:    40c4        .@      LSRS     r4,r4,r0
        0x00001d2e:    9803        ..      LDR      r0,[sp,#0xc]
        0x00001d30:    008a        ..      LSLS     r2,r1,#2
        0x00001d32:    5880        .X      LDR      r0,[r0,r2]
        0x00001d34:    9a02        ..      LDR      r2,[sp,#8]
        0x00001d36:    1820         .      ADDS     r0,r4,r0
        0x00001d38:    4290        .B      CMP      r0,r2
        0x00001d3a:    d202        ..      BCS      0x1d42 ; BsrDemi + 146
        0x00001d3c:    9002        ..      STR      r0,[sp,#8]
        0x00001d3e:    980e        ..      LDR      r0,[sp,#0x38]
        0x00001d40:    6001        .`      STR      r1,[r0,#0]
        0x00001d42:    9a00        ..      LDR      r2,[sp,#0]
        0x00001d44:    9801        ..      LDR      r0,[sp,#4]
        0x00001d46:    1880        ..      ADDS     r0,r0,r2
        0x00001d48:    4684        .F      MOV      r12,r0
        0x00001d4a:    1c49        I.      ADDS     r1,r1,#1
        0x00001d4c:    42b1        .B      CMP      r1,r6
        0x00001d4e:    dbd1        ..      BLT      0x1cf4 ; BsrDemi + 68
        0x00001d50:    7c19        .|      LDRB     r1,[r3,#0x10]
        0x00001d52:    9802        ..      LDR      r0,[sp,#8]
        0x00001d54:    40c8        .@      LSRS     r0,r0,r1
        0x00001d56:    4240        @B      RSBS     r0,r0,#0
        0x00001d58:    e7ca        ..      B        0x1cf0 ; BsrDemi + 64
    $d
        0x00001d5a:    0000        ..      DCW    0
        0x00001d5c:    7fffffff    ....    DCD    2147483647
        0x00001d60:    ffd23940    @9..    DCD    4291967296
    $t
    i.BsrDeon
    BsrDeon
        0x00001d64:    b5f3        ..      PUSH     {r0,r1,r4-r7,lr}
        0x00001d66:    b093        ..      SUB      sp,sp,#0x4c
        0x00001d68:    0002        ..      MOVS     r2,r0
        0x00001d6a:    9010        ..      STR      r0,[sp,#0x40]
        0x00001d6c:    d012        ..      BEQ      0x1d94 ; BsrDeon + 48
        0x00001d6e:    4610        .F      MOV      r0,r2
        0x00001d70:    f7ffff76    ..v.    BL       BsrDawn ; 0x1c60
        0x00001d74:    4604        .F      MOV      r4,r0
        0x00001d76:    2100        .!      MOVS     r1,#0
        0x00001d78:    4610        .F      MOV      r0,r2
        0x00001d7a:    f7ffff3c    ..<.    BL       BsrDale ; 0x1bf6
        0x00001d7e:    9005        ..      STR      r0,[sp,#0x14]
        0x00001d80:    c820         .      LDM      r0!,{r5}
        0x00001d82:    22ff        ."      MOVS     r2,#0xff
        0x00001d84:    ab06        ..      ADD      r3,sp,#0x18
        0x00001d86:    3201        .2      ADDS     r2,#1
        0x00001d88:    4629        )F      MOV      r1,r5
        0x00001d8a:    f000fe4e    ..N.    BL       BsrJami ; 0x2a2a
        0x00001d8e:    2000        .       MOVS     r0,#0
        0x00001d90:    4601        .F      MOV      r1,r0
        0x00001d92:    e006        ..      B        0x1da2 ; BsrDeon + 62
        0x00001d94:    2000        .       MOVS     r0,#0
        0x00001d96:    b015        ..      ADD      sp,sp,#0x54
        0x00001d98:    bdf0        ..      POP      {r4-r7,pc}
        0x00001d9a:    0083        ..      LSLS     r3,r0,#2
        0x00001d9c:    9a14        ..      LDR      r2,[sp,#0x50]
        0x00001d9e:    1c40        @.      ADDS     r0,r0,#1
        0x00001da0:    50d1        .P      STR      r1,[r2,r3]
        0x00001da2:    42a0        .B      CMP      r0,r4
        0x00001da4:    dbf9        ..      BLT      0x1d9a ; BsrDeon + 54
        0x00001da6:    2000        .       MOVS     r0,#0
        0x00001da8:    e026        &.      B        0x1df8 ; BsrDeon + 148
        0x00001daa:    006b        k.      LSLS     r3,r5,#1
        0x00001dac:    2100        .!      MOVS     r1,#0
        0x00001dae:    18eb        ..      ADDS     r3,r5,r3
        0x00001db0:    469e        .F      MOV      lr,r3
        0x00001db2:    460a        .F      MOV      r2,r1
        0x00001db4:    0083        ..      LSLS     r3,r0,#2
        0x00001db6:    e011        ..      B        0x1ddc ; BsrDeon + 120
        0x00001db8:    4617        .F      MOV      r7,r2
        0x00001dba:    4367        gC      MULS     r7,r4,r7
        0x00001dbc:    4676        vF      MOV      r6,lr
        0x00001dbe:    007f        ..      LSLS     r7,r7,#1
        0x00001dc0:    19f6        ..      ADDS     r6,r6,r7
        0x00001dc2:    9f05        ..      LDR      r7,[sp,#0x14]
        0x00001dc4:    00b6        ..      LSLS     r6,r6,#2
        0x00001dc6:    19f6        ..      ADDS     r6,r6,r7
        0x00001dc8:    1d36        6.      ADDS     r6,r6,#4
        0x00001dca:    46b4        .F      MOV      r12,r6
        0x00001dcc:    0096        ..      LSLS     r6,r2,#2
        0x00001dce:    af06        ..      ADD      r7,sp,#0x18
        0x00001dd0:    59bf        .Y      LDR      r7,[r7,r6]
        0x00001dd2:    4666        fF      MOV      r6,r12
        0x00001dd4:    58f6        .X      LDR      r6,[r6,r3]
        0x00001dd6:    4377        wC      MULS     r7,r6,r7
        0x00001dd8:    1879        y.      ADDS     r1,r7,r1
        0x00001dda:    1c52        R.      ADDS     r2,r2,#1
        0x00001ddc:    42aa        .B      CMP      r2,r5
        0x00001dde:    dbeb        ..      BLT      0x1db8 ; BsrDeon + 84
        0x00001de0:    9a10        ..      LDR      r2,[sp,#0x40]
        0x00001de2:    6952        Ri      LDR      r2,[r2,#0x14]
        0x00001de4:    1851        Q.      ADDS     r1,r2,r1
        0x00001de6:    9a10        ..      LDR      r2,[sp,#0x40]
        0x00001de8:    7912        .y      LDRB     r2,[r2,#4]
        0x00001dea:    4111        .A      ASRS     r1,r1,r2
        0x00001dec:    9a14        ..      LDR      r2,[sp,#0x50]
        0x00001dee:    58d2        .X      LDR      r2,[r2,r3]
        0x00001df0:    188a        ..      ADDS     r2,r1,r2
        0x00001df2:    9914        ..      LDR      r1,[sp,#0x50]
        0x00001df4:    1c40        @.      ADDS     r0,r0,#1
        0x00001df6:    50ca        .P      STR      r2,[r1,r3]
        0x00001df8:    42a0        .B      CMP      r0,r4
        0x00001dfa:    dbd6        ..      BLT      0x1daa ; BsrDeon + 70
        0x00001dfc:    2000        .       MOVS     r0,#0
        0x00001dfe:    2308        .#      MOVS     r3,#8
        0x00001e00:    e013        ..      B        0x1e2a ; BsrDeon + 198
        0x00001e02:    9910        ..      LDR      r1,[sp,#0x40]
        0x00001e04:    6a4a        Jj      LDR      r2,[r1,#0x24]
        0x00001e06:    0081        ..      LSLS     r1,r0,#2
        0x00001e08:    5852        RX      LDR      r2,[r2,r1]
        0x00001e0a:    2a08        .*      CMP      r2,#8
        0x00001e0c:    da06        ..      BGE      0x1e1c ; BsrDeon + 184
        0x00001e0e:    1a9d        ..      SUBS     r5,r3,r2
        0x00001e10:    9a14        ..      LDR      r2,[sp,#0x50]
        0x00001e12:    5852        RX      LDR      r2,[r2,r1]
        0x00001e14:    412a        *A      ASRS     r2,r2,r5
        0x00001e16:    9d14        ..      LDR      r5,[sp,#0x50]
        0x00001e18:    506a        jP      STR      r2,[r5,r1]
        0x00001e1a:    e005        ..      B        0x1e28 ; BsrDeon + 196
        0x00001e1c:    9d14        ..      LDR      r5,[sp,#0x50]
        0x00001e1e:    3a08        .:      SUBS     r2,r2,#8
        0x00001e20:    586d        mX      LDR      r5,[r5,r1]
        0x00001e22:    4095        .@      LSLS     r5,r5,r2
        0x00001e24:    9a14        ..      LDR      r2,[sp,#0x50]
        0x00001e26:    5055        UP      STR      r5,[r2,r1]
        0x00001e28:    1c40        @.      ADDS     r0,r0,#1
        0x00001e2a:    42a0        .B      CMP      r0,r4
        0x00001e2c:    dbe9        ..      BLT      0x1e02 ; BsrDeon + 158
        0x00001e2e:    4620         F      MOV      r0,r4
        0x00001e30:    e7b1        ..      B        0x1d96 ; BsrDeon + 50
    i.BsrDina
    BsrDina
        0x00001e32:    b5f7        ..      PUSH     {r0-r2,r4-r7,lr}
        0x00001e34:    b096        ..      SUB      sp,sp,#0x58
        0x00001e36:    9816        ..      LDR      r0,[sp,#0x58]
        0x00001e38:    4614        .F      MOV      r4,r2
        0x00001e3a:    9012        ..      STR      r0,[sp,#0x48]
        0x00001e3c:    2800        .(      CMP      r0,#0
        0x00001e3e:    d072        r.      BEQ      0x1f26 ; BsrDina + 244
        0x00001e40:    9816        ..      LDR      r0,[sp,#0x58]
        0x00001e42:    f7ffff0d    ....    BL       BsrDawn ; 0x1c60
        0x00001e46:    4605        .F      MOV      r5,r0
        0x00001e48:    2001        .       MOVS     r0,#1
        0x00001e4a:    9013        ..      STR      r0,[sp,#0x4c]
        0x00001e4c:    9004        ..      STR      r0,[sp,#0x10]
        0x00001e4e:    2000        .       MOVS     r0,#0
        0x00001e50:    4601        .F      MOV      r1,r0
        0x00001e52:    e002        ..      B        0x1e5a ; BsrDina + 40
        0x00001e54:    0082        ..      LSLS     r2,r0,#2
        0x00001e56:    50a1        .P      STR      r1,[r4,r2]
        0x00001e58:    1c40        @.      ADDS     r0,r0,#1
        0x00001e5a:    42a8        .B      CMP      r0,r5
        0x00001e5c:    dbfa        ..      BLT      0x1e54 ; BsrDina + 34
        0x00001e5e:    2000        .       MOVS     r0,#0
        0x00001e60:    9005        ..      STR      r0,[sp,#0x14]
        0x00001e62:    0081        ..      LSLS     r1,r0,#2
        0x00001e64:    a813        ..      ADD      r0,sp,#0x4c
        0x00001e66:    5841        AX      LDR      r1,[r0,r1]
        0x00001e68:    9816        ..      LDR      r0,[sp,#0x58]
        0x00001e6a:    f7fffec4    ....    BL       BsrDale ; 0x1bf6
        0x00001e6e:    9007        ..      STR      r0,[sp,#0x1c]
        0x00001e70:    c840        @.      LDM      r0!,{r6}
        0x00001e72:    22ff        ."      MOVS     r2,#0xff
        0x00001e74:    ab0a        ..      ADD      r3,sp,#0x28
        0x00001e76:    3201        .2      ADDS     r2,#1
        0x00001e78:    4631        1F      MOV      r1,r6
        0x00001e7a:    f000fdd6    ....    BL       BsrJami ; 0x2a2a
        0x00001e7e:    2100        .!      MOVS     r1,#0
        0x00001e80:    e029        ).      B        0x1ed6 ; BsrDina + 164
        0x00001e82:    0072        r.      LSLS     r2,r6,#1
        0x00001e84:    2000        .       MOVS     r0,#0
        0x00001e86:    18b2        ..      ADDS     r2,r6,r2
        0x00001e88:    9208        ..      STR      r2,[sp,#0x20]
        0x00001e8a:    008a        ..      LSLS     r2,r1,#2
        0x00001e8c:    4684        .F      MOV      r12,r0
        0x00001e8e:    4696        .F      MOV      lr,r2
        0x00001e90:    e012        ..      B        0x1eb8 ; BsrDina + 134
        0x00001e92:    4607        .F      MOV      r7,r0
        0x00001e94:    436f        oC      MULS     r7,r5,r7
        0x00001e96:    9b08        ..      LDR      r3,[sp,#0x20]
        0x00001e98:    007f        ..      LSLS     r7,r7,#1
        0x00001e9a:    19da        ..      ADDS     r2,r3,r7
        0x00001e9c:    0097        ..      LSLS     r7,r2,#2
        0x00001e9e:    9b07        ..      LDR      r3,[sp,#0x1c]
        0x00001ea0:    0082        ..      LSLS     r2,r0,#2
        0x00001ea2:    18fb        ..      ADDS     r3,r7,r3
        0x00001ea4:    af0a        ..      ADD      r7,sp,#0x28
        0x00001ea6:    58bf        .X      LDR      r7,[r7,r2]
        0x00001ea8:    4672        rF      MOV      r2,lr
        0x00001eaa:    1d1b        ..      ADDS     r3,r3,#4
        0x00001eac:    589b        .X      LDR      r3,[r3,r2]
        0x00001eae:    4662        bF      MOV      r2,r12
        0x00001eb0:    435f        _C      MULS     r7,r3,r7
        0x00001eb2:    18ba        ..      ADDS     r2,r7,r2
        0x00001eb4:    4694        .F      MOV      r12,r2
        0x00001eb6:    1c40        @.      ADDS     r0,r0,#1
        0x00001eb8:    42b0        .B      CMP      r0,r6
        0x00001eba:    dbea        ..      BLT      0x1e92 ; BsrDina + 96
        0x00001ebc:    9812        ..      LDR      r0,[sp,#0x48]
        0x00001ebe:    6942        Bi      LDR      r2,[r0,#0x14]
        0x00001ec0:    4660        `F      MOV      r0,r12
        0x00001ec2:    1810        ..      ADDS     r0,r2,r0
        0x00001ec4:    9a12        ..      LDR      r2,[sp,#0x48]
        0x00001ec6:    7912        .y      LDRB     r2,[r2,#4]
        0x00001ec8:    4110        .A      ASRS     r0,r0,r2
        0x00001eca:    4672        rF      MOV      r2,lr
        0x00001ecc:    58a2        .X      LDR      r2,[r4,r2]
        0x00001ece:    1882        ..      ADDS     r2,r0,r2
        0x00001ed0:    4670        pF      MOV      r0,lr
        0x00001ed2:    5022        "P      STR      r2,[r4,r0]
        0x00001ed4:    1c49        I.      ADDS     r1,r1,#1
        0x00001ed6:    42a9        .B      CMP      r1,r5
        0x00001ed8:    dbd3        ..      BLT      0x1e82 ; BsrDina + 80
        0x00001eda:    9805        ..      LDR      r0,[sp,#0x14]
        0x00001edc:    9904        ..      LDR      r1,[sp,#0x10]
        0x00001ede:    1c40        @.      ADDS     r0,r0,#1
        0x00001ee0:    9005        ..      STR      r0,[sp,#0x14]
        0x00001ee2:    4288        .B      CMP      r0,r1
        0x00001ee4:    dbbd        ..      BLT      0x1e62 ; BsrDina + 48
        0x00001ee6:    2600        .&      MOVS     r6,#0
        0x00001ee8:    e006        ..      B        0x1ef8 ; BsrDina + 198
        0x00001eea:    00b7        ..      LSLS     r7,r6,#2
        0x00001eec:    59e0        .Y      LDR      r0,[r4,r7]
        0x00001eee:    9904        ..      LDR      r1,[sp,#0x10]
        0x00001ef0:    f7fef992    ....    BL       __aeabi_idiv ; 0x218
        0x00001ef4:    51e0        .Q      STR      r0,[r4,r7]
        0x00001ef6:    1c76        v.      ADDS     r6,r6,#1
        0x00001ef8:    42ae        .B      CMP      r6,r5
        0x00001efa:    dbf6        ..      BLT      0x1eea ; BsrDina + 184
        0x00001efc:    2000        .       MOVS     r0,#0
        0x00001efe:    2308        .#      MOVS     r3,#8
        0x00001f00:    e00e        ..      B        0x1f20 ; BsrDina + 238
        0x00001f02:    9912        ..      LDR      r1,[sp,#0x48]
        0x00001f04:    6a4a        Jj      LDR      r2,[r1,#0x24]
        0x00001f06:    0081        ..      LSLS     r1,r0,#2
        0x00001f08:    5852        RX      LDR      r2,[r2,r1]
        0x00001f0a:    2a08        .*      CMP      r2,#8
        0x00001f0c:    da03        ..      BGE      0x1f16 ; BsrDina + 228
        0x00001f0e:    5866        fX      LDR      r6,[r4,r1]
        0x00001f10:    1a9a        ..      SUBS     r2,r3,r2
        0x00001f12:    4116        .A      ASRS     r6,r6,r2
        0x00001f14:    e002        ..      B        0x1f1c ; BsrDina + 234
        0x00001f16:    5866        fX      LDR      r6,[r4,r1]
        0x00001f18:    3a08        .:      SUBS     r2,r2,#8
        0x00001f1a:    4096        .@      LSLS     r6,r6,r2
        0x00001f1c:    5066        fP      STR      r6,[r4,r1]
        0x00001f1e:    1c40        @.      ADDS     r0,r0,#1
        0x00001f20:    42a8        .B      CMP      r0,r5
        0x00001f22:    dbee        ..      BLT      0x1f02 ; BsrDina + 208
        0x00001f24:    4628        (F      MOV      r0,r5
        0x00001f26:    b019        ..      ADD      sp,sp,#0x64
        0x00001f28:    bdf0        ..      POP      {r4-r7,pc}
        0x00001f2a:    0000        ..      MOVS     r0,r0
    i.BsrDion
    BsrDion
        0x00001f2c:    b5f0        ..      PUSH     {r4-r7,lr}
        0x00001f2e:    b087        ..      SUB      sp,sp,#0x1c
        0x00001f30:    461d        .F      MOV      r5,r3
        0x00001f32:    4616        .F      MOV      r6,r2
        0x00001f34:    460f        .F      MOV      r7,r1
        0x00001f36:    0004        ..      MOVS     r4,r0
        0x00001f38:    d005        ..      BEQ      0x1f46 ; BsrDion + 26
        0x00001f3a:    2208        ."      MOVS     r2,#8
        0x00001f3c:    4918        .I      LDR      r1,[pc,#96] ; [0x1fa0] = 0x6574
        0x00001f3e:    f001f9ea    ....    BL       BsrJosh ; 0x3316
        0x00001f42:    2800        .(      CMP      r0,#0
        0x00001f44:    d002        ..      BEQ      0x1f4c ; BsrDion + 32
        0x00001f46:    2000        .       MOVS     r0,#0
        0x00001f48:    b007        ..      ADD      sp,sp,#0x1c
        0x00001f4a:    bdf0        ..      POP      {r4-r7,pc}
        0x00001f4c:    4620         F      MOV      r0,r4
        0x00001f4e:    3008        .0      ADDS     r0,r0,#8
        0x00001f50:    68a4        .h      LDR      r4,[r4,#8]
        0x00001f52:    6841        Ah      LDR      r1,[r0,#4]
        0x00001f54:    9105        ..      STR      r1,[sp,#0x14]
        0x00001f56:    aa04        ..      ADD      r2,sp,#0x10
        0x00001f58:    a902        ..      ADD      r1,sp,#8
        0x00001f5a:    f000fd2b    ..+.    BL       BsrJade ; 0x29b4
        0x00001f5e:    00a1        ..      LSLS     r1,r4,#2
        0x00001f60:    4608        .F      MOV      r0,r1
        0x00001f62:    304c        L0      ADDS     r0,r0,#0x4c
        0x00001f64:    1808        ..      ADDS     r0,r1,r0
        0x00001f66:    9902        ..      LDR      r1,[sp,#8]
        0x00001f68:    0089        ..      LSLS     r1,r1,#2
        0x00001f6a:    1808        ..      ADDS     r0,r1,r0
        0x00001f6c:    9000        ..      STR      r0,[sp,#0]
        0x00001f6e:    f001fde8    ....    BL       BsrZoe ; 0x3b42
        0x00001f72:    0041        A.      LSLS     r1,r0,#1
        0x00001f74:    9800        ..      LDR      r0,[sp,#0]
        0x00001f76:    1808        ..      ADDS     r0,r1,r0
        0x00001f78:    1cc0        ..      ADDS     r0,r0,#3
        0x00001f7a:    0880        ..      LSRS     r0,r0,#2
        0x00001f7c:    0080        ..      LSLS     r0,r0,#2
        0x00001f7e:    2f00        ./      CMP      r7,#0
        0x00001f80:    d001        ..      BEQ      0x1f86 ; BsrDion + 90
        0x00001f82:    9905        ..      LDR      r1,[sp,#0x14]
        0x00001f84:    6039        9`      STR      r1,[r7,#0]
        0x00001f86:    2e00        ..      CMP      r6,#0
        0x00001f88:    d000        ..      BEQ      0x1f8c ; BsrDion + 96
        0x00001f8a:    6034        4`      STR      r4,[r6,#0]
        0x00001f8c:    2d00        .-      CMP      r5,#0
        0x00001f8e:    d001        ..      BEQ      0x1f94 ; BsrDion + 104
        0x00001f90:    9902        ..      LDR      r1,[sp,#8]
        0x00001f92:    6029        )`      STR      r1,[r5,#0]
        0x00001f94:    990c        ..      LDR      r1,[sp,#0x30]
        0x00001f96:    2900        .)      CMP      r1,#0
        0x00001f98:    d0d6        ..      BEQ      0x1f48 ; BsrDion + 28
        0x00001f9a:    9a04        ..      LDR      r2,[sp,#0x10]
        0x00001f9c:    600a        .`      STR      r2,[r1,#0]
        0x00001f9e:    e7d3        ..      B        0x1f48 ; BsrDion + 28
    $d
        0x00001fa0:    00006574    te..    DCD    25972
    $t
    i.BsrEden
    BsrEden
        0x00001fa4:    b5ff        ..      PUSH     {r0-r7,lr}
        0x00001fa6:    b083        ..      SUB      sp,sp,#0xc
        0x00001fa8:    4604        .F      MOV      r4,r0
        0x00001faa:    468c        .F      MOV      r12,r1
        0x00001fac:    980c        ..      LDR      r0,[sp,#0x30]
        0x00001fae:    2104        .!      MOVS     r1,#4
        0x00001fb0:    1a0a        ..      SUBS     r2,r1,r0
        0x00001fb2:    0792        ..      LSLS     r2,r2,#30
        0x00001fb4:    0f92        ..      LSRS     r2,r2,#30
        0x00001fb6:    1810        ..      ADDS     r0,r2,r0
        0x00001fb8:    6822        "h      LDR      r2,[r4,#0]
        0x00001fba:    0092        ..      LSLS     r2,r2,#2
        0x00001fbc:    1810        ..      ADDS     r0,r2,r0
        0x00001fbe:    1d00        ..      ADDS     r0,r0,#4
        0x00001fc0:    1a0b        ..      SUBS     r3,r1,r0
        0x00001fc2:    079b        ..      LSLS     r3,r3,#30
        0x00001fc4:    1a87        ..      SUBS     r7,r0,r2
        0x00001fc6:    0f9b        ..      LSRS     r3,r3,#30
        0x00001fc8:    1818        ..      ADDS     r0,r3,r0
        0x00001fca:    1810        ..      ADDS     r0,r2,r0
        0x00001fcc:    1d00        ..      ADDS     r0,r0,#4
        0x00001fce:    1a82        ..      SUBS     r2,r0,r2
        0x00001fd0:    1f12        ..      SUBS     r2,r2,#4
        0x00001fd2:    9201        ..      STR      r2,[sp,#4]
        0x00001fd4:    1a0a        ..      SUBS     r2,r1,r0
        0x00001fd6:    0792        ..      LSLS     r2,r2,#30
        0x00001fd8:    0f92        ..      LSRS     r2,r2,#30
        0x00001fda:    1810        ..      ADDS     r0,r2,r0
        0x00001fdc:    4606        .F      MOV      r6,r0
        0x00001fde:    305c        \0      ADDS     r0,r0,#0x5c
        0x00001fe0:    1a0a        ..      SUBS     r2,r1,r0
        0x00001fe2:    0792        ..      LSLS     r2,r2,#30
        0x00001fe4:    0f92        ..      LSRS     r2,r2,#30
        0x00001fe6:    1810        ..      ADDS     r0,r2,r0
        0x00001fe8:    9000        ..      STR      r0,[sp,#0]
        0x00001fea:    305c        \0      ADDS     r0,r0,#0x5c
        0x00001fec:    1a09        ..      SUBS     r1,r1,r0
        0x00001fee:    0789        ..      LSLS     r1,r1,#30
        0x00001ff0:    0f89        ..      LSRS     r1,r1,#30
        0x00001ff2:    180d        ..      ADDS     r5,r1,r0
        0x00001ff4:    2000        .       MOVS     r0,#0
        0x00001ff6:    1f3f        ?.      SUBS     r7,r7,#4
        0x00001ff8:    e005        ..      B        0x2006 ; BsrEden + 98
        0x00001ffa:    0041        A.      LSLS     r1,r0,#1
        0x00001ffc:    4662        bF      MOV      r2,r12
        0x00001ffe:    5e51        Q^      LDRSH    r1,[r2,r1]
        0x00002000:    0082        ..      LSLS     r2,r0,#2
        0x00002002:    50b9        .P      STR      r1,[r7,r2]
        0x00002004:    1c40        @.      ADDS     r0,r0,#1
        0x00002006:    6821        !h      LDR      r1,[r4,#0]
        0x00002008:    4281        .B      CMP      r1,r0
        0x0000200a:    dcf6        ..      BGT      0x1ffa ; BsrEden + 86
        0x0000200c:    4639        9F      MOV      r1,r7
        0x0000200e:    4620         F      MOV      r0,r4
        0x00002010:    9a06        ..      LDR      r2,[sp,#0x18]
        0x00002012:    f000fc1f    ....    BL       BsrIrma ; 0x2854
        0x00002016:    4639        9F      MOV      r1,r7
        0x00002018:    4620         F      MOV      r0,r4
        0x0000201a:    9a06        ..      LDR      r2,[sp,#0x18]
        0x0000201c:    f000fbfe    ....    BL       BsrIris ; 0x281c
        0x00002020:    4638        8F      MOV      r0,r7
        0x00002022:    6821        !h      LDR      r1,[r4,#0]
        0x00002024:    f000fbd8    ....    BL       BsrHugo ; 0x27d8
        0x00002028:    4638        8F      MOV      r0,r7
        0x0000202a:    69a2        .i      LDR      r2,[r4,#0x18]
        0x0000202c:    6821        !h      LDR      r1,[r4,#0]
        0x0000202e:    f000fc3b    ..;.    BL       BsrIsai ; 0x28a8
        0x00002032:    6820         h      LDR      r0,[r4,#0]
        0x00002034:    2100        .!      MOVS     r1,#0
        0x00002036:    0082        ..      LSLS     r2,r0,#2
        0x00002038:    9801        ..      LDR      r0,[sp,#4]
        0x0000203a:    f001f950    ..P.    BL       BsrJohn ; 0x32de
        0x0000203e:    6822        "h      LDR      r2,[r4,#0]
        0x00002040:    4638        8F      MOV      r0,r7
        0x00002042:    9901        ..      LDR      r1,[sp,#4]
        0x00002044:    f000fb30    ..0.    BL       BsrGreg ; 0x26a8
        0x00002048:    463b        ;F      MOV      r3,r7
        0x0000204a:    6822        "h      LDR      r2,[r4,#0]
        0x0000204c:    4618        .F      MOV      r0,r3
        0x0000204e:    9901        ..      LDR      r1,[sp,#4]
        0x00002050:    f000f9cc    ....    BL       BsrEric ; 0x23ec
        0x00002054:    9001        ..      STR      r0,[sp,#4]
        0x00002056:    4601        .F      MOV      r1,r0
        0x00002058:    4638        8F      MOV      r0,r7
        0x0000205a:    6922        "i      LDR      r2,[r4,#0x10]
        0x0000205c:    f000fa61    ..a.    BL       BsrErin ; 0x2522
        0x00002060:    6962        bi      LDR      r2,[r4,#0x14]
        0x00002062:    4638        8F      MOV      r0,r7
        0x00002064:    9901        ..      LDR      r1,[sp,#4]
        0x00002066:    f000fada    ....    BL       BsrEvan ; 0x261e
        0x0000206a:    4633        3F      MOV      r3,r6
        0x0000206c:    4639        9F      MOV      r1,r7
        0x0000206e:    4620         F      MOV      r0,r4
        0x00002070:    9a01        ..      LDR      r2,[sp,#4]
        0x00002072:    f000f979    ..y.    BL       BsrEmma ; 0x2368
        0x00002076:    4607        .F      MOV      r7,r0
        0x00002078:    4601        .F      MOV      r1,r0
        0x0000207a:    4630        0F      MOV      r0,r6
        0x0000207c:    9a00        ..      LDR      r2,[sp,#0]
        0x0000207e:    f000fa39    ..9.    BL       BsrErik ; 0x24f4
        0x00002082:    462a        *F      MOV      r2,r5
        0x00002084:    4639        9F      MOV      r1,r7
        0x00002086:    68a3        .h      LDR      r3,[r4,#8]
        0x00002088:    9800        ..      LDR      r0,[sp,#0]
        0x0000208a:    f000fadb    ....    BL       BsrGary ; 0x2644
        0x0000208e:    9805        ..      LDR      r0,[sp,#0x14]
        0x00002090:    6829        )h      LDR      r1,[r5,#0]
        0x00002092:    6001        .`      STR      r1,[r0,#0]
        0x00002094:    4b0b        .K      LDR      r3,[pc,#44] ; [0x20c4] = 0x7fff
        0x00002096:    2001        .       MOVS     r0,#1
        0x00002098:    43da        .C      MVNS     r2,r3
        0x0000209a:    e00c        ..      B        0x20b6 ; BsrEden + 274
        0x0000209c:    0081        ..      LSLS     r1,r0,#2
        0x0000209e:    586e        nX      LDR      r6,[r5,r1]
        0x000020a0:    429e        .B      CMP      r6,r3
        0x000020a2:    dd01        ..      BLE      0x20a8 ; BsrEden + 260
        0x000020a4:    506b        kP      STR      r3,[r5,r1]
        0x000020a6:    e002        ..      B        0x20ae ; BsrEden + 266
        0x000020a8:    4296        .B      CMP      r6,r2
        0x000020aa:    da00        ..      BGE      0x20ae ; BsrEden + 266
        0x000020ac:    506a        jP      STR      r2,[r5,r1]
        0x000020ae:    9f05        ..      LDR      r7,[sp,#0x14]
        0x000020b0:    586e        nX      LDR      r6,[r5,r1]
        0x000020b2:    507e        ~P      STR      r6,[r7,r1]
        0x000020b4:    1c40        @.      ADDS     r0,r0,#1
        0x000020b6:    68a1        .h      LDR      r1,[r4,#8]
        0x000020b8:    4281        .B      CMP      r1,r0
        0x000020ba:    daef        ..      BGE      0x209c ; BsrEden + 248
        0x000020bc:    1c48        H.      ADDS     r0,r1,#1
        0x000020be:    b007        ..      ADD      sp,sp,#0x1c
        0x000020c0:    bdf0        ..      POP      {r4-r7,pc}
    $d
        0x000020c2:    0000        ..      DCW    0
        0x000020c4:    00007fff    ....    DCD    32767
    $t
    i.BsrEli
    BsrEli
        0x000020c8:    b530        0.      PUSH     {r4,r5,lr}
        0x000020ca:    9d03        ..      LDR      r5,[sp,#0xc]
        0x000020cc:    2800        .(      CMP      r0,#0
        0x000020ce:    d009        ..      BEQ      0x20e4 ; BsrEli + 28
        0x000020d0:    4604        .F      MOV      r4,r0
        0x000020d2:    34ff        .4      ADDS     r4,r4,#0xff
        0x000020d4:    34ed        .4      ADDS     r4,r4,#0xed
        0x000020d6:    2000        .       MOVS     r0,#0
        0x000020d8:    5e20         ^      LDRSH    r0,[r4,r0]
        0x000020da:    2800        .(      CMP      r0,#0
        0x000020dc:    da05        ..      BGE      0x20ea ; BsrEli + 34
        0x000020de:    2002        .       MOVS     r0,#2
        0x000020e0:    43c0        .C      MVNS     r0,r0
        0x000020e2:    bd30        0.      POP      {r4,r5,pc}
        0x000020e4:    2000        .       MOVS     r0,#0
        0x000020e6:    43c0        .C      MVNS     r0,r0
        0x000020e8:    bd30        0.      POP      {r4,r5,pc}
        0x000020ea:    2900        .)      CMP      r1,#0
        0x000020ec:    d002        ..      BEQ      0x20f4 ; BsrEli + 44
        0x000020ee:    2002        .       MOVS     r0,#2
        0x000020f0:    5e20         ^      LDRSH    r0,[r4,r0]
        0x000020f2:    6008        .`      STR      r0,[r1,#0]
        0x000020f4:    2a00        .*      CMP      r2,#0
        0x000020f6:    d002        ..      BEQ      0x20fe ; BsrEli + 54
        0x000020f8:    2004        .       MOVS     r0,#4
        0x000020fa:    5e20         ^      LDRSH    r0,[r4,r0]
        0x000020fc:    6010        .`      STR      r0,[r2,#0]
        0x000020fe:    2b00        .+      CMP      r3,#0
        0x00002100:    d005        ..      BEQ      0x210e ; BsrEli + 70
        0x00002102:    2006        .       MOVS     r0,#6
        0x00002104:    5e20         ^      LDRSH    r0,[r4,r0]
        0x00002106:    6018        .`      STR      r0,[r3,#0]
        0x00002108:    2008        .       MOVS     r0,#8
        0x0000210a:    5e20         ^      LDRSH    r0,[r4,r0]
        0x0000210c:    6058        X`      STR      r0,[r3,#4]
        0x0000210e:    2d00        .-      CMP      r5,#0
        0x00002110:    d002        ..      BEQ      0x2118 ; BsrEli + 80
        0x00002112:    200a        .       MOVS     r0,#0xa
        0x00002114:    5e20         ^      LDRSH    r0,[r4,r0]
        0x00002116:    6028        (`      STR      r0,[r5,#0]
        0x00002118:    2000        .       MOVS     r0,#0
        0x0000211a:    5e20         ^      LDRSH    r0,[r4,r0]
        0x0000211c:    bd30        0.      POP      {r4,r5,pc}
        0x0000211e:    0000        ..      MOVS     r0,r0
    i.BsrElla
    BsrElla
        0x00002120:    b5ff        ..      PUSH     {r0-r7,lr}
        0x00002122:    4604        .F      MOV      r4,r0
        0x00002124:    6887        .h      LDR      r7,[r0,#8]
        0x00002126:    34ff        .4      ADDS     r4,r4,#0xff
        0x00002128:    3481        .4      ADDS     r4,r4,#0x81
        0x0000212a:    1c7f        ..      ADDS     r7,r7,#1
        0x0000212c:    b081        ..      SUB      sp,sp,#4
        0x0000212e:    460e        .F      MOV      r6,r1
        0x00002130:    4605        .F      MOV      r5,r0
        0x00002132:    2b00        .+      CMP      r3,#0
        0x00002134:    d02b        +.      BEQ      0x218e ; BsrElla + 110
        0x00002136:    2000        .       MOVS     r0,#0
        0x00002138:    0082        ..      LSLS     r2,r0,#2
        0x0000213a:    1952        R.      ADDS     r2,r2,r5
        0x0000213c:    6831        1h      LDR      r1,[r6,#0]
        0x0000213e:    1c40        @.      ADDS     r0,r0,#1
        0x00002140:    62d1        .b      STR      r1,[r2,#0x2c]
        0x00002142:    2807        .(      CMP      r0,#7
        0x00002144:    dbf8        ..      BLT      0x2138 ; BsrElla + 24
        0x00002146:    68aa        .h      LDR      r2,[r5,#8]
        0x00002148:    1d31        1.      ADDS     r1,r6,#4
        0x0000214a:    6aa0        .j      LDR      r0,[r4,#0x28]
        0x0000214c:    f001f910    ....    BL       BsrJuanitez ; 0x3370
        0x00002150:    68aa        .h      LDR      r2,[r5,#8]
        0x00002152:    1d31        1.      ADDS     r1,r6,#4
        0x00002154:    6ae0        .j      LDR      r0,[r4,#0x2c]
        0x00002156:    f001f90b    ....    BL       BsrJuanitez ; 0x3370
        0x0000215a:    68aa        .h      LDR      r2,[r5,#8]
        0x0000215c:    1d31        1.      ADDS     r1,r6,#4
        0x0000215e:    6b20         k      LDR      r0,[r4,#0x30]
        0x00002160:    f001f906    ....    BL       BsrJuanitez ; 0x3370
        0x00002164:    68aa        .h      LDR      r2,[r5,#8]
        0x00002166:    1d31        1.      ADDS     r1,r6,#4
        0x00002168:    6b60        `k      LDR      r0,[r4,#0x34]
        0x0000216a:    f001f901    ....    BL       BsrJuanitez ; 0x3370
        0x0000216e:    68aa        .h      LDR      r2,[r5,#8]
        0x00002170:    1d31        1.      ADDS     r1,r6,#4
        0x00002172:    6ba0        .k      LDR      r0,[r4,#0x38]
        0x00002174:    f001f8fc    ....    BL       BsrJuanitez ; 0x3370
        0x00002178:    68aa        .h      LDR      r2,[r5,#8]
        0x0000217a:    1d31        1.      ADDS     r1,r6,#4
        0x0000217c:    6be0        .k      LDR      r0,[r4,#0x3c]
        0x0000217e:    f001f8f7    ....    BL       BsrJuanitez ; 0x3370
        0x00002182:    68aa        .h      LDR      r2,[r5,#8]
        0x00002184:    1d31        1.      ADDS     r1,r6,#4
        0x00002186:    6c20         l      LDR      r0,[r4,#0x40]
        0x00002188:    f001f8f2    ....    BL       BsrJuanitez ; 0x3370
        0x0000218c:    e024        $.      B        0x21d8 ; BsrElla + 184
        0x0000218e:    2000        .       MOVS     r0,#0
        0x00002190:    0081        ..      LSLS     r1,r0,#2
        0x00002192:    1949        I.      ADDS     r1,r1,r5
        0x00002194:    6b0a        .k      LDR      r2,[r1,#0x30]
        0x00002196:    1c40        @.      ADDS     r0,r0,#1
        0x00002198:    62ca        .b      STR      r2,[r1,#0x2c]
        0x0000219a:    2806        .(      CMP      r0,#6
        0x0000219c:    dbf8        ..      BLT      0x2190 ; BsrElla + 112
        0x0000219e:    0080        ..      LSLS     r0,r0,#2
        0x000021a0:    1940        @.      ADDS     r0,r0,r5
        0x000021a2:    6831        1h      LDR      r1,[r6,#0]
        0x000021a4:    62c1        .b      STR      r1,[r0,#0x2c]
        0x000021a6:    6b21        !k      LDR      r1,[r4,#0x30]
        0x000021a8:    6b60        `k      LDR      r0,[r4,#0x34]
        0x000021aa:    6361        ac      STR      r1,[r4,#0x34]
        0x000021ac:    6ae1        .j      LDR      r1,[r4,#0x2c]
        0x000021ae:    6321        !c      STR      r1,[r4,#0x30]
        0x000021b0:    6aa1        .j      LDR      r1,[r4,#0x28]
        0x000021b2:    62e1        .b      STR      r1,[r4,#0x2c]
        0x000021b4:    6ba1        .k      LDR      r1,[r4,#0x38]
        0x000021b6:    62a1        .b      STR      r1,[r4,#0x28]
        0x000021b8:    6be1        .k      LDR      r1,[r4,#0x3c]
        0x000021ba:    63a1        .c      STR      r1,[r4,#0x38]
        0x000021bc:    6c21        !l      LDR      r1,[r4,#0x40]
        0x000021be:    63e1        .c      STR      r1,[r4,#0x3c]
        0x000021c0:    6420         d      STR      r0,[r4,#0x40]
        0x000021c2:    1d31        1.      ADDS     r1,r6,#4
        0x000021c4:    68aa        .h      LDR      r2,[r5,#8]
        0x000021c6:    f001f8d3    ....    BL       BsrJuanitez ; 0x3370
        0x000021ca:    68aa        .h      LDR      r2,[r5,#8]
        0x000021cc:    1d30        0.      ADDS     r0,r6,#4
        0x000021ce:    6aa1        .j      LDR      r1,[r4,#0x28]
        0x000021d0:    f001f8c2    ....    BL       BsrJuanita ; 0x3358
        0x000021d4:    6ba8        .k      LDR      r0,[r5,#0x38]
        0x000021d6:    6030        0`      STR      r0,[r6,#0]
        0x000021d8:    6b69        ik      LDR      r1,[r5,#0x34]
        0x000021da:    6be8        .k      LDR      r0,[r5,#0x3c]
        0x000021dc:    6b2a        *k      LDR      r2,[r5,#0x30]
        0x000021de:    1a40        @.      SUBS     r0,r0,r1
        0x000021e0:    6c29        )l      LDR      r1,[r5,#0x40]
        0x000021e2:    1a89        ..      SUBS     r1,r1,r2
        0x000021e4:    0049        I.      LSLS     r1,r1,#1
        0x000021e6:    1840        @.      ADDS     r0,r0,r1
        0x000021e8:    6aea        .j      LDR      r2,[r5,#0x2c]
        0x000021ea:    6c69        il      LDR      r1,[r5,#0x44]
        0x000021ec:    1a89        ..      SUBS     r1,r1,r2
        0x000021ee:    004a        J.      LSLS     r2,r1,#1
        0x000021f0:    1889        ..      ADDS     r1,r1,r2
        0x000021f2:    1840        @.      ADDS     r0,r0,r1
        0x000021f4:    211c        .!      MOVS     r1,#0x1c
        0x000021f6:    f7fef80f    ....    BL       __aeabi_idiv ; 0x218
        0x000021fa:    4d1c        .M      LDR      r5,[pc,#112] ; [0x226c] = 0x7fff
        0x000021fc:    42a8        .B      CMP      r0,r5
        0x000021fe:    dd01        ..      BLE      0x2204 ; BsrElla + 228
        0x00002200:    4628        (F      MOV      r0,r5
        0x00002202:    e004        ..      B        0x220e ; BsrElla + 238
        0x00002204:    4919        .I      LDR      r1,[pc,#100] ; [0x226c] = 0x7fff
        0x00002206:    43c9        .C      MVNS     r1,r1
        0x00002208:    4288        .B      CMP      r0,r1
        0x0000220a:    da00        ..      BGE      0x220e ; BsrElla + 238
        0x0000220c:    4608        .F      MOV      r0,r1
        0x0000220e:    9903        ..      LDR      r1,[sp,#0xc]
        0x00002210:    2601        .&      MOVS     r6,#1
        0x00002212:    6008        .`      STR      r0,[r1,#0]
        0x00002214:    e025        %.      B        0x2262 ; BsrElla + 322
        0x00002216:    0070        p.      LSLS     r0,r6,#1
        0x00002218:    1e80        ..      SUBS     r0,r0,#2
        0x0000221a:    6ba1        .k      LDR      r1,[r4,#0x38]
        0x0000221c:    6ae2        .j      LDR      r2,[r4,#0x2c]
        0x0000221e:    5e09        .^      LDRSH    r1,[r1,r0]
        0x00002220:    5e12        .^      LDRSH    r2,[r2,r0]
        0x00002222:    6b23        #k      LDR      r3,[r4,#0x30]
        0x00002224:    1a89        ..      SUBS     r1,r1,r2
        0x00002226:    6be2        .k      LDR      r2,[r4,#0x3c]
        0x00002228:    5e1b        .^      LDRSH    r3,[r3,r0]
        0x0000222a:    5e12        .^      LDRSH    r2,[r2,r0]
        0x0000222c:    1ad2        ..      SUBS     r2,r2,r3
        0x0000222e:    0052        R.      LSLS     r2,r2,#1
        0x00002230:    1889        ..      ADDS     r1,r1,r2
        0x00002232:    6c22        "l      LDR      r2,[r4,#0x40]
        0x00002234:    6b63        ck      LDR      r3,[r4,#0x34]
        0x00002236:    5e12        .^      LDRSH    r2,[r2,r0]
        0x00002238:    5e18        .^      LDRSH    r0,[r3,r0]
        0x0000223a:    1a10        ..      SUBS     r0,r2,r0
        0x0000223c:    0042        B.      LSLS     r2,r0,#1
        0x0000223e:    1880        ..      ADDS     r0,r0,r2
        0x00002240:    1808        ..      ADDS     r0,r1,r0
        0x00002242:    211c        .!      MOVS     r1,#0x1c
        0x00002244:    f7fdffe8    ....    BL       __aeabi_idiv ; 0x218
        0x00002248:    42a8        .B      CMP      r0,r5
        0x0000224a:    dd01        ..      BLE      0x2250 ; BsrElla + 304
        0x0000224c:    4628        (F      MOV      r0,r5
        0x0000224e:    e004        ..      B        0x225a ; BsrElla + 314
        0x00002250:    4906        .I      LDR      r1,[pc,#24] ; [0x226c] = 0x7fff
        0x00002252:    43c9        .C      MVNS     r1,r1
        0x00002254:    4288        .B      CMP      r0,r1
        0x00002256:    da00        ..      BGE      0x225a ; BsrElla + 314
        0x00002258:    4608        .F      MOV      r0,r1
        0x0000225a:    00b2        ..      LSLS     r2,r6,#2
        0x0000225c:    9903        ..      LDR      r1,[sp,#0xc]
        0x0000225e:    1c76        v.      ADDS     r6,r6,#1
        0x00002260:    5088        .P      STR      r0,[r1,r2]
        0x00002262:    42be        .B      CMP      r6,r7
        0x00002264:    dbd7        ..      BLT      0x2216 ; BsrElla + 246
        0x00002266:    b005        ..      ADD      sp,sp,#0x14
        0x00002268:    bdf0        ..      POP      {r4-r7,pc}
    $d
        0x0000226a:    0000        ..      DCW    0
        0x0000226c:    00007fff    ....    DCD    32767
    $t
    i.BsrElsa
    BsrElsa
        0x00002270:    b5ff        ..      PUSH     {r0-r7,lr}
        0x00002272:    4605        .F      MOV      r5,r0
        0x00002274:    462c        ,F      MOV      r4,r5
        0x00002276:    b081        ..      SUB      sp,sp,#4
        0x00002278:    34ff        .4      ADDS     r4,r4,#0xff
        0x0000227a:    68af        .h      LDR      r7,[r5,#8]
        0x0000227c:    980a        ..      LDR      r0,[sp,#0x28]
        0x0000227e:    3481        .4      ADDS     r4,r4,#0x81
        0x00002280:    1c7f        ..      ADDS     r7,r7,#1
        0x00002282:    6c63        cl      LDR      r3,[r4,#0x44]
        0x00002284:    460e        .F      MOV      r6,r1
        0x00002286:    2800        .(      CMP      r0,#0
        0x00002288:    d023        #.      BEQ      0x22d2 ; BsrElsa + 98
        0x0000228a:    463a        :F      MOV      r2,r7
        0x0000228c:    4618        .F      MOV      r0,r3
        0x0000228e:    9903        ..      LDR      r1,[sp,#0xc]
        0x00002290:    f001f86e    ..n.    BL       BsrJuanitez ; 0x3370
        0x00002294:    463a        :F      MOV      r2,r7
        0x00002296:    6ca0        .l      LDR      r0,[r4,#0x48]
        0x00002298:    9903        ..      LDR      r1,[sp,#0xc]
        0x0000229a:    f001f869    ..i.    BL       BsrJuanitez ; 0x3370
        0x0000229e:    463a        :F      MOV      r2,r7
        0x000022a0:    6ce0        .l      LDR      r0,[r4,#0x4c]
        0x000022a2:    9903        ..      LDR      r1,[sp,#0xc]
        0x000022a4:    f001f864    ..d.    BL       BsrJuanitez ; 0x3370
        0x000022a8:    463a        :F      MOV      r2,r7
        0x000022aa:    6d20         m      LDR      r0,[r4,#0x50]
        0x000022ac:    9903        ..      LDR      r1,[sp,#0xc]
        0x000022ae:    f001f85f    .._.    BL       BsrJuanitez ; 0x3370
        0x000022b2:    463a        :F      MOV      r2,r7
        0x000022b4:    6d60        `m      LDR      r0,[r4,#0x54]
        0x000022b6:    9903        ..      LDR      r1,[sp,#0xc]
        0x000022b8:    f001f85a    ..Z.    BL       BsrJuanitez ; 0x3370
        0x000022bc:    463a        :F      MOV      r2,r7
        0x000022be:    6da0        .m      LDR      r0,[r4,#0x58]
        0x000022c0:    9903        ..      LDR      r1,[sp,#0xc]
        0x000022c2:    f001f855    ..U.    BL       BsrJuanitez ; 0x3370
        0x000022c6:    463a        :F      MOV      r2,r7
        0x000022c8:    6de0        .m      LDR      r0,[r4,#0x5c]
        0x000022ca:    9903        ..      LDR      r1,[sp,#0xc]
        0x000022cc:    f001f850    ..P.    BL       BsrJuanitez ; 0x3370
        0x000022d0:    e01c        ..      B        0x230c ; BsrElsa + 156
        0x000022d2:    6ce1        .l      LDR      r1,[r4,#0x4c]
        0x000022d4:    6d20         m      LDR      r0,[r4,#0x50]
        0x000022d6:    6521        !e      STR      r1,[r4,#0x50]
        0x000022d8:    6ca1        .l      LDR      r1,[r4,#0x48]
        0x000022da:    64a3        .d      STR      r3,[r4,#0x48]
        0x000022dc:    64e1        .d      STR      r1,[r4,#0x4c]
        0x000022de:    6d61        am      LDR      r1,[r4,#0x54]
        0x000022e0:    6461        ad      STR      r1,[r4,#0x44]
        0x000022e2:    6da1        .m      LDR      r1,[r4,#0x58]
        0x000022e4:    6561        ae      STR      r1,[r4,#0x54]
        0x000022e6:    6de1        .m      LDR      r1,[r4,#0x5c]
        0x000022e8:    65a1        .e      STR      r1,[r4,#0x58]
        0x000022ea:    65e0        .e      STR      r0,[r4,#0x5c]
        0x000022ec:    463a        :F      MOV      r2,r7
        0x000022ee:    9903        ..      LDR      r1,[sp,#0xc]
        0x000022f0:    f001f83e    ..>.    BL       BsrJuanitez ; 0x3370
        0x000022f4:    68aa        .h      LDR      r2,[r5,#8]
        0x000022f6:    1d30        0.      ADDS     r0,r6,#4
        0x000022f8:    6b61        ak      LDR      r1,[r4,#0x34]
        0x000022fa:    f001f82d    ..-.    BL       BsrJuanita ; 0x3358
        0x000022fe:    6ae8        .j      LDR      r0,[r5,#0x2c]
        0x00002300:    6030        0`      STR      r0,[r6,#0]
        0x00002302:    463a        :F      MOV      r2,r7
        0x00002304:    6c61        al      LDR      r1,[r4,#0x44]
        0x00002306:    9803        ..      LDR      r0,[sp,#0xc]
        0x00002308:    f001f826    ..&.    BL       BsrJuanita ; 0x3358
        0x0000230c:    2500        .%      MOVS     r5,#0
        0x0000230e:    4e15        .N      LDR      r6,[pc,#84] ; [0x2364] = 0x7fff
        0x00002310:    e024        $.      B        0x235c ; BsrElsa + 236
        0x00002312:    0068        h.      LSLS     r0,r5,#1
        0x00002314:    6d61        am      LDR      r1,[r4,#0x54]
        0x00002316:    6ca2        .l      LDR      r2,[r4,#0x48]
        0x00002318:    5e09        .^      LDRSH    r1,[r1,r0]
        0x0000231a:    5e12        .^      LDRSH    r2,[r2,r0]
        0x0000231c:    6ce3        .l      LDR      r3,[r4,#0x4c]
        0x0000231e:    1a89        ..      SUBS     r1,r1,r2
        0x00002320:    6da2        .m      LDR      r2,[r4,#0x58]
        0x00002322:    5e1b        .^      LDRSH    r3,[r3,r0]
        0x00002324:    5e12        .^      LDRSH    r2,[r2,r0]
        0x00002326:    1ad2        ..      SUBS     r2,r2,r3
        0x00002328:    0052        R.      LSLS     r2,r2,#1
        0x0000232a:    1889        ..      ADDS     r1,r1,r2
        0x0000232c:    6de2        .m      LDR      r2,[r4,#0x5c]
        0x0000232e:    6d23        #m      LDR      r3,[r4,#0x50]
        0x00002330:    5e12        .^      LDRSH    r2,[r2,r0]
        0x00002332:    5e18        .^      LDRSH    r0,[r3,r0]
        0x00002334:    1a10        ..      SUBS     r0,r2,r0
        0x00002336:    0042        B.      LSLS     r2,r0,#1
        0x00002338:    1880        ..      ADDS     r0,r0,r2
        0x0000233a:    1808        ..      ADDS     r0,r1,r0
        0x0000233c:    211c        .!      MOVS     r1,#0x1c
        0x0000233e:    f7fdff6b    ..k.    BL       __aeabi_idiv ; 0x218
        0x00002342:    42b0        .B      CMP      r0,r6
        0x00002344:    dd01        ..      BLE      0x234a ; BsrElsa + 218
        0x00002346:    4630        0F      MOV      r0,r6
        0x00002348:    e004        ..      B        0x2354 ; BsrElsa + 228
        0x0000234a:    4906        .I      LDR      r1,[pc,#24] ; [0x2364] = 0x7fff
        0x0000234c:    43c9        .C      MVNS     r1,r1
        0x0000234e:    4288        .B      CMP      r0,r1
        0x00002350:    da00        ..      BGE      0x2354 ; BsrElsa + 228
        0x00002352:    4608        .F      MOV      r0,r1
        0x00002354:    00aa        ..      LSLS     r2,r5,#2
        0x00002356:    9904        ..      LDR      r1,[sp,#0x10]
        0x00002358:    1c6d        m.      ADDS     r5,r5,#1
        0x0000235a:    5088        .P      STR      r0,[r1,r2]
        0x0000235c:    42bd        .B      CMP      r5,r7
        0x0000235e:    dbd8        ..      BLT      0x2312 ; BsrElsa + 162
        0x00002360:    b005        ..      ADD      sp,sp,#0x14
        0x00002362:    bdf0        ..      POP      {r4-r7,pc}
    $d
        0x00002364:    00007fff    ....    DCD    32767
    $t
    i.BsrEmma
    BsrEmma
        0x00002368:    b5ff        ..      PUSH     {r0-r7,lr}
        0x0000236a:    4604        .F      MOV      r4,r0
        0x0000236c:    34ff        .4      ADDS     r4,r4,#0xff
        0x0000236e:    491e        .I      LDR      r1,[pc,#120] ; [0x23e8] = 0x212
        0x00002370:    34e1        .4      ADDS     r4,r4,#0xe1
        0x00002372:    b083        ..      SUB      sp,sp,#0xc
        0x00002374:    1840        @.      ADDS     r0,r0,r1
        0x00002376:    9001        ..      STR      r0,[sp,#4]
        0x00002378:    2000        .       MOVS     r0,#0
        0x0000237a:    9000        ..      STR      r0,[sp,#0]
        0x0000237c:    0040        @.      LSLS     r0,r0,#1
        0x0000237e:    4686        .F      MOV      lr,r0
        0x00002380:    5e23        #^      LDRSH    r3,[r4,r0]
        0x00002382:    1901        ..      ADDS     r1,r0,r4
        0x00002384:    2004        .       MOVS     r0,#4
        0x00002386:    5e08        .^      LDRSH    r0,[r1,r0]
        0x00002388:    2201        ."      MOVS     r2,#1
        0x0000238a:    1ac5        ..      SUBS     r5,r0,r3
        0x0000238c:    106e        n.      ASRS     r6,r5,#1
        0x0000238e:    2000        .       MOVS     r0,#0
        0x00002390:    199e        ..      ADDS     r6,r3,r6
        0x00002392:    4619        .F      MOV      r1,r3
        0x00002394:    46b4        .F      MOV      r12,r6
        0x00002396:    e006        ..      B        0x23a6 ; BsrEmma + 62
        0x00002398:    9e04        ..      LDR      r6,[sp,#0x10]
        0x0000239a:    008f        ..      LSLS     r7,r1,#2
        0x0000239c:    59f6        .Y      LDR      r6,[r6,r7]
        0x0000239e:    1c49        I.      ADDS     r1,r1,#1
        0x000023a0:    4356        VC      MULS     r6,r2,r6
        0x000023a2:    1830        0.      ADDS     r0,r6,r0
        0x000023a4:    1c52        R.      ADDS     r2,r2,#1
        0x000023a6:    458c        .E      CMP      r12,r1
        0x000023a8:    dcf6        ..      BGT      0x2398 ; BsrEmma + 48
        0x000023aa:    07ee        ..      LSLS     r6,r5,#31
        0x000023ac:    d100        ..      BNE      0x23b0 ; BsrEmma + 72
        0x000023ae:    1e52        R.      SUBS     r2,r2,#1
        0x000023b0:    195b        [.      ADDS     r3,r3,r5
        0x000023b2:    428b        .B      CMP      r3,r1
        0x000023b4:    dd07        ..      BLE      0x23c6 ; BsrEmma + 94
        0x000023b6:    9d04        ..      LDR      r5,[sp,#0x10]
        0x000023b8:    008e        ..      LSLS     r6,r1,#2
        0x000023ba:    59ad        .Y      LDR      r5,[r5,r6]
        0x000023bc:    1c49        I.      ADDS     r1,r1,#1
        0x000023be:    4355        UC      MULS     r5,r2,r5
        0x000023c0:    1828        (.      ADDS     r0,r5,r0
        0x000023c2:    1e52        R.      SUBS     r2,r2,#1
        0x000023c4:    e7f5        ..      B        0x23b2 ; BsrEmma + 74
        0x000023c6:    9a01        ..      LDR      r2,[sp,#4]
        0x000023c8:    4671        qF      MOV      r1,lr
        0x000023ca:    5e51        Q^      LDRSH    r1,[r2,r1]
        0x000023cc:    f7fdff24    ..$.    BL       __aeabi_idiv ; 0x218
        0x000023d0:    9900        ..      LDR      r1,[sp,#0]
        0x000023d2:    008a        ..      LSLS     r2,r1,#2
        0x000023d4:    9906        ..      LDR      r1,[sp,#0x18]
        0x000023d6:    5088        .P      STR      r0,[r1,r2]
        0x000023d8:    9800        ..      LDR      r0,[sp,#0]
        0x000023da:    1c40        @.      ADDS     r0,r0,#1
        0x000023dc:    9000        ..      STR      r0,[sp,#0]
        0x000023de:    2817        .(      CMP      r0,#0x17
        0x000023e0:    dbcc        ..      BLT      0x237c ; BsrEmma + 20
        0x000023e2:    2017        .       MOVS     r0,#0x17
        0x000023e4:    b007        ..      ADD      sp,sp,#0x1c
        0x000023e6:    bdf0        ..      POP      {r4-r7,pc}
    $d
        0x000023e8:    00000212    ....    DCD    530
    $t
    i.BsrEric
    BsrEric
        0x000023ec:    b5f0        ..      PUSH     {r4-r7,lr}
        0x000023ee:    0fd4        ..      LSRS     r4,r2,#31
        0x000023f0:    18a2        ..      ADDS     r2,r4,r2
        0x000023f2:    1056        V.      ASRS     r6,r2,#1
        0x000023f4:    6802        .h      LDR      r2,[r0,#0]
        0x000023f6:    1c76        v.      ADDS     r6,r6,#1
        0x000023f8:    2a00        .*      CMP      r2,#0
        0x000023fa:    da00        ..      BGE      0x23fe ; BsrEric + 18
        0x000023fc:    4252        RB      RSBS     r2,r2,#0
        0x000023fe:    2401        .$      MOVS     r4,#1
        0x00002400:    601a        .`      STR      r2,[r3,#0]
        0x00002402:    e00c        ..      B        0x241e ; BsrEric + 50
        0x00002404:    00a7        ..      LSLS     r7,r4,#2
        0x00002406:    59c2        .Y      LDR      r2,[r0,r7]
        0x00002408:    2a00        .*      CMP      r2,#0
        0x0000240a:    da00        ..      BGE      0x240e ; BsrEric + 34
        0x0000240c:    4252        RB      RSBS     r2,r2,#0
        0x0000240e:    51da        .Q      STR      r2,[r3,r7]
        0x00002410:    59cd        .Y      LDR      r5,[r1,r7]
        0x00002412:    2d00        .-      CMP      r5,#0
        0x00002414:    da00        ..      BGE      0x2418 ; BsrEric + 44
        0x00002416:    426d        mB      RSBS     r5,r5,#0
        0x00002418:    1952        R.      ADDS     r2,r2,r5
        0x0000241a:    51da        .Q      STR      r2,[r3,r7]
        0x0000241c:    1c64        d.      ADDS     r4,r4,#1
        0x0000241e:    42b4        .B      CMP      r4,r6
        0x00002420:    dbf0        ..      BLT      0x2404 ; BsrEric + 24
        0x00002422:    4630        0F      MOV      r0,r6
        0x00002424:    bdf0        ..      POP      {r4-r7,pc}
        0x00002426:    0000        ..      MOVS     r0,r0
    i.BsrErica
    BsrErica
        0x00002428:    b5f3        ..      PUSH     {r0,r1,r4-r7,lr}
        0x0000242a:    6801        .h      LDR      r1,[r0,#0]
        0x0000242c:    4604        .F      MOV      r4,r0
        0x0000242e:    104d        M.      ASRS     r5,r1,#1
        0x00002430:    492e        .I      LDR      r1,[pc,#184] ; [0x24ec] = 0x212
        0x00002432:    34ff        .4      ADDS     r4,r4,#0xff
        0x00002434:    1840        @.      ADDS     r0,r0,r1
        0x00002436:    b083        ..      SUB      sp,sp,#0xc
        0x00002438:    34e1        .4      ADDS     r4,r4,#0xe1
        0x0000243a:    1c6d        m.      ADDS     r5,r5,#1
        0x0000243c:    9001        ..      STR      r0,[sp,#4]
        0x0000243e:    2d81        .-      CMP      r5,#0x81
        0x00002440:    d002        ..      BEQ      0x2448 ; BsrErica + 32
        0x00002442:    2000        .       MOVS     r0,#0
        0x00002444:    b005        ..      ADD      sp,sp,#0x14
        0x00002446:    bdf0        ..      POP      {r4-r7,pc}
        0x00002448:    9804        ..      LDR      r0,[sp,#0x10]
        0x0000244a:    4f29        )O      LDR      r7,[pc,#164] ; [0x24f0] = 0x6510
        0x0000244c:    1fc1        ..      SUBS     r1,r0,#7
        0x0000244e:    39f9        .9      SUBS     r1,r1,#0xf9
        0x00002450:    d03e        >.      BEQ      0x24d0 ; BsrErica + 168
        0x00002452:    8838        8.      LDRH     r0,[r7,#0]
        0x00002454:    8020         .      STRH     r0,[r4,#0]
        0x00002456:    b228        (.      SXTH     r0,r5
        0x00002458:    2601        .&      MOVS     r6,#1
        0x0000245a:    9000        ..      STR      r0,[sp,#0]
        0x0000245c:    00b0        ..      LSLS     r0,r6,#2
        0x0000245e:    5838        8X      LDR      r0,[r7,r0]
        0x00002460:    9904        ..      LDR      r1,[sp,#0x10]
        0x00002462:    0200        ..      LSLS     r0,r0,#8
        0x00002464:    f7fdfed8    ....    BL       __aeabi_idiv ; 0x218
        0x00002468:    b200        ..      SXTH     r0,r0
        0x0000246a:    0071        q.      LSLS     r1,r6,#1
        0x0000246c:    5260        `R      STRH     r0,[r4,r1]
        0x0000246e:    42a8        .B      CMP      r0,r5
        0x00002470:    dd01        ..      BLE      0x2476 ; BsrErica + 78
        0x00002472:    9800        ..      LDR      r0,[sp,#0]
        0x00002474:    5260        `R      STRH     r0,[r4,r1]
        0x00002476:    1c76        v.      ADDS     r6,r6,#1
        0x00002478:    2e18        ..      CMP      r6,#0x18
        0x0000247a:    dbef        ..      BLT      0x245c ; BsrErica + 52
        0x0000247c:    0071        q.      LSLS     r1,r6,#1
        0x0000247e:    9800        ..      LDR      r0,[sp,#0]
        0x00002480:    5260        `R      STRH     r0,[r4,r1]
        0x00002482:    202c        ,       MOVS     r0,#0x2c
        0x00002484:    5e20         ^      LDRSH    r0,[r4,r0]
        0x00002486:    1e6d        m.      SUBS     r5,r5,#1
        0x00002488:    42a8        .B      CMP      r0,r5
        0x0000248a:    dd00        ..      BLE      0x248e ; BsrErica + 102
        0x0000248c:    85a5        ..      STRH     r5,[r4,#0x2c]
        0x0000248e:    2002        .       MOVS     r0,#2
        0x00002490:    0042        B.      LSLS     r2,r0,#1
        0x00002492:    1915        ..      ADDS     r5,r2,r4
        0x00002494:    3d40        @=      SUBS     r5,r5,#0x40
        0x00002496:    213c        <!      MOVS     r1,#0x3c
        0x00002498:    5e69        i^      LDRSH    r1,[r5,r1]
        0x0000249a:    5ea3        .^      LDRSH    r3,[r4,r2]
        0x0000249c:    1c49        I.      ADDS     r1,r1,#1
        0x0000249e:    428b        .B      CMP      r3,r1
        0x000024a0:    da00        ..      BGE      0x24a4 ; BsrErica + 124
        0x000024a2:    52a1        .R      STRH     r1,[r4,r2]
        0x000024a4:    1c40        @.      ADDS     r0,r0,#1
        0x000024a6:    2816        .(      CMP      r0,#0x16
        0x000024a8:    dbf2        ..      BLT      0x2490 ; BsrErica + 104
        0x000024aa:    2100        .!      MOVS     r1,#0
        0x000024ac:    004a        J.      LSLS     r2,r1,#1
        0x000024ae:    1913        ..      ADDS     r3,r2,r4
        0x000024b0:    2004        .       MOVS     r0,#4
        0x000024b2:    5e18        .^      LDRSH    r0,[r3,r0]
        0x000024b4:    5ea3        .^      LDRSH    r3,[r4,r2]
        0x000024b6:    1ac3        ..      SUBS     r3,r0,r3
        0x000024b8:    1058        X.      ASRS     r0,r3,#1
        0x000024ba:    07db        ..      LSLS     r3,r3,#31
        0x000024bc:    d011        ..      BEQ      0x24e2 ; BsrErica + 186
        0x000024be:    1c40        @.      ADDS     r0,r0,#1
        0x000024c0:    9b01        ..      LDR      r3,[sp,#4]
        0x000024c2:    4340        @C      MULS     r0,r0,r0
        0x000024c4:    5298        .R      STRH     r0,[r3,r2]
        0x000024c6:    1c49        I.      ADDS     r1,r1,#1
        0x000024c8:    2917        .)      CMP      r1,#0x17
        0x000024ca:    dbef        ..      BLT      0x24ac ; BsrErica + 132
        0x000024cc:    2017        .       MOVS     r0,#0x17
        0x000024ce:    e7b9        ..      B        0x2444 ; BsrErica + 28
        0x000024d0:    2000        .       MOVS     r0,#0
        0x000024d2:    0081        ..      LSLS     r1,r0,#2
        0x000024d4:    0042        B.      LSLS     r2,r0,#1
        0x000024d6:    5a79        yZ      LDRH     r1,[r7,r1]
        0x000024d8:    1c40        @.      ADDS     r0,r0,#1
        0x000024da:    52a1        .R      STRH     r1,[r4,r2]
        0x000024dc:    2819        .(      CMP      r0,#0x19
        0x000024de:    dbf8        ..      BLT      0x24d2 ; BsrErica + 170
        0x000024e0:    e7e3        ..      B        0x24aa ; BsrErica + 130
        0x000024e2:    1c43        C.      ADDS     r3,r0,#1
        0x000024e4:    4343        CC      MULS     r3,r0,r3
        0x000024e6:    9801        ..      LDR      r0,[sp,#4]
        0x000024e8:    5283        .R      STRH     r3,[r0,r2]
        0x000024ea:    e7ec        ..      B        0x24c6 ; BsrErica + 158
    $d
        0x000024ec:    00000212    ....    DCD    530
        0x000024f0:    00006510    .e..    DCD    25872
    $t
    i.BsrErik
    BsrErik
        0x000024f4:    b5f7        ..      PUSH     {r0-r2,r4-r7,lr}
        0x000024f6:    2400        .$      MOVS     r4,#0
        0x000024f8:    460e        .F      MOV      r6,r1
        0x000024fa:    4627        'F      MOV      r7,r4
        0x000024fc:    e00d        ..      B        0x251a ; BsrErik + 38
        0x000024fe:    9800        ..      LDR      r0,[sp,#0]
        0x00002500:    00a5        ..      LSLS     r5,r4,#2
        0x00002502:    5940        @Y      LDR      r0,[r0,r5]
        0x00002504:    2800        .(      CMP      r0,#0
        0x00002506:    dc02        ..      BGT      0x250e ; BsrErik + 26
        0x00002508:    9802        ..      LDR      r0,[sp,#8]
        0x0000250a:    5147        GQ      STR      r7,[r0,r5]
        0x0000250c:    e004        ..      B        0x2518 ; BsrErik + 36
        0x0000250e:    1c40        @.      ADDS     r0,r0,#1
        0x00002510:    f7fefd60    ..`.    BL       BsrBrad ; 0xfd4
        0x00002514:    9902        ..      LDR      r1,[sp,#8]
        0x00002516:    5148        HQ      STR      r0,[r1,r5]
        0x00002518:    1c64        d.      ADDS     r4,r4,#1
        0x0000251a:    42b4        .B      CMP      r4,r6
        0x0000251c:    dbef        ..      BLT      0x24fe ; BsrErik + 10
        0x0000251e:    4630        0F      MOV      r0,r6
        0x00002520:    bdfe        ..      POP      {r1-r7,pc}
    i.BsrErin
    BsrErin
        0x00002522:    b5f8        ..      PUSH     {r3-r7,lr}
        0x00002524:    1e16        ..      SUBS     r6,r2,#0
        0x00002526:    4604        .F      MOV      r4,r0
        0x00002528:    460d        .F      MOV      r5,r1
        0x0000252a:    dd0a        ..      BLE      0x2542 ; BsrErin + 32
        0x0000252c:    1ff0        ..      SUBS     r0,r6,#7
        0x0000252e:    38f9        .8      SUBS     r0,r0,#0xf9
        0x00002530:    d007        ..      BEQ      0x2542 ; BsrErin + 32
        0x00002532:    6820         h      LDR      r0,[r4,#0]
        0x00002534:    9000        ..      STR      r0,[sp,#0]
        0x00002536:    2000        .       MOVS     r0,#0
        0x00002538:    6020         `      STR      r0,[r4,#0]
        0x0000253a:    2eff        ..      CMP      r6,#0xff
        0x0000253c:    dc03        ..      BGT      0x2546 ; BsrErin + 36
        0x0000253e:    2701        .'      MOVS     r7,#1
        0x00002540:    e01c        ..      B        0x257c ; BsrErin + 90
        0x00002542:    4608        .F      MOV      r0,r1
        0x00002544:    bdf8        ..      POP      {r3-r7,pc}
        0x00002546:    1e6f        o.      SUBS     r7,r5,#1
        0x00002548:    e018        ..      B        0x257c ; BsrErin + 90
        0x0000254a:    0238        8.      LSLS     r0,r7,#8
        0x0000254c:    4631        1F      MOV      r1,r6
        0x0000254e:    f7fdfe63    ..c.    BL       __aeabi_idiv ; 0x218
        0x00002552:    1c41        A.      ADDS     r1,r0,#1
        0x00002554:    42a9        .B      CMP      r1,r5
        0x00002556:    db03        ..      BLT      0x2560 ; BsrErin + 62
        0x00002558:    2100        .!      MOVS     r1,#0
        0x0000255a:    00b8        ..      LSLS     r0,r7,#2
        0x0000255c:    5021        !P      STR      r1,[r4,r0]
        0x0000255e:    e008        ..      B        0x2572 ; BsrErin + 80
        0x00002560:    0081        ..      LSLS     r1,r0,#2
        0x00002562:    5860        `X      LDR      r0,[r4,r1]
        0x00002564:    1909        ..      ADDS     r1,r1,r4
        0x00002566:    6849        Ih      LDR      r1,[r1,#4]
        0x00002568:    4288        .B      CMP      r0,r1
        0x0000256a:    dc00        ..      BGT      0x256e ; BsrErin + 76
        0x0000256c:    4608        .F      MOV      r0,r1
        0x0000256e:    00ba        ..      LSLS     r2,r7,#2
        0x00002570:    50a0        .P      STR      r0,[r4,r2]
        0x00002572:    2eff        ..      CMP      r6,#0xff
        0x00002574:    dc01        ..      BGT      0x257a ; BsrErin + 88
        0x00002576:    1c7f        ..      ADDS     r7,r7,#1
        0x00002578:    e000        ..      B        0x257c ; BsrErin + 90
        0x0000257a:    1e7f        ..      SUBS     r7,r7,#1
        0x0000257c:    42af        .B      CMP      r7,r5
        0x0000257e:    da01        ..      BGE      0x2584 ; BsrErin + 98
        0x00002580:    2f00        ./      CMP      r7,#0
        0x00002582:    dce2        ..      BGT      0x254a ; BsrErin + 40
        0x00002584:    2001        .       MOVS     r0,#1
        0x00002586:    4621        !F      MOV      r1,r4
        0x00002588:    3978        x9      SUBS     r1,r1,#0x78
        0x0000258a:    e030        0.      B        0x25ee ; BsrErin + 204
        0x0000258c:    2eff        ..      CMP      r6,#0xff
        0x0000258e:    dc17        ..      BGT      0x25c0 ; BsrErin + 158
        0x00002590:    1e6a        j.      SUBS     r2,r5,#1
        0x00002592:    4290        .B      CMP      r0,r2
        0x00002594:    d02d        -.      BEQ      0x25f2 ; BsrErin + 208
        0x00002596:    1eaa        ..      SUBS     r2,r5,#2
        0x00002598:    4290        .B      CMP      r0,r2
        0x0000259a:    db08        ..      BLT      0x25ae ; BsrErin + 140
        0x0000259c:    0083        ..      LSLS     r3,r0,#2
        0x0000259e:    58e2        .X      LDR      r2,[r4,r3]
        0x000025a0:    191b        ..      ADDS     r3,r3,r4
        0x000025a2:    685f        _h      LDR      r7,[r3,#4]
        0x000025a4:    42ba        .B      CMP      r2,r7
        0x000025a6:    d102        ..      BNE      0x25ae ; BsrErin + 140
        0x000025a8:    1052        R.      ASRS     r2,r2,#1
        0x000025aa:    605a        Z`      STR      r2,[r3,#4]
        0x000025ac:    e01e        ..      B        0x25ec ; BsrErin + 202
        0x000025ae:    0083        ..      LSLS     r3,r0,#2
        0x000025b0:    58e2        .X      LDR      r2,[r4,r3]
        0x000025b2:    191b        ..      ADDS     r3,r3,r4
        0x000025b4:    685f        _h      LDR      r7,[r3,#4]
        0x000025b6:    42ba        .B      CMP      r2,r7
        0x000025b8:    d118        ..      BNE      0x25ec ; BsrErin + 202
        0x000025ba:    689f        .h      LDR      r7,[r3,#8]
        0x000025bc:    19d2        ..      ADDS     r2,r2,r7
        0x000025be:    e7f3        ..      B        0x25a8 ; BsrErin + 134
        0x000025c0:    2802        .(      CMP      r0,#2
        0x000025c2:    dd0b        ..      BLE      0x25dc ; BsrErin + 186
        0x000025c4:    0083        ..      LSLS     r3,r0,#2
        0x000025c6:    191a        ..      ADDS     r2,r3,r4
        0x000025c8:    3a80        .:      SUBS     r2,r2,#0x80
        0x000025ca:    58e3        .X      LDR      r3,[r4,r3]
        0x000025cc:    6fd7        .o      LDR      r7,[r2,#0x7c]
        0x000025ce:    429f        .B      CMP      r7,r3
        0x000025d0:    d10c        ..      BNE      0x25ec ; BsrErin + 202
        0x000025d2:    6f97        .o      LDR      r7,[r2,#0x78]
        0x000025d4:    18fb        ..      ADDS     r3,r7,r3
        0x000025d6:    105b        [.      ASRS     r3,r3,#1
        0x000025d8:    67d3        .g      STR      r3,[r2,#0x7c]
        0x000025da:    e007        ..      B        0x25ec ; BsrErin + 202
        0x000025dc:    2802        .(      CMP      r0,#2
        0x000025de:    d105        ..      BNE      0x25ec ; BsrErin + 202
        0x000025e0:    6fcb        .o      LDR      r3,[r1,#0x7c]
        0x000025e2:    68a2        .h      LDR      r2,[r4,#8]
        0x000025e4:    4293        .B      CMP      r3,r2
        0x000025e6:    d101        ..      BNE      0x25ec ; BsrErin + 202
        0x000025e8:    1052        R.      ASRS     r2,r2,#1
        0x000025ea:    67ca        .g      STR      r2,[r1,#0x7c]
        0x000025ec:    1c40        @.      ADDS     r0,r0,#1
        0x000025ee:    42a8        .B      CMP      r0,r5
        0x000025f0:    dbcc        ..      BLT      0x258c ; BsrErin + 106
        0x000025f2:    9800        ..      LDR      r0,[sp,#0]
        0x000025f4:    6020         `      STR      r0,[r4,#0]
        0x000025f6:    4628        (F      MOV      r0,r5
        0x000025f8:    bdf8        ..      POP      {r3-r7,pc}
    i.BsrEva
    BsrEva
        0x000025fa:    2800        .(      CMP      r0,#0
        0x000025fc:    d00c        ..      BEQ      0x2618 ; BsrEva + 30
        0x000025fe:    30ff        .0      ADDS     r0,r0,#0xff
        0x00002600:    30ff        .0      ADDS     r0,r0,#0xff
        0x00002602:    3002        .0      ADDS     r0,#2
        0x00002604:    2900        .)      CMP      r1,#0
        0x00002606:    d001        ..      BEQ      0x260c ; BsrEva + 18
        0x00002608:    6a03        .j      LDR      r3,[r0,#0x20]
        0x0000260a:    600b        .`      STR      r3,[r1,#0]
        0x0000260c:    2a00        .*      CMP      r2,#0
        0x0000260e:    d001        ..      BEQ      0x2614 ; BsrEva + 26
        0x00002610:    69c0        .i      LDR      r0,[r0,#0x1c]
        0x00002612:    6010        .`      STR      r0,[r2,#0]
        0x00002614:    2000        .       MOVS     r0,#0
        0x00002616:    4770        pG      BX       lr
        0x00002618:    2000        .       MOVS     r0,#0
        0x0000261a:    43c0        .C      MVNS     r0,r0
        0x0000261c:    4770        pG      BX       lr
    i.BsrEvan
    BsrEvan
        0x0000261e:    b530        0.      PUSH     {r4,r5,lr}
        0x00002620:    4603        .F      MOV      r3,r0
        0x00002622:    2a00        .*      CMP      r2,#0
        0x00002624:    dd0b        ..      BLE      0x263e ; BsrEvan + 32
        0x00002626:    1e48        H.      SUBS     r0,r1,#1
        0x00002628:    4350        PC      MULS     r0,r2,r0
        0x0000262a:    1200        ..      ASRS     r0,r0,#8
        0x0000262c:    2201        ."      MOVS     r2,#1
        0x0000262e:    2400        .$      MOVS     r4,#0
        0x00002630:    1c40        @.      ADDS     r0,r0,#1
        0x00002632:    e002        ..      B        0x263a ; BsrEvan + 28
        0x00002634:    0095        ..      LSLS     r5,r2,#2
        0x00002636:    515c        \Q      STR      r4,[r3,r5]
        0x00002638:    1c52        R.      ADDS     r2,r2,#1
        0x0000263a:    4282        .B      CMP      r2,r0
        0x0000263c:    dbfa        ..      BLT      0x2634 ; BsrEvan + 22
        0x0000263e:    4608        .F      MOV      r0,r1
        0x00002640:    bd30        0.      POP      {r4,r5,pc}
        0x00002642:    0000        ..      MOVS     r0,r0
    i.BsrGary
    BsrGary
        0x00002644:    b5ff        ..      PUSH     {r0-r7,lr}
        0x00002646:    4696        .F      MOV      lr,r2
        0x00002648:    2917        .)      CMP      r1,#0x17
        0x0000264a:    d002        ..      BEQ      0x2652 ; BsrGary + 14
        0x0000264c:    2000        .       MOVS     r0,#0
        0x0000264e:    b004        ..      ADD      sp,sp,#0x10
        0x00002650:    bdf0        ..      POP      {r4-r7,pc}
        0x00002652:    2200        ."      MOVS     r2,#0
        0x00002654:    4611        .F      MOV      r1,r2
        0x00002656:    008b        ..      LSLS     r3,r1,#2
        0x00002658:    58c3        .X      LDR      r3,[r0,r3]
        0x0000265a:    1c49        I.      ADDS     r1,r1,#1
        0x0000265c:    189a        ..      ADDS     r2,r3,r2
        0x0000265e:    2917        .)      CMP      r1,#0x17
        0x00002660:    dbf9        ..      BLT      0x2656 ; BsrGary + 18
        0x00002662:    4671        qF      MOV      r1,lr
        0x00002664:    600a        .`      STR      r2,[r1,#0]
        0x00002666:    9903        ..      LDR      r1,[sp,#0xc]
        0x00002668:    2517        .%      MOVS     r5,#0x17
        0x0000266a:    2401        .$      MOVS     r4,#1
        0x0000266c:    1c49        I.      ADDS     r1,r1,#1
        0x0000266e:    4e0d        .N      LDR      r6,[pc,#52] ; [0x26a4] = 0x657e
        0x00002670:    468c        .F      MOV      r12,r1
        0x00002672:    e013        ..      B        0x269c ; BsrGary + 88
        0x00002674:    2300        .#      MOVS     r3,#0
        0x00002676:    4619        .F      MOV      r1,r3
        0x00002678:    008f        ..      LSLS     r7,r1,#2
        0x0000267a:    006a        j.      LSLS     r2,r5,#1
        0x0000267c:    59c7        .Y      LDR      r7,[r0,r7]
        0x0000267e:    5eb2        .^      LDRSH    r2,[r6,r2]
        0x00002680:    1c49        I.      ADDS     r1,r1,#1
        0x00002682:    4357        WC      MULS     r7,r2,r7
        0x00002684:    18fb        ..      ADDS     r3,r7,r3
        0x00002686:    1c6d        m.      ADDS     r5,r5,#1
        0x00002688:    2917        .)      CMP      r1,#0x17
        0x0000268a:    dbf5        ..      BLT      0x2678 ; BsrGary + 52
        0x0000268c:    33ff        .3      ADDS     r3,r3,#0xff
        0x0000268e:    33ff        .3      ADDS     r3,r3,#0xff
        0x00002690:    3302        .3      ADDS     r3,#2
        0x00002692:    1299        ..      ASRS     r1,r3,#10
        0x00002694:    00a2        ..      LSLS     r2,r4,#2
        0x00002696:    4673        sF      MOV      r3,lr
        0x00002698:    5099        .P      STR      r1,[r3,r2]
        0x0000269a:    1c64        d.      ADDS     r4,r4,#1
        0x0000269c:    4564        dE      CMP      r4,r12
        0x0000269e:    dbe9        ..      BLT      0x2674 ; BsrGary + 48
        0x000026a0:    9803        ..      LDR      r0,[sp,#0xc]
        0x000026a2:    e7d4        ..      B        0x264e ; BsrGary + 10
    $d
        0x000026a4:    0000657e    ~e..    DCD    25982
    $t
    i.BsrGreg
    BsrGreg
        0x000026a8:    b5f7        ..      PUSH     {r0-r2,r4-r7,lr}
        0x000026aa:    b092        ..      SUB      sp,sp,#0x48
        0x000026ac:    4605        .F      MOV      r5,r0
        0x000026ae:    9814        ..      LDR      r0,[sp,#0x50]
        0x000026b0:    460c        .F      MOV      r4,r1
        0x000026b2:    1fc1        ..      SUBS     r1,r0,#7
        0x000026b4:    39f9        .9      SUBS     r1,r1,#0xf9
        0x000026b6:    d002        ..      BEQ      0x26be ; BsrGreg + 22
        0x000026b8:    2000        .       MOVS     r0,#0
        0x000026ba:    b015        ..      ADD      sp,sp,#0x54
        0x000026bc:    bdf0        ..      POP      {r4-r7,pc}
        0x000026be:    2008        .       MOVS     r0,#8
        0x000026c0:    9003        ..      STR      r0,[sp,#0xc]
        0x000026c2:    4837        7H      LDR      r0,[pc,#220] ; [0x27a0] = 0x6802
        0x000026c4:    9009        ..      STR      r0,[sp,#0x24]
        0x000026c6:    30ff        .0      ADDS     r0,r0,#0xff
        0x000026c8:    3003        .0      ADDS     r0,#3
        0x000026ca:    900e        ..      STR      r0,[sp,#0x38]
        0x000026cc:    2008        .       MOVS     r0,#8
        0x000026ce:    900d        ..      STR      r0,[sp,#0x34]
        0x000026d0:    4621        !F      MOV      r1,r4
        0x000026d2:    4628        (F      MOV      r0,r5
        0x000026d4:    9a14        ..      LDR      r2,[sp,#0x50]
        0x000026d6:    f000f8f5    ....    BL       BsrIvan ; 0x28c4
        0x000026da:    2101        .!      MOVS     r1,#1
        0x000026dc:    2000        .       MOVS     r0,#0
        0x000026de:    9001        ..      STR      r0,[sp,#4]
        0x000026e0:    0048        H.      LSLS     r0,r1,#1
        0x000026e2:    9008        ..      STR      r0,[sp,#0x20]
        0x000026e4:    2000        .       MOVS     r0,#0
        0x000026e6:    9007        ..      STR      r0,[sp,#0x1c]
        0x000026e8:    9a01        ..      LDR      r2,[sp,#4]
        0x000026ea:    9803        ..      LDR      r0,[sp,#0xc]
        0x000026ec:    1a82        ..      SUBS     r2,r0,r2
        0x000026ee:    2001        .       MOVS     r0,#1
        0x000026f0:    1e52        R.      SUBS     r2,r2,#1
        0x000026f2:    4090        .@      LSLS     r0,r0,r2
        0x000026f4:    900a        ..      STR      r0,[sp,#0x28]
        0x000026f6:    980e        ..      LDR      r0,[sp,#0x38]
        0x000026f8:    2200        ."      MOVS     r2,#0
        0x000026fa:    5e82        .^      LDRSH    r2,[r0,r2]
        0x000026fc:    9206        ..      STR      r2,[sp,#0x18]
        0x000026fe:    9809        ..      LDR      r0,[sp,#0x24]
        0x00002700:    2200        ."      MOVS     r2,#0
        0x00002702:    5e82        .^      LDRSH    r2,[r0,r2]
        0x00002704:    2300        .#      MOVS     r3,#0
        0x00002706:    4696        .F      MOV      lr,r2
        0x00002708:    e03f        ?.      B        0x278a ; BsrGreg + 226
        0x0000270a:    461a        .F      MOV      r2,r3
        0x0000270c:    e02e        ..      B        0x276c ; BsrGreg + 196
        0x0000270e:    1850        P.      ADDS     r0,r2,r1
        0x00002710:    0086        ..      LSLS     r6,r0,#2
        0x00002712:    46b4        .F      MOV      r12,r6
        0x00002714:    59a8        .Y      LDR      r0,[r5,r6]
        0x00002716:    9e06        ..      LDR      r6,[sp,#0x18]
        0x00002718:    900c        ..      STR      r0,[sp,#0x30]
        0x0000271a:    4370        pC      MULS     r0,r6,r0
        0x0000271c:    4666        fF      MOV      r6,r12
        0x0000271e:    59a6        .Y      LDR      r6,[r4,r6]
        0x00002720:    4677        wF      MOV      r7,lr
        0x00002722:    960b        ..      STR      r6,[sp,#0x2c]
        0x00002724:    437e        ~C      MULS     r6,r7,r6
        0x00002726:    1b86        ..      SUBS     r6,r0,r6
        0x00002728:    980d        ..      LDR      r0,[sp,#0x34]
        0x0000272a:    4106        .A      ASRS     r6,r6,r0
        0x0000272c:    9610        ..      STR      r6,[sp,#0x40]
        0x0000272e:    980c        ..      LDR      r0,[sp,#0x30]
        0x00002730:    4676        vF      MOV      r6,lr
        0x00002732:    4370        pC      MULS     r0,r6,r0
        0x00002734:    9f06        ..      LDR      r7,[sp,#0x18]
        0x00002736:    9e0b        ..      LDR      r6,[sp,#0x2c]
        0x00002738:    437e        ~C      MULS     r6,r7,r6
        0x0000273a:    1986        ..      ADDS     r6,r0,r6
        0x0000273c:    980d        ..      LDR      r0,[sp,#0x34]
        0x0000273e:    4106        .A      ASRS     r6,r6,r0
        0x00002740:    960c        ..      STR      r6,[sp,#0x30]
        0x00002742:    0090        ..      LSLS     r0,r2,#2
        0x00002744:    582f        /X      LDR      r7,[r5,r0]
        0x00002746:    9e10        ..      LDR      r6,[sp,#0x40]
        0x00002748:    1bbf        ..      SUBS     r7,r7,r6
        0x0000274a:    4666        fF      MOV      r6,r12
        0x0000274c:    51af        .Q      STR      r7,[r5,r6]
        0x0000274e:    5827        'X      LDR      r7,[r4,r0]
        0x00002750:    9e0c        ..      LDR      r6,[sp,#0x30]
        0x00002752:    1bbe        ..      SUBS     r6,r7,r6
        0x00002754:    4667        gF      MOV      r7,r12
        0x00002756:    51e6        .Q      STR      r6,[r4,r7]
        0x00002758:    582f        /X      LDR      r7,[r5,r0]
        0x0000275a:    9e10        ..      LDR      r6,[sp,#0x40]
        0x0000275c:    19be        ..      ADDS     r6,r7,r6
        0x0000275e:    502e        .P      STR      r6,[r5,r0]
        0x00002760:    5827        'X      LDR      r7,[r4,r0]
        0x00002762:    9e0c        ..      LDR      r6,[sp,#0x30]
        0x00002764:    19be        ..      ADDS     r6,r7,r6
        0x00002766:    5026        &P      STR      r6,[r4,r0]
        0x00002768:    9808        ..      LDR      r0,[sp,#0x20]
        0x0000276a:    1812        ..      ADDS     r2,r2,r0
        0x0000276c:    9814        ..      LDR      r0,[sp,#0x50]
        0x0000276e:    4282        .B      CMP      r2,r0
        0x00002770:    dbcd        ..      BLT      0x270e ; BsrGreg + 102
        0x00002772:    9a0a        ..      LDR      r2,[sp,#0x28]
        0x00002774:    9807        ..      LDR      r0,[sp,#0x1c]
        0x00002776:    1880        ..      ADDS     r0,r0,r2
        0x00002778:    9007        ..      STR      r0,[sp,#0x1c]
        0x0000277a:    9a0e        ..      LDR      r2,[sp,#0x38]
        0x0000277c:    0040        @.      LSLS     r0,r0,#1
        0x0000277e:    5e12        .^      LDRSH    r2,[r2,r0]
        0x00002780:    9206        ..      STR      r2,[sp,#0x18]
        0x00002782:    9a09        ..      LDR      r2,[sp,#0x24]
        0x00002784:    1c5b        [.      ADDS     r3,r3,#1
        0x00002786:    5e10        .^      LDRSH    r0,[r2,r0]
        0x00002788:    4686        .F      MOV      lr,r0
        0x0000278a:    428b        .B      CMP      r3,r1
        0x0000278c:    dbbd        ..      BLT      0x270a ; BsrGreg + 98
        0x0000278e:    9801        ..      LDR      r0,[sp,#4]
        0x00002790:    9a03        ..      LDR      r2,[sp,#0xc]
        0x00002792:    1c40        @.      ADDS     r0,r0,#1
        0x00002794:    9908        ..      LDR      r1,[sp,#0x20]
        0x00002796:    9001        ..      STR      r0,[sp,#4]
        0x00002798:    4290        .B      CMP      r0,r2
        0x0000279a:    dba1        ..      BLT      0x26e0 ; BsrGreg + 56
        0x0000279c:    9814        ..      LDR      r0,[sp,#0x50]
        0x0000279e:    e78c        ..      B        0x26ba ; BsrGreg + 18
    $d
        0x000027a0:    00006802    .h..    DCD    26626
    $t
    i.BsrGuy
    BsrGuy
        0x000027a4:    2800        .(      CMP      r0,#0
        0x000027a6:    d005        ..      BEQ      0x27b4 ; BsrGuy + 16
        0x000027a8:    30ff        .0      ADDS     r0,r0,#0xff
        0x000027aa:    3081        .0      ADDS     r0,r0,#0x81
        0x000027ac:    2914        .)      CMP      r1,#0x14
        0x000027ae:    dd04        ..      BLE      0x27ba ; BsrGuy + 22
        0x000027b0:    220a        ."      MOVS     r2,#0xa
        0x000027b2:    e003        ..      B        0x27bc ; BsrGuy + 24
        0x000027b4:    2000        .       MOVS     r0,#0
        0x000027b6:    43c0        .C      MVNS     r0,r0
        0x000027b8:    4770        pG      BX       lr
        0x000027ba:    2205        ."      MOVS     r2,#5
        0x000027bc:    6542        Be      STR      r2,[r0,#0x54]
        0x000027be:    6501        .e      STR      r1,[r0,#0x50]
        0x000027c0:    2901        .)      CMP      r1,#1
        0x000027c2:    da01        ..      BGE      0x27c8 ; BsrGuy + 36
        0x000027c4:    2101        .!      MOVS     r1,#1
        0x000027c6:    6501        .e      STR      r1,[r0,#0x50]
        0x000027c8:    460a        .F      MOV      r2,r1
        0x000027ca:    6cc1        .l      LDR      r1,[r0,#0x4c]
        0x000027cc:    390a        .9      SUBS     r1,r1,#0xa
        0x000027ce:    428a        .B      CMP      r2,r1
        0x000027d0:    dd00        ..      BLE      0x27d4 ; BsrGuy + 48
        0x000027d2:    6501        .e      STR      r1,[r0,#0x50]
        0x000027d4:    2000        .       MOVS     r0,#0
        0x000027d6:    4770        pG      BX       lr
    i.BsrHugo
    BsrHugo
        0x000027d8:    b5f0        ..      PUSH     {r4-r7,lr}
        0x000027da:    104e        N.      ASRS     r6,r1,#1
        0x000027dc:    1fca        ..      SUBS     r2,r1,#7
        0x000027de:    3af9        .:      SUBS     r2,r2,#0xf9
        0x000027e0:    d119        ..      BNE      0x2816 ; BsrHugo + 62
        0x000027e2:    4c0d        .L      LDR      r4,[pc,#52] ; [0x2818] = 0x6c08
        0x000027e4:    e007        ..      B        0x27f6 ; BsrHugo + 30
        0x000027e6:    0093        ..      LSLS     r3,r2,#2
        0x000027e8:    58c5        .X      LDR      r5,[r0,r3]
        0x000027ea:    58e7        .X      LDR      r7,[r4,r3]
        0x000027ec:    437d        }C      MULS     r5,r7,r5
        0x000027ee:    3580        .5      ADDS     r5,r5,#0x80
        0x000027f0:    122d        -.      ASRS     r5,r5,#8
        0x000027f2:    50c5        .P      STR      r5,[r0,r3]
        0x000027f4:    1c52        R.      ADDS     r2,r2,#1
        0x000027f6:    42b2        .B      CMP      r2,r6
        0x000027f8:    dbf5        ..      BLT      0x27e6 ; BsrHugo + 14
        0x000027fa:    1e53        S.      SUBS     r3,r2,#1
        0x000027fc:    e009        ..      B        0x2812 ; BsrHugo + 58
        0x000027fe:    0095        ..      LSLS     r5,r2,#2
        0x00002800:    009f        ..      LSLS     r7,r3,#2
        0x00002802:    5946        FY      LDR      r6,[r0,r5]
        0x00002804:    59e7        .Y      LDR      r7,[r4,r7]
        0x00002806:    1c52        R.      ADDS     r2,r2,#1
        0x00002808:    437e        ~C      MULS     r6,r7,r6
        0x0000280a:    3680        .6      ADDS     r6,r6,#0x80
        0x0000280c:    1236        6.      ASRS     r6,r6,#8
        0x0000280e:    5146        FQ      STR      r6,[r0,r5]
        0x00002810:    1e5b        [.      SUBS     r3,r3,#1
        0x00002812:    428a        .B      CMP      r2,r1
        0x00002814:    dbf3        ..      BLT      0x27fe ; BsrHugo + 38
        0x00002816:    bdf0        ..      POP      {r4-r7,pc}
    $d
        0x00002818:    00006c08    .l..    DCD    27656
    $t
    i.BsrIris
    BsrIris
        0x0000281c:    b5f0        ..      PUSH     {r4-r7,lr}
        0x0000281e:    6843        Ch      LDR      r3,[r0,#4]
        0x00002820:    009b        ..      LSLS     r3,r3,#2
        0x00002822:    185b        [.      ADDS     r3,r3,r1
        0x00002824:    3b80        .;      SUBS     r3,r3,#0x80
        0x00002826:    6fdd        .o      LDR      r5,[r3,#0x7c]
        0x00002828:    2a00        .*      CMP      r2,#0
        0x0000282a:    d003        ..      BEQ      0x2834 ; BsrIris + 24
        0x0000282c:    2200        ."      MOVS     r2,#0
        0x0000282e:    61c2        .a      STR      r2,[r0,#0x1c]
        0x00002830:    2400        .$      MOVS     r4,#0
        0x00002832:    e00a        ..      B        0x284a ; BsrIris + 46
        0x00002834:    69c2        .i      LDR      r2,[r0,#0x1c]
        0x00002836:    e7fb        ..      B        0x2830 ; BsrIris + 20
        0x00002838:    00a6        ..      LSLS     r6,r4,#2
        0x0000283a:    27f3        .'      MOVS     r7,#0xf3
        0x0000283c:    598b        .Y      LDR      r3,[r1,r6]
        0x0000283e:    437a        zC      MULS     r2,r7,r2
        0x00002840:    1212        ..      ASRS     r2,r2,#8
        0x00002842:    1a9a        ..      SUBS     r2,r3,r2
        0x00002844:    518a        .Q      STR      r2,[r1,r6]
        0x00002846:    461a        .F      MOV      r2,r3
        0x00002848:    1c64        d.      ADDS     r4,r4,#1
        0x0000284a:    6803        .h      LDR      r3,[r0,#0]
        0x0000284c:    42a3        .B      CMP      r3,r4
        0x0000284e:    dcf3        ..      BGT      0x2838 ; BsrIris + 28
        0x00002850:    61c5        .a      STR      r5,[r0,#0x1c]
        0x00002852:    bdf0        ..      POP      {r4-r7,pc}
    i.BsrIrma
    BsrIrma
        0x00002854:    b5f0        ..      PUSH     {r4-r7,lr}
        0x00002856:    2a00        .*      CMP      r2,#0
        0x00002858:    d002        ..      BEQ      0x2860 ; BsrIrma + 12
        0x0000285a:    2200        ."      MOVS     r2,#0
        0x0000285c:    6202        .b      STR      r2,[r0,#0x20]
        0x0000285e:    6242        Bb      STR      r2,[r0,#0x24]
        0x00002860:    6842        Bh      LDR      r2,[r0,#4]
        0x00002862:    6a44        Dj      LDR      r4,[r0,#0x24]
        0x00002864:    0092        ..      LSLS     r2,r2,#2
        0x00002866:    1852        R.      ADDS     r2,r2,r1
        0x00002868:    3a80        .:      SUBS     r2,r2,#0x80
        0x0000286a:    6fd2        .o      LDR      r2,[r2,#0x7c]
        0x0000286c:    4694        .F      MOV      r12,r2
        0x0000286e:    6a02        .j      LDR      r2,[r0,#0x20]
        0x00002870:    0292        ..      LSLS     r2,r2,#10
        0x00002872:    2300        .#      MOVS     r3,#0
        0x00002874:    e00a        ..      B        0x288c ; BsrIrma + 56
        0x00002876:    009e        ..      LSLS     r6,r3,#2
        0x00002878:    598d        .Y      LDR      r5,[r1,r6]
        0x0000287a:    4f0a        .O      LDR      r7,[pc,#40] ; [0x28a4] = 0x3e6
        0x0000287c:    02ad        ..      LSLS     r5,r5,#10
        0x0000287e:    1aaa        ..      SUBS     r2,r5,r2
        0x00002880:    437c        |C      MULS     r4,r7,r4
        0x00002882:    1912        ..      ADDS     r2,r2,r4
        0x00002884:    1294        ..      ASRS     r4,r2,#10
        0x00002886:    518c        .Q      STR      r4,[r1,r6]
        0x00002888:    462a        *F      MOV      r2,r5
        0x0000288a:    1c5b        [.      ADDS     r3,r3,#1
        0x0000288c:    6805        .h      LDR      r5,[r0,#0]
        0x0000288e:    429d        .B      CMP      r5,r3
        0x00002890:    dcf1        ..      BGT      0x2876 ; BsrIrma + 34
        0x00002892:    4662        bF      MOV      r2,r12
        0x00002894:    6202        .b      STR      r2,[r0,#0x20]
        0x00002896:    6842        Bh      LDR      r2,[r0,#4]
        0x00002898:    0092        ..      LSLS     r2,r2,#2
        0x0000289a:    1851        Q.      ADDS     r1,r2,r1
        0x0000289c:    3980        .9      SUBS     r1,r1,#0x80
        0x0000289e:    6fc9        .o      LDR      r1,[r1,#0x7c]
        0x000028a0:    6241        Ab      STR      r1,[r0,#0x24]
        0x000028a2:    bdf0        ..      POP      {r4-r7,pc}
    $d
        0x000028a4:    000003e6    ....    DCD    998
    $t
    i.BsrIsai
    BsrIsai
        0x000028a8:    b530        0.      PUSH     {r4,r5,lr}
        0x000028aa:    2a00        .*      CMP      r2,#0
        0x000028ac:    d008        ..      BEQ      0x28c0 ; BsrIsai + 24
        0x000028ae:    2300        .#      MOVS     r3,#0
        0x000028b0:    e004        ..      B        0x28bc ; BsrIsai + 20
        0x000028b2:    009c        ..      LSLS     r4,r3,#2
        0x000028b4:    5905        .Y      LDR      r5,[r0,r4]
        0x000028b6:    4115        .A      ASRS     r5,r5,r2
        0x000028b8:    5105        .Q      STR      r5,[r0,r4]
        0x000028ba:    1c5b        [.      ADDS     r3,r3,#1
        0x000028bc:    428b        .B      CMP      r3,r1
        0x000028be:    dbf8        ..      BLT      0x28b2 ; BsrIsai + 10
        0x000028c0:    bd30        0.      POP      {r4,r5,pc}
        0x000028c2:    0000        ..      MOVS     r0,r0
    i.BsrIvan
    BsrIvan
        0x000028c4:    b5fc        ..      PUSH     {r2-r7,lr}
        0x000028c6:    1fd3        ..      SUBS     r3,r2,#7
        0x000028c8:    3bf9        .;      SUBS     r3,r3,#0xf9
        0x000028ca:    d13b        ;.      BNE      0x2944 ; BsrIvan + 128
        0x000028cc:    4c1e        .L      LDR      r4,[pc,#120] ; [0x2948] = 0x6a06
        0x000028ce:    2302        .#      MOVS     r3,#2
        0x000028d0:    5ee3        .^      LDRSH    r3,[r4,r3]
        0x000028d2:    6845        Eh      LDR      r5,[r0,#4]
        0x000028d4:    009b        ..      LSLS     r3,r3,#2
        0x000028d6:    58c6        .X      LDR      r6,[r0,r3]
        0x000028d8:    6046        F`      STR      r6,[r0,#4]
        0x000028da:    50c5        .P      STR      r5,[r0,r3]
        0x000028dc:    58ce        .X      LDR      r6,[r1,r3]
        0x000028de:    684d        Mh      LDR      r5,[r1,#4]
        0x000028e0:    604e        N`      STR      r6,[r1,#4]
        0x000028e2:    50cd        .P      STR      r5,[r1,r3]
        0x000028e4:    2302        .#      MOVS     r3,#2
        0x000028e6:    461d        .F      MOV      r5,r3
        0x000028e8:    1092        ..      ASRS     r2,r2,#2
        0x000028ea:    e028        (.      B        0x293e ; BsrIvan + 122
        0x000028ec:    2200        ."      MOVS     r2,#0
        0x000028ee:    e021        !.      B        0x2934 ; BsrIvan + 112
        0x000028f0:    005f        _.      LSLS     r7,r3,#1
        0x000028f2:    46be        .F      MOV      lr,r7
        0x000028f4:    5fe7        ._      LDRSH    r7,[r4,r7]
        0x000028f6:    429f        .B      CMP      r7,r3
        0x000028f8:    dd1a        ..      BLE      0x2930 ; BsrIvan + 108
        0x000028fa:    009e        ..      LSLS     r6,r3,#2
        0x000028fc:    9600        ..      STR      r6,[sp,#0]
        0x000028fe:    5986        .Y      LDR      r6,[r0,r6]
        0x00002900:    9601        ..      STR      r6,[sp,#4]
        0x00002902:    00be        ..      LSLS     r6,r7,#2
        0x00002904:    5987        .Y      LDR      r7,[r0,r6]
        0x00002906:    9e00        ..      LDR      r6,[sp,#0]
        0x00002908:    5187        .Q      STR      r7,[r0,r6]
        0x0000290a:    4677        wF      MOV      r7,lr
        0x0000290c:    5fe7        ._      LDRSH    r7,[r4,r7]
        0x0000290e:    9e01        ..      LDR      r6,[sp,#4]
        0x00002910:    00bf        ..      LSLS     r7,r7,#2
        0x00002912:    51c6        .Q      STR      r6,[r0,r7]
        0x00002914:    9e00        ..      LDR      r6,[sp,#0]
        0x00002916:    4677        wF      MOV      r7,lr
        0x00002918:    598e        .Y      LDR      r6,[r1,r6]
        0x0000291a:    9601        ..      STR      r6,[sp,#4]
        0x0000291c:    5fe6        ._      LDRSH    r6,[r4,r7]
        0x0000291e:    00b6        ..      LSLS     r6,r6,#2
        0x00002920:    598f        .Y      LDR      r7,[r1,r6]
        0x00002922:    9e00        ..      LDR      r6,[sp,#0]
        0x00002924:    518f        .Q      STR      r7,[r1,r6]
        0x00002926:    4677        wF      MOV      r7,lr
        0x00002928:    5fe7        ._      LDRSH    r7,[r4,r7]
        0x0000292a:    9e01        ..      LDR      r6,[sp,#4]
        0x0000292c:    00bf        ..      LSLS     r7,r7,#2
        0x0000292e:    51ce        .Q      STR      r6,[r1,r7]
        0x00002930:    1c52        R.      ADDS     r2,r2,#1
        0x00002932:    1c5b        [.      ADDS     r3,r3,#1
        0x00002934:    42aa        .B      CMP      r2,r5
        0x00002936:    dbdb        ..      BLT      0x28f0 ; BsrIvan + 44
        0x00002938:    006d        m.      LSLS     r5,r5,#1
        0x0000293a:    4662        bF      MOV      r2,r12
        0x0000293c:    1052        R.      ASRS     r2,r2,#1
        0x0000293e:    4694        .F      MOV      r12,r2
        0x00002940:    2a00        .*      CMP      r2,#0
        0x00002942:    d1d3        ..      BNE      0x28ec ; BsrIvan + 40
        0x00002944:    bdfc        ..      POP      {r2-r7,pc}
    $d
        0x00002946:    0000        ..      DCW    0
        0x00002948:    00006a06    .j..    DCD    27142
    $t
    i.BsrIvy
    BsrIvy
        0x0000294c:    b530        0.      PUSH     {r4,r5,lr}
        0x0000294e:    2800        .(      CMP      r0,#0
        0x00002950:    d007        ..      BEQ      0x2962 ; BsrIvy + 22
        0x00002952:    6d83        .m      LDR      r3,[r0,#0x58]
        0x00002954:    428b        .B      CMP      r3,r1
        0x00002956:    dd01        ..      BLE      0x295c ; BsrIvy + 16
        0x00002958:    2900        .)      CMP      r1,#0
        0x0000295a:    da05        ..      BGE      0x2968 ; BsrIvy + 28
        0x0000295c:    200b        .       MOVS     r0,#0xb
        0x0000295e:    43c0        .C      MVNS     r0,r0
        0x00002960:    bd30        0.      POP      {r4,r5,pc}
        0x00002962:    2000        .       MOVS     r0,#0
        0x00002964:    43c0        .C      MVNS     r0,r0
        0x00002966:    bd30        0.      POP      {r4,r5,pc}
        0x00002968:    2300        .#      MOVS     r3,#0
        0x0000296a:    6ac4        .j      LDR      r4,[r0,#0x2c]
        0x0000296c:    e007        ..      B        0x297e ; BsrIvy + 50
        0x0000296e:    009d        ..      LSLS     r5,r3,#2
        0x00002970:    182d        -.      ADDS     r5,r5,r0
        0x00002972:    35ff        .5      ADDS     r5,r5,#0xff
        0x00002974:    3501        .5      ADDS     r5,#1
        0x00002976:    6ced        .l      LDR      r5,[r5,#0x4c]
        0x00002978:    428d        .B      CMP      r5,r1
        0x0000297a:    dc02        ..      BGT      0x2982 ; BsrIvy + 54
        0x0000297c:    1c5b        [.      ADDS     r3,r3,#1
        0x0000297e:    429c        .B      CMP      r4,r3
        0x00002980:    dcf5        ..      BGT      0x296e ; BsrIvy + 34
        0x00002982:    2b00        .+      CMP      r3,#0
        0x00002984:    dd05        ..      BLE      0x2992 ; BsrIvy + 70
        0x00002986:    009c        ..      LSLS     r4,r3,#2
        0x00002988:    1824        $.      ADDS     r4,r4,r0
        0x0000298a:    34ff        .4      ADDS     r4,r4,#0xff
        0x0000298c:    3401        .4      ADDS     r4,#1
        0x0000298e:    6ca4        .l      LDR      r4,[r4,#0x48]
        0x00002990:    e000        ..      B        0x2994 ; BsrIvy + 72
        0x00002992:    2400        .$      MOVS     r4,#0
        0x00002994:    009b        ..      LSLS     r3,r3,#2
        0x00002996:    181b        ..      ADDS     r3,r3,r0
        0x00002998:    33ff        .3      ADDS     r3,r3,#0xff
        0x0000299a:    3381        .3      ADDS     r3,r3,#0x81
        0x0000299c:    1b0c        ..      SUBS     r4,r1,r4
        0x0000299e:    69db        .i      LDR      r3,[r3,#0x1c]
        0x000029a0:    00a4        ..      LSLS     r4,r4,#2
        0x000029a2:    5b1b        .[      LDRH     r3,[r3,r4]
        0x000029a4:    30ff        .0      ADDS     r0,r0,#0xff
        0x000029a6:    189a        ..      ADDS     r2,r3,r2
        0x000029a8:    3081        .0      ADDS     r0,r0,#0x81
        0x000029aa:    6c80        .l      LDR      r0,[r0,#0x48]
        0x000029ac:    0049        I.      LSLS     r1,r1,#1
        0x000029ae:    5242        BR      STRH     r2,[r0,r1]
        0x000029b0:    2000        .       MOVS     r0,#0
        0x000029b2:    bd30        0.      POP      {r4,r5,pc}
    i.BsrJade
    BsrJade
        0x000029b4:    b5f8        ..      PUSH     {r3-r7,lr}
        0x000029b6:    4604        .F      MOV      r4,r0
        0x000029b8:    6800        .h      LDR      r0,[r0,#0]
        0x000029ba:    9000        ..      STR      r0,[sp,#0]
        0x000029bc:    6863        ch      LDR      r3,[r4,#4]
        0x000029be:    468e        .F      MOV      lr,r1
        0x000029c0:    0099        ..      LSLS     r1,r3,#2
        0x000029c2:    3118        .1      ADDS     r1,r1,#0x18
        0x000029c4:    1909        ..      ADDS     r1,r1,r4
        0x000029c6:    6809        .h      LDR      r1,[r1,#0]
        0x000029c8:    2601        .&      MOVS     r6,#1
        0x000029ca:    4675        uF      MOV      r5,lr
        0x000029cc:    602e        .`      STR      r6,[r5,#0]
        0x000029ce:    004d        M.      LSLS     r5,r1,#1
        0x000029d0:    194d        M.      ADDS     r5,r1,r5
        0x000029d2:    6011        .`      STR      r1,[r2,#0]
        0x000029d4:    4359        YC      MULS     r1,r3,r1
        0x000029d6:    0049        I.      LSLS     r1,r1,#1
        0x000029d8:    1d98        ..      ADDS     r0,r3,#6
        0x000029da:    1869        i.      ADDS     r1,r5,r1
        0x000029dc:    1808        ..      ADDS     r0,r1,r0
        0x000029de:    2100        .!      MOVS     r1,#0
        0x000029e0:    468c        .F      MOV      r12,r1
        0x000029e2:    1c40        @.      ADDS     r0,r0,#1
        0x000029e4:    e01d        ..      B        0x2a22 ; BsrJade + 110
        0x000029e6:    0081        ..      LSLS     r1,r0,#2
        0x000029e8:    1909        ..      ADDS     r1,r1,r4
        0x000029ea:    680f        .h      LDR      r7,[r1,#0]
        0x000029ec:    4671        qF      MOV      r1,lr
        0x000029ee:    6809        .h      LDR      r1,[r1,#0]
        0x000029f0:    4675        uF      MOV      r5,lr
        0x000029f2:    19c9        ..      ADDS     r1,r1,r7
        0x000029f4:    2600        .&      MOVS     r6,#0
        0x000029f6:    1c40        @.      ADDS     r0,r0,#1
        0x000029f8:    6029        )`      STR      r1,[r5,#0]
        0x000029fa:    e00d        ..      B        0x2a18 ; BsrJade + 100
        0x000029fc:    0085        ..      LSLS     r5,r0,#2
        0x000029fe:    192d        -.      ADDS     r5,r5,r4
        0x00002a00:    682d        -h      LDR      r5,[r5,#0]
        0x00002a02:    6811        .h      LDR      r1,[r2,#0]
        0x00002a04:    1949        I.      ADDS     r1,r1,r5
        0x00002a06:    6011        .`      STR      r1,[r2,#0]
        0x00002a08:    0069        i.      LSLS     r1,r5,#1
        0x00002a0a:    1869        i.      ADDS     r1,r5,r1
        0x00002a0c:    435d        ]C      MULS     r5,r3,r5
        0x00002a0e:    006d        m.      LSLS     r5,r5,#1
        0x00002a10:    194d        M.      ADDS     r5,r1,r5
        0x00002a12:    1828        (.      ADDS     r0,r5,r0
        0x00002a14:    1c40        @.      ADDS     r0,r0,#1
        0x00002a16:    1c76        v.      ADDS     r6,r6,#1
        0x00002a18:    42be        .B      CMP      r6,r7
        0x00002a1a:    dbef        ..      BLT      0x29fc ; BsrJade + 72
        0x00002a1c:    4661        aF      MOV      r1,r12
        0x00002a1e:    1c49        I.      ADDS     r1,r1,#1
        0x00002a20:    468c        .F      MOV      r12,r1
        0x00002a22:    9900        ..      LDR      r1,[sp,#0]
        0x00002a24:    458c        .E      CMP      r12,r1
        0x00002a26:    dbde        ..      BLT      0x29e6 ; BsrJade + 50
        0x00002a28:    bdf8        ..      POP      {r3-r7,pc}
    i.BsrJami
    BsrJami
        0x00002a2a:    b5ff        ..      PUSH     {r0-r7,lr}
        0x00002a2c:    4617        .F      MOV      r7,r2
        0x00002a2e:    460e        .F      MOV      r6,r1
        0x00002a30:    008a        ..      LSLS     r2,r1,#2
        0x00002a32:    b089        ..      SUB      sp,sp,#0x24
        0x00002a34:    4601        .F      MOV      r1,r0
        0x00002a36:    2500        .%      MOVS     r5,#0
        0x00002a38:    4668        hF      MOV      r0,sp
        0x00002a3a:    f000fc5b    ..[.    BL       BsrJose ; 0x32f4
        0x00002a3e:    2400        .$      MOVS     r4,#0
        0x00002a40:    4621        !F      MOV      r1,r4
        0x00002a42:    4668        hF      MOV      r0,sp
        0x00002a44:    e006        ..      B        0x2a54 ; BsrJami + 42
        0x00002a46:    008a        ..      LSLS     r2,r1,#2
        0x00002a48:    5882        .X      LDR      r2,[r0,r2]
        0x00002a4a:    1914        ..      ADDS     r4,r2,r4
        0x00002a4c:    437a        zC      MULS     r2,r7,r2
        0x00002a4e:    d500        ..      BPL      0x2a52 ; BsrJami + 40
        0x00002a50:    2501        .%      MOVS     r5,#1
        0x00002a52:    1c49        I.      ADDS     r1,r1,#1
        0x00002a54:    42b1        .B      CMP      r1,r6
        0x00002a56:    dbf6        ..      BLT      0x2a46 ; BsrJami + 28
        0x00002a58:    2d00        .-      CMP      r5,#0
        0x00002a5a:    d00a        ..      BEQ      0x2a72 ; BsrJami + 72
        0x00002a5c:    2400        .$      MOVS     r4,#0
        0x00002a5e:    4621        !F      MOV      r1,r4
        0x00002a60:    e005        ..      B        0x2a6e ; BsrJami + 68
        0x00002a62:    008b        ..      LSLS     r3,r1,#2
        0x00002a64:    58c2        .X      LDR      r2,[r0,r3]
        0x00002a66:    1212        ..      ASRS     r2,r2,#8
        0x00002a68:    1914        ..      ADDS     r4,r2,r4
        0x00002a6a:    50c2        .P      STR      r2,[r0,r3]
        0x00002a6c:    1c49        I.      ADDS     r1,r1,#1
        0x00002a6e:    42b1        .B      CMP      r1,r6
        0x00002a70:    dbf7        ..      BLT      0x2a62 ; BsrJami + 56
        0x00002a72:    2500        .%      MOVS     r5,#0
        0x00002a74:    e00e        ..      B        0x2a94 ; BsrJami + 106
        0x00002a76:    2c00        .,      CMP      r4,#0
        0x00002a78:    dd07        ..      BLE      0x2a8a ; BsrJami + 96
        0x00002a7a:    00a9        ..      LSLS     r1,r5,#2
        0x00002a7c:    4668        hF      MOV      r0,sp
        0x00002a7e:    5840        @X      LDR      r0,[r0,r1]
        0x00002a80:    4621        !F      MOV      r1,r4
        0x00002a82:    4378        xC      MULS     r0,r7,r0
        0x00002a84:    f7fdfbc8    ....    BL       __aeabi_idiv ; 0x218
        0x00002a88:    e000        ..      B        0x2a8c ; BsrJami + 98
        0x00002a8a:    2000        .       MOVS     r0,#0
        0x00002a8c:    00aa        ..      LSLS     r2,r5,#2
        0x00002a8e:    990c        ..      LDR      r1,[sp,#0x30]
        0x00002a90:    1c6d        m.      ADDS     r5,r5,#1
        0x00002a92:    5088        .P      STR      r0,[r1,r2]
        0x00002a94:    42b5        .B      CMP      r5,r6
        0x00002a96:    dbee        ..      BLT      0x2a76 ; BsrJami + 76
        0x00002a98:    4628        (F      MOV      r0,r5
        0x00002a9a:    b00d        ..      ADD      sp,sp,#0x34
        0x00002a9c:    bdf0        ..      POP      {r4-r7,pc}
    i.BsrJan
    BsrJan
        0x00002a9e:    2800        .(      CMP      r0,#0
        0x00002aa0:    d001        ..      BEQ      0x2aa6 ; BsrJan + 8
        0x00002aa2:    2900        .)      CMP      r1,#0
        0x00002aa4:    dc02        ..      BGT      0x2aac ; BsrJan + 14
        0x00002aa6:    2000        .       MOVS     r0,#0
        0x00002aa8:    43c0        .C      MVNS     r0,r0
        0x00002aaa:    4770        pG      BX       lr
        0x00002aac:    30ff        .0      ADDS     r0,r0,#0xff
        0x00002aae:    30ff        .0      ADDS     r0,r0,#0xff
        0x00002ab0:    3002        .0      ADDS     r0,#2
        0x00002ab2:    6281        .b      STR      r1,[r0,#0x28]
        0x00002ab4:    2000        .       MOVS     r0,#0
        0x00002ab6:    4770        pG      BX       lr
    i.BsrJana
    BsrJana
        0x00002ab8:    b510        ..      PUSH     {r4,lr}
        0x00002aba:    4604        .F      MOV      r4,r0
        0x00002abc:    6c00        .l      LDR      r0,[r0,#0x40]
        0x00002abe:    005b        [.      LSLS     r3,r3,#1
        0x00002ac0:    5ec3        .^      LDRSH    r3,[r0,r3]
        0x00002ac2:    0052        R.      LSLS     r2,r2,#1
        0x00002ac4:    5e80        .^      LDRSH    r0,[r0,r2]
        0x00002ac6:    220a        ."      MOVS     r2,#0xa
        0x00002ac8:    1a18        ..      SUBS     r0,r3,r0
        0x00002aca:    9902        ..      LDR      r1,[sp,#8]
        0x00002acc:    4350        PC      MULS     r0,r2,r0
        0x00002ace:    f7fdfba3    ....    BL       __aeabi_idiv ; 0x218
        0x00002ad2:    34ff        .4      ADDS     r4,r4,#0xff
        0x00002ad4:    34ff        .4      ADDS     r4,r4,#0xff
        0x00002ad6:    3402        .4      ADDS     r4,#2
        0x00002ad8:    6ae1        .j      LDR      r1,[r4,#0x2c]
        0x00002ada:    220a        ."      MOVS     r2,#0xa
        0x00002adc:    4351        QC      MULS     r1,r2,r1
        0x00002ade:    1840        @.      ADDS     r0,r0,r1
        0x00002ae0:    bd10        ..      POP      {r4,pc}
    i.BsrJane
    BsrJane
        0x00002ae2:    b510        ..      PUSH     {r4,lr}
        0x00002ae4:    6c40        @l      LDR      r0,[r0,#0x44]
        0x00002ae6:    005b        [.      LSLS     r3,r3,#1
        0x00002ae8:    5ec3        .^      LDRSH    r3,[r0,r3]
        0x00002aea:    0052        R.      LSLS     r2,r2,#1
        0x00002aec:    5e80        .^      LDRSH    r0,[r0,r2]
        0x00002aee:    220a        ."      MOVS     r2,#0xa
        0x00002af0:    1a18        ..      SUBS     r0,r3,r0
        0x00002af2:    9902        ..      LDR      r1,[sp,#8]
        0x00002af4:    4350        PC      MULS     r0,r2,r0
        0x00002af6:    f7fdfb8f    ....    BL       __aeabi_idiv ; 0x218
        0x00002afa:    bd10        ..      POP      {r4,pc}
    i.BsrJanek
    BsrJanek
        0x00002afc:    b5f8        ..      PUSH     {r3-r7,lr}
        0x00002afe:    1dc5        ..      ADDS     r5,r0,#7
        0x00002b00:    469c        .F      MOV      r12,r3
        0x00002b02:    35f9        .5      ADDS     r5,r5,#0xf9
        0x00002b04:    0089        ..      LSLS     r1,r1,#2
        0x00002b06:    180c        ..      ADDS     r4,r1,r0
        0x00002b08:    6a2b        +j      LDR      r3,[r5,#0x20]
        0x00002b0a:    0056        V.      LSLS     r6,r2,#1
        0x00002b0c:    3480        .4      ADDS     r4,r4,#0x80
        0x00002b0e:    2b00        .+      CMP      r3,#0
        0x00002b10:    dd05        ..      BLE      0x2b1e ; BsrJanek + 34
        0x00002b12:    6fa1        .o      LDR      r1,[r4,#0x78]
        0x00002b14:    5f89        ._      LDRSH    r1,[r1,r6]
        0x00002b16:    2900        .)      CMP      r1,#0
        0x00002b18:    d001        ..      BEQ      0x2b1e ; BsrJanek + 34
        0x00002b1a:    4608        .F      MOV      r0,r1
        0x00002b1c:    bdf8        ..      POP      {r3-r7,pc}
        0x00002b1e:    1117        ..      ASRS     r7,r2,#4
        0x00002b20:    2f1f        ./      CMP      r7,#0x1f
        0x00002b22:    dd00        ..      BLE      0x2b26 ; BsrJanek + 42
        0x00002b24:    271f        .'      MOVS     r7,#0x1f
        0x00002b26:    6d21        !m      LDR      r1,[r4,#0x50]
        0x00002b28:    00bb        ..      LSLS     r3,r7,#2
        0x00002b2a:    58c9        .X      LDR      r1,[r1,r3]
        0x00002b2c:    6aa3        .j      LDR      r3,[r4,#0x28]
        0x00002b2e:    0089        ..      LSLS     r1,r1,#2
        0x00002b30:    18c9        ..      ADDS     r1,r1,r3
        0x00002b32:    013f        ?.      LSLS     r7,r7,#4
        0x00002b34:    e003        ..      B        0x2b3e ; BsrJanek + 66
        0x00002b36:    680b        .h      LDR      r3,[r1,#0]
        0x00002b38:    009b        ..      LSLS     r3,r3,#2
        0x00002b3a:    1859        Y.      ADDS     r1,r3,r1
        0x00002b3c:    1c7f        ..      ADDS     r7,r7,#1
        0x00002b3e:    4297        .B      CMP      r7,r2
        0x00002b40:    dbf9        ..      BLT      0x2b36 ; BsrJanek + 58
        0x00002b42:    2200        ."      MOVS     r2,#0
        0x00002b44:    9200        ..      STR      r2,[sp,#0]
        0x00002b46:    4662        bF      MOV      r2,r12
        0x00002b48:    6e03        .n      LDR      r3,[r0,#0x60]
        0x00002b4a:    f7fefa61    ..a.    BL       BsrBret ; 0x1010
        0x00002b4e:    6a29        )j      LDR      r1,[r5,#0x20]
        0x00002b50:    2900        .)      CMP      r1,#0
        0x00002b52:    dde3        ..      BLE      0x2b1c ; BsrJanek + 32
        0x00002b54:    6fa1        .o      LDR      r1,[r4,#0x78]
        0x00002b56:    5388        .S      STRH     r0,[r1,r6]
        0x00002b58:    bdf8        ..      POP      {r3-r7,pc}
    i.BsrJanelle
    BsrJanelle
        0x00002b5a:    b510        ..      PUSH     {r4,lr}
        0x00002b5c:    6842        Bh      LDR      r2,[r0,#4]
        0x00002b5e:    2a00        .*      CMP      r2,#0
        0x00002b60:    d032        2.      BEQ      0x2bc8 ; BsrJanelle + 110
        0x00002b62:    6ac3        .j      LDR      r3,[r0,#0x2c]
        0x00002b64:    2b00        .+      CMP      r3,#0
        0x00002b66:    dd2f        /.      BLE      0x2bc8 ; BsrJanelle + 110
        0x00002b68:    2200        ."      MOVS     r2,#0
        0x00002b6a:    e007        ..      B        0x2b7c ; BsrJanelle + 34
        0x00002b6c:    0094        ..      LSLS     r4,r2,#2
        0x00002b6e:    1824        $.      ADDS     r4,r4,r0
        0x00002b70:    34ff        .4      ADDS     r4,r4,#0xff
        0x00002b72:    3401        .4      ADDS     r4,#1
        0x00002b74:    6ce4        .l      LDR      r4,[r4,#0x4c]
        0x00002b76:    428c        .B      CMP      r4,r1
        0x00002b78:    dc02        ..      BGT      0x2b80 ; BsrJanelle + 38
        0x00002b7a:    1c52        R.      ADDS     r2,r2,#1
        0x00002b7c:    4293        .B      CMP      r3,r2
        0x00002b7e:    dcf5        ..      BGT      0x2b6c ; BsrJanelle + 18
        0x00002b80:    4293        .B      CMP      r3,r2
        0x00002b82:    dd21        !.      BLE      0x2bc8 ; BsrJanelle + 110
        0x00002b84:    0093        ..      LSLS     r3,r2,#2
        0x00002b86:    181b        ..      ADDS     r3,r3,r0
        0x00002b88:    6858        Xh      LDR      r0,[r3,#4]
        0x00002b8a:    2414        .$      MOVS     r4,#0x14
        0x00002b8c:    5f04        ._      LDRSH    r4,[r0,r4]
        0x00002b8e:    2001        .       MOVS     r0,#1
        0x00002b90:    0300        ..      LSLS     r0,r0,#12
        0x00002b92:    4284        .B      CMP      r4,r0
        0x00002b94:    db18        ..      BLT      0x2bc8 ; BsrJanelle + 110
        0x00002b96:    33ff        .3      ADDS     r3,r3,#0xff
        0x00002b98:    3301        .3      ADDS     r3,#1
        0x00002b9a:    6a58        Xj      LDR      r0,[r3,#0x24]
        0x00002b9c:    2a00        .*      CMP      r2,#0
        0x00002b9e:    dd01        ..      BLE      0x2ba4 ; BsrJanelle + 74
        0x00002ba0:    6c9a        .l      LDR      r2,[r3,#0x48]
        0x00002ba2:    e005        ..      B        0x2bb0 ; BsrJanelle + 86
        0x00002ba4:    2200        ."      MOVS     r2,#0
        0x00002ba6:    e003        ..      B        0x2bb0 ; BsrJanelle + 86
        0x00002ba8:    6803        .h      LDR      r3,[r0,#0]
        0x00002baa:    009b        ..      LSLS     r3,r3,#2
        0x00002bac:    1818        ..      ADDS     r0,r3,r0
        0x00002bae:    1c52        R.      ADDS     r2,r2,#1
        0x00002bb0:    428a        .B      CMP      r2,r1
        0x00002bb2:    dbf9        ..      BLT      0x2ba8 ; BsrJanelle + 78
        0x00002bb4:    6801        .h      LDR      r1,[r0,#0]
        0x00002bb6:    0089        ..      LSLS     r1,r1,#2
        0x00002bb8:    1808        ..      ADDS     r0,r1,r0
        0x00002bba:    3808        .8      SUBS     r0,r0,#8
        0x00002bbc:    7880        .x      LDRB     r0,[r0,#2]
        0x00002bbe:    0600        ..      LSLS     r0,r0,#24
        0x00002bc0:    0e00        ..      LSRS     r0,r0,#24
        0x00002bc2:    d001        ..      BEQ      0x2bc8 ; BsrJanelle + 110
        0x00002bc4:    2001        .       MOVS     r0,#1
        0x00002bc6:    bd10        ..      POP      {r4,pc}
        0x00002bc8:    2000        .       MOVS     r0,#0
        0x00002bca:    bd10        ..      POP      {r4,pc}
    i.BsrJean
    BsrJean
        0x00002bcc:    b5f8        ..      PUSH     {r3-r7,lr}
        0x00002bce:    6d83        .m      LDR      r3,[r0,#0x58]
        0x00002bd0:    428b        .B      CMP      r3,r1
        0x00002bd2:    dd48        H.      BLE      0x2c66 ; BsrJean + 154
        0x00002bd4:    2a00        .*      CMP      r2,#0
        0x00002bd6:    db44        D.      BLT      0x2c62 ; BsrJean + 150
        0x00002bd8:    6b03        .k      LDR      r3,[r0,#0x30]
        0x00002bda:    9300        ..      STR      r3,[sp,#0]
        0x00002bdc:    23ff        .#      MOVS     r3,#0xff
        0x00002bde:    2600        .&      MOVS     r6,#0
        0x00002be0:    3325        %3      ADDS     r3,r3,#0x25
        0x00002be2:    581b        .X      LDR      r3,[r3,r0]
        0x00002be4:    2401        .$      MOVS     r4,#1
        0x00002be6:    4635        5F      MOV      r5,r6
        0x00002be8:    e015        ..      B        0x2c16 ; BsrJean + 74
        0x00002bea:    00b7        ..      LSLS     r7,r6,#2
        0x00002bec:    183f        ?.      ADDS     r7,r7,r0
        0x00002bee:    37ff        .7      ADDS     r7,r7,#0xff
        0x00002bf0:    3701        .7      ADDS     r7,#1
        0x00002bf2:    6cff        .l      LDR      r7,[r7,#0x4c]
        0x00002bf4:    42af        .B      CMP      r7,r5
        0x00002bf6:    dc05        ..      BGT      0x2c04 ; BsrJean + 56
        0x00002bf8:    1c76        v.      ADDS     r6,r6,#1
        0x00002bfa:    00b3        ..      LSLS     r3,r6,#2
        0x00002bfc:    181b        ..      ADDS     r3,r3,r0
        0x00002bfe:    33ff        .3      ADDS     r3,r3,#0xff
        0x00002c00:    3301        .3      ADDS     r3,#1
        0x00002c02:    6a5b        [j      LDR      r3,[r3,#0x24]
        0x00002c04:    428d        .B      CMP      r5,r1
        0x00002c06:    d008        ..      BEQ      0x2c1a ; BsrJean + 78
        0x00002c08:    685f        _h      LDR      r7,[r3,#4]
        0x00002c0a:    193c        <.      ADDS     r4,r7,r4
        0x00002c0c:    681f        .h      LDR      r7,[r3,#0]
        0x00002c0e:    1c64        d.      ADDS     r4,r4,#1
        0x00002c10:    00bf        ..      LSLS     r7,r7,#2
        0x00002c12:    18fb        ..      ADDS     r3,r7,r3
        0x00002c14:    1c6d        m.      ADDS     r5,r5,#1
        0x00002c16:    428d        .B      CMP      r5,r1
        0x00002c18:    dde7        ..      BLE      0x2bea ; BsrJean + 30
        0x00002c1a:    685d        ]h      LDR      r5,[r3,#4]
        0x00002c1c:    2a00        .*      CMP      r2,#0
        0x00002c1e:    d108        ..      BNE      0x2c32 ; BsrJean + 102
        0x00002c20:    2d0c        .-      CMP      r5,#0xc
        0x00002c22:    dd04        ..      BLE      0x2c2e ; BsrJean + 98
        0x00002c24:    210c        .!      MOVS     r1,#0xc
        0x00002c26:    1fa8        ..      SUBS     r0,r5,#6
        0x00002c28:    f7fdfaf6    ....    BL       __aeabi_idiv ; 0x218
        0x00002c2c:    e000        ..      B        0x2c30 ; BsrJean + 100
        0x00002c2e:    2000        .       MOVS     r0,#0
        0x00002c30:    1d02        ..      ADDS     r2,r0,#4
        0x00002c32:    1c50        P.      ADDS     r0,r2,#1
        0x00002c34:    4285        .B      CMP      r5,r0
        0x00002c36:    db14        ..      BLT      0x2c62 ; BsrJean + 150
        0x00002c38:    2300        .#      MOVS     r3,#0
        0x00002c3a:    43db        .C      MVNS     r3,r3
        0x00002c3c:    490b        .I      LDR      r1,[pc,#44] ; [0x2c6c] = 0xffff9e58
        0x00002c3e:    2000        .       MOVS     r0,#0
        0x00002c40:    e00a        ..      B        0x2c58 ; BsrJean + 140
        0x00002c42:    2803        .(      CMP      r0,#3
        0x00002c44:    db06        ..      BLT      0x2c54 ; BsrJean + 136
        0x00002c46:    9e00        ..      LDR      r6,[sp,#0]
        0x00002c48:    0067        g.      LSLS     r7,r4,#1
        0x00002c4a:    5ff6        ._      LDRSH    r6,[r6,r7]
        0x00002c4c:    428e        .B      CMP      r6,r1
        0x00002c4e:    dd01        ..      BLE      0x2c54 ; BsrJean + 136
        0x00002c50:    4631        1F      MOV      r1,r6
        0x00002c52:    4603        .F      MOV      r3,r0
        0x00002c54:    1c40        @.      ADDS     r0,r0,#1
        0x00002c56:    1c64        d.      ADDS     r4,r4,#1
        0x00002c58:    42a8        .B      CMP      r0,r5
        0x00002c5a:    dbf2        ..      BLT      0x2c42 ; BsrJean + 118
        0x00002c5c:    1aa8        ..      SUBS     r0,r5,r2
        0x00002c5e:    4298        .B      CMP      r0,r3
        0x00002c60:    dc01        ..      BGT      0x2c66 ; BsrJean + 154
        0x00002c62:    2001        .       MOVS     r0,#1
        0x00002c64:    bdf8        ..      POP      {r3-r7,pc}
        0x00002c66:    2000        .       MOVS     r0,#0
        0x00002c68:    bdf8        ..      POP      {r3-r7,pc}
    $d
        0x00002c6a:    0000        ..      DCW    0
        0x00002c6c:    ffff9e58    X...    DCD    4294942296
    $t
    i.BsrJeff
    BsrJeff
        0x00002c70:    b5f0        ..      PUSH     {r4-r7,lr}
        0x00002c72:    21ff        .!      MOVS     r1,#0xff
        0x00002c74:    2400        .$      MOVS     r4,#0
        0x00002c76:    3125        %1      ADDS     r1,r1,#0x25
        0x00002c78:    580b        .X      LDR      r3,[r1,r0]
        0x00002c7a:    2101        .!      MOVS     r1,#1
        0x00002c7c:    4622        "F      MOV      r2,r4
        0x00002c7e:    4e0f        .N      LDR      r6,[pc,#60] ; [0x2cbc] = 0xffff9e58
        0x00002c80:    6b05        .k      LDR      r5,[r0,#0x30]
        0x00002c82:    e015        ..      B        0x2cb0 ; BsrJeff + 64
        0x00002c84:    00a7        ..      LSLS     r7,r4,#2
        0x00002c86:    183f        ?.      ADDS     r7,r7,r0
        0x00002c88:    37ff        .7      ADDS     r7,r7,#0xff
        0x00002c8a:    3701        .7      ADDS     r7,#1
        0x00002c8c:    6cff        .l      LDR      r7,[r7,#0x4c]
        0x00002c8e:    4297        .B      CMP      r7,r2
        0x00002c90:    dc05        ..      BGT      0x2c9e ; BsrJeff + 46
        0x00002c92:    1c64        d.      ADDS     r4,r4,#1
        0x00002c94:    00a3        ..      LSLS     r3,r4,#2
        0x00002c96:    181b        ..      ADDS     r3,r3,r0
        0x00002c98:    33ff        .3      ADDS     r3,r3,#0xff
        0x00002c9a:    3301        .3      ADDS     r3,#1
        0x00002c9c:    6a5b        [j      LDR      r3,[r3,#0x24]
        0x00002c9e:    685f        _h      LDR      r7,[r3,#4]
        0x00002ca0:    1879        y.      ADDS     r1,r7,r1
        0x00002ca2:    004f        O.      LSLS     r7,r1,#1
        0x00002ca4:    53ee        .S      STRH     r6,[r5,r7]
        0x00002ca6:    681f        .h      LDR      r7,[r3,#0]
        0x00002ca8:    1c49        I.      ADDS     r1,r1,#1
        0x00002caa:    00bf        ..      LSLS     r7,r7,#2
        0x00002cac:    18fb        ..      ADDS     r3,r7,r3
        0x00002cae:    1c52        R.      ADDS     r2,r2,#1
        0x00002cb0:    6d87        .m      LDR      r7,[r0,#0x58]
        0x00002cb2:    4297        .B      CMP      r7,r2
        0x00002cb4:    dce6        ..      BGT      0x2c84 ; BsrJeff + 20
        0x00002cb6:    4610        .F      MOV      r0,r2
        0x00002cb8:    bdf0        ..      POP      {r4-r7,pc}
    $d
        0x00002cba:    0000        ..      DCW    0
        0x00002cbc:    ffff9e58    X...    DCD    4294942296
    $t
    i.BsrJena
    BsrJena
        0x00002cc0:    2100        .!      MOVS     r1,#0
        0x00002cc2:    30ff        .0      ADDS     r0,r0,#0xff
        0x00002cc4:    43c9        .C      MVNS     r1,r1
        0x00002cc6:    30ed        .0      ADDS     r0,r0,#0xed
        0x00002cc8:    8001        ..      STRH     r1,[r0,#0]
        0x00002cca:    80c1        ..      STRH     r1,[r0,#6]
        0x00002ccc:    8101        ..      STRH     r1,[r0,#8]
        0x00002cce:    4904        .I      LDR      r1,[pc,#16] ; [0x2ce0] = 0x3a98
        0x00002cd0:    8041        A.      STRH     r1,[r0,#2]
        0x00002cd2:    4249        IB      RSBS     r1,r1,#0
        0x00002cd4:    8081        ..      STRH     r1,[r0,#4]
        0x00002cd6:    2100        .!      MOVS     r1,#0
        0x00002cd8:    8141        A.      STRH     r1,[r0,#0xa]
        0x00002cda:    4608        .F      MOV      r0,r1
        0x00002cdc:    4770        pG      BX       lr
    $d
        0x00002cde:    0000        ..      DCW    0
        0x00002ce0:    00003a98    .:..    DCD    15000
    $t
    i.BsrJeni
    BsrJeni
        0x00002ce4:    b5f0        ..      PUSH     {r4-r7,lr}
        0x00002ce6:    4606        .F      MOV      r6,r0
        0x00002ce8:    4604        .F      MOV      r4,r0
        0x00002cea:    b089        ..      SUB      sp,sp,#0x24
        0x00002cec:    6b00        .k      LDR      r0,[r0,#0x30]
        0x00002cee:    9006        ..      STR      r0,[sp,#0x18]
        0x00002cf0:    6b60        `k      LDR      r0,[r4,#0x34]
        0x00002cf2:    9001        ..      STR      r0,[sp,#4]
        0x00002cf4:    1de0        ..      ADDS     r0,r4,#7
        0x00002cf6:    30f9        .0      ADDS     r0,r0,#0xf9
        0x00002cf8:    36ff        .6      ADDS     r6,r6,#0xff
        0x00002cfa:    9005        ..      STR      r0,[sp,#0x14]
        0x00002cfc:    36f9        .6      ADDS     r6,r6,#0xf9
        0x00002cfe:    2500        .%      MOVS     r5,#0
        0x00002d00:    30ff        .0      ADDS     r0,r0,#0xff
        0x00002d02:    3001        .0      ADDS     r0,#1
        0x00002d04:    9003        ..      STR      r0,[sp,#0xc]
        0x00002d06:    9805        ..      LDR      r0,[sp,#0x14]
        0x00002d08:    2300        .#      MOVS     r3,#0
        0x00002d0a:    2101        .!      MOVS     r1,#1
        0x00002d0c:    6a42        Bj      LDR      r2,[r0,#0x24]
        0x00002d0e:    1e88        ..      SUBS     r0,r1,#2
        0x00002d10:    9002        ..      STR      r0,[sp,#8]
        0x00002d12:    483e        >H      LDR      r0,[pc,#248] ; [0x2e0c] = 0xffff9e58
        0x00002d14:    6da7        .m      LDR      r7,[r4,#0x58]
        0x00002d16:    4686        .F      MOV      lr,r0
        0x00002d18:    4618        .F      MOV      r0,r3
        0x00002d1a:    46bc        .F      MOV      r12,r7
        0x00002d1c:    e02e        ..      B        0x2d7c ; BsrJeni + 152
        0x00002d1e:    009f        ..      LSLS     r7,r3,#2
        0x00002d20:    193f        ?.      ADDS     r7,r7,r4
        0x00002d22:    37ff        .7      ADDS     r7,r7,#0xff
        0x00002d24:    3701        .7      ADDS     r7,#1
        0x00002d26:    6cff        .l      LDR      r7,[r7,#0x4c]
        0x00002d28:    4287        .B      CMP      r7,r0
        0x00002d2a:    dc05        ..      BGT      0x2d38 ; BsrJeni + 84
        0x00002d2c:    1c5b        [.      ADDS     r3,r3,#1
        0x00002d2e:    009a        ..      LSLS     r2,r3,#2
        0x00002d30:    1912        ..      ADDS     r2,r2,r4
        0x00002d32:    32ff        .2      ADDS     r2,r2,#0xff
        0x00002d34:    3201        .2      ADDS     r2,#1
        0x00002d36:    6a52        Rj      LDR      r2,[r2,#0x24]
        0x00002d38:    6857        Wh      LDR      r7,[r2,#4]
        0x00002d3a:    1879        y.      ADDS     r1,r7,r1
        0x00002d3c:    9107        ..      STR      r1,[sp,#0x1c]
        0x00002d3e:    0049        I.      LSLS     r1,r1,#1
        0x00002d40:    9f06        ..      LDR      r7,[sp,#0x18]
        0x00002d42:    9100        ..      STR      r1,[sp,#0]
        0x00002d44:    5e79        y^      LDRSH    r1,[r7,r1]
        0x00002d46:    9108        ..      STR      r1,[sp,#0x20]
        0x00002d48:    4571        qE      CMP      r1,lr
        0x00002d4a:    dd11        ..      BLE      0x2d70 ; BsrJeni + 140
        0x00002d4c:    2100        .!      MOVS     r1,#0
        0x00002d4e:    e004        ..      B        0x2d5a ; BsrJeni + 118
        0x00002d50:    008f        ..      LSLS     r7,r1,#2
        0x00002d52:    5ff7        ._      LDRSH    r7,[r6,r7]
        0x00002d54:    4287        .B      CMP      r7,r0
        0x00002d56:    d002        ..      BEQ      0x2d5e ; BsrJeni + 122
        0x00002d58:    1c49        I.      ADDS     r1,r1,#1
        0x00002d5a:    42a9        .B      CMP      r1,r5
        0x00002d5c:    dbf8        ..      BLT      0x2d50 ; BsrJeni + 108
        0x00002d5e:    42a9        .B      CMP      r1,r5
        0x00002d60:    db06        ..      BLT      0x2d70 ; BsrJeni + 140
        0x00002d62:    9908        ..      LDR      r1,[sp,#0x20]
        0x00002d64:    9f01        ..      LDR      r7,[sp,#4]
        0x00002d66:    468e        .F      MOV      lr,r1
        0x00002d68:    9900        ..      LDR      r1,[sp,#0]
        0x00002d6a:    9002        ..      STR      r0,[sp,#8]
        0x00002d6c:    5e79        y^      LDRSH    r1,[r7,r1]
        0x00002d6e:    9104        ..      STR      r1,[sp,#0x10]
        0x00002d70:    6817        .h      LDR      r7,[r2,#0]
        0x00002d72:    9907        ..      LDR      r1,[sp,#0x1c]
        0x00002d74:    00bf        ..      LSLS     r7,r7,#2
        0x00002d76:    18ba        ..      ADDS     r2,r7,r2
        0x00002d78:    1c40        @.      ADDS     r0,r0,#1
        0x00002d7a:    1c49        I.      ADDS     r1,r1,#1
        0x00002d7c:    4584        .E      CMP      r12,r0
        0x00002d7e:    dcce        ..      BGT      0x2d1e ; BsrJeni + 58
        0x00002d80:    4922        "I      LDR      r1,[pc,#136] ; [0x2e0c] = 0xffff9e58
        0x00002d82:    458e        .E      CMP      lr,r1
        0x00002d84:    d03c        <.      BEQ      0x2e00 ; BsrJeni + 284
        0x00002d86:    9803        ..      LDR      r0,[sp,#0xc]
        0x00002d88:    69c1        .i      LDR      r1,[r0,#0x1c]
        0x00002d8a:    9804        ..      LDR      r0,[sp,#0x10]
        0x00002d8c:    468c        .F      MOV      r12,r1
        0x00002d8e:    1a0b        ..      SUBS     r3,r1,r0
        0x00002d90:    1e5b        [.      SUBS     r3,r3,#1
        0x00002d92:    d502        ..      BPL      0x2d9a ; BsrJeni + 182
        0x00002d94:    9803        ..      LDR      r0,[sp,#0xc]
        0x00002d96:    6a40        @j      LDR      r0,[r0,#0x24]
        0x00002d98:    18c3        ..      ADDS     r3,r0,r3
        0x00002d9a:    9802        ..      LDR      r0,[sp,#8]
        0x00002d9c:    6ba1        .k      LDR      r1,[r4,#0x38]
        0x00002d9e:    0040        @.      LSLS     r0,r0,#1
        0x00002da0:    9007        ..      STR      r0,[sp,#0x1c]
        0x00002da2:    5e08        .^      LDRSH    r0,[r1,r0]
        0x00002da4:    9904        ..      LDR      r1,[sp,#0x10]
        0x00002da6:    1a1f        ..      SUBS     r7,r3,r0
        0x00002da8:    1842        B.      ADDS     r2,r0,r1
        0x00002daa:    9903        ..      LDR      r1,[sp,#0xc]
        0x00002dac:    6a49        Ij      LDR      r1,[r1,#0x24]
        0x00002dae:    428a        .B      CMP      r2,r1
        0x00002db0:    db00        ..      BLT      0x2db4 ; BsrJeni + 208
        0x00002db2:    4667        gF      MOV      r7,r12
        0x00002db4:    2f00        ./      CMP      r7,#0
        0x00002db6:    da04        ..      BGE      0x2dc2 ; BsrJeni + 222
        0x00002db8:    9a03        ..      LDR      r2,[sp,#0xc]
        0x00002dba:    6a12        .j      LDR      r2,[r2,#0x20]
        0x00002dbc:    2a00        .*      CMP      r2,#0
        0x00002dbe:    d022        ".      BEQ      0x2e06 ; BsrJeni + 290
        0x00002dc0:    19cf        ..      ADDS     r7,r1,r7
        0x00002dc2:    9000        ..      STR      r0,[sp,#0]
        0x00002dc4:    463a        :F      MOV      r2,r7
        0x00002dc6:    4620         F      MOV      r0,r4
        0x00002dc8:    9902        ..      LDR      r1,[sp,#8]
        0x00002dca:    f7fffe75    ..u.    BL       BsrJana ; 0x2ab8
        0x00002dce:    9000        ..      STR      r0,[sp,#0]
        0x00002dd0:    6ca1        .l      LDR      r1,[r4,#0x48]
        0x00002dd2:    9807        ..      LDR      r0,[sp,#0x1c]
        0x00002dd4:    007a        z.      LSLS     r2,r7,#1
        0x00002dd6:    5e08        .^      LDRSH    r0,[r1,r0]
        0x00002dd8:    6be1        .k      LDR      r1,[r4,#0x3c]
        0x00002dda:    5e89        .^      LDRSH    r1,[r1,r2]
        0x00002ddc:    6ba2        .k      LDR      r2,[r4,#0x38]
        0x00002dde:    1a40        @.      SUBS     r0,r0,r1
        0x00002de0:    210a        .!      MOVS     r1,#0xa
        0x00002de2:    4348        HC      MULS     r0,r1,r0
        0x00002de4:    9907        ..      LDR      r1,[sp,#0x1c]
        0x00002de6:    5e51        Q^      LDRSH    r1,[r2,r1]
        0x00002de8:    f7fdfa16    ....    BL       __aeabi_idiv ; 0x218
        0x00002dec:    00aa        ..      LSLS     r2,r5,#2
        0x00002dee:    9902        ..      LDR      r1,[sp,#8]
        0x00002df0:    52b1        .R      STRH     r1,[r6,r2]
        0x00002df2:    9900        ..      LDR      r1,[sp,#0]
        0x00002df4:    1c6d        m.      ADDS     r5,r5,#1
        0x00002df6:    1a08        ..      SUBS     r0,r1,r0
        0x00002df8:    1991        ..      ADDS     r1,r2,r6
        0x00002dfa:    8048        H.      STRH     r0,[r1,#2]
        0x00002dfc:    2d05        .-      CMP      r5,#5
        0x00002dfe:    db82        ..      BLT      0x2d06 ; BsrJeni + 34
        0x00002e00:    4628        (F      MOV      r0,r5
        0x00002e02:    b009        ..      ADD      sp,sp,#0x24
        0x00002e04:    bdf0        ..      POP      {r4-r7,pc}
        0x00002e06:    2700        .'      MOVS     r7,#0
        0x00002e08:    e7db        ..      B        0x2dc2 ; BsrJeni + 222
    $d
        0x00002e0a:    0000        ..      DCW    0
        0x00002e0c:    ffff9e58    X...    DCD    4294942296
    $t
    i.BsrJess
    BsrJess
        0x00002e10:    b5ff        ..      PUSH     {r0-r7,lr}
        0x00002e12:    4604        .F      MOV      r4,r0
        0x00002e14:    460e        .F      MOV      r6,r1
        0x00002e16:    3480        .4      ADDS     r4,r4,#0x80
        0x00002e18:    b083        ..      SUB      sp,sp,#0xc
        0x00002e1a:    2198        .!      MOVS     r1,#0x98
        0x00002e1c:    6ea0        .n      LDR      r0,[r4,#0x68]
        0x00002e1e:    f7fdfd11    ....    BL       BsrAbel ; 0x844
        0x00002e22:    0005        ..      MOVS     r5,r0
        0x00002e24:    d021        !.      BEQ      0x2e6a ; BsrJess + 90
        0x00002e26:    9805        ..      LDR      r0,[sp,#0x14]
        0x00002e28:    4631        1F      MOV      r1,r6
        0x00002e2a:    0082        ..      LSLS     r2,r0,#2
        0x00002e2c:    4628        (F      MOV      r0,r5
        0x00002e2e:    f000fa61    ..a.    BL       BsrJose ; 0x32f4
        0x00002e32:    6ee0        .n      LDR      r0,[r4,#0x6c]
        0x00002e34:    4629        )F      MOV      r1,r5
        0x00002e36:    9a05        ..      LDR      r2,[sp,#0x14]
        0x00002e38:    f7feff16    ....    BL       BsrDeja ; 0x1c68
        0x00002e3c:    ae01        ..      ADD      r6,sp,#4
        0x00002e3e:    9600        ..      STR      r6,[sp,#0]
        0x00002e40:    6ee0        .n      LDR      r0,[r4,#0x6c]
        0x00002e42:    462a        *F      MOV      r2,r5
        0x00002e44:    2100        .!      MOVS     r1,#0
        0x00002e46:    9b05        ..      LDR      r3,[sp,#0x14]
        0x00002e48:    f7feff32    ..2.    BL       BsrDemi ; 0x1cb0
        0x00002e4c:    9600        ..      STR      r6,[sp,#0]
        0x00002e4e:    4607        .F      MOV      r7,r0
        0x00002e50:    6ee0        .n      LDR      r0,[r4,#0x6c]
        0x00002e52:    462a        *F      MOV      r2,r5
        0x00002e54:    2101        .!      MOVS     r1,#1
        0x00002e56:    9b05        ..      LDR      r3,[sp,#0x14]
        0x00002e58:    f7feff2a    ..*.    BL       BsrDemi ; 0x1cb0
        0x00002e5c:    4601        .F      MOV      r1,r0
        0x00002e5e:    6e60        `n      LDR      r0,[r4,#0x64]
        0x00002e60:    19c0        ..      ADDS     r0,r0,r7
        0x00002e62:    4288        .B      CMP      r0,r1
        0x00002e64:    dc04        ..      BGT      0x2e70 ; BsrJess + 96
        0x00002e66:    2601        .&      MOVS     r6,#1
        0x00002e68:    e003        ..      B        0x2e72 ; BsrJess + 98
        0x00002e6a:    2000        .       MOVS     r0,#0
        0x00002e6c:    b007        ..      ADD      sp,sp,#0x1c
        0x00002e6e:    bdf0        ..      POP      {r4-r7,pc}
        0x00002e70:    2600        .&      MOVS     r6,#0
        0x00002e72:    4629        )F      MOV      r1,r5
        0x00002e74:    6ea0        .n      LDR      r0,[r4,#0x68]
        0x00002e76:    f7fdfd21    ..!.    BL       BsrAdam ; 0x8bc
        0x00002e7a:    4630        0F      MOV      r0,r6
        0x00002e7c:    e7f6        ..      B        0x2e6c ; BsrJess + 92
    i.BsrJill
    BsrJill
        0x00002e7e:    b5ff        ..      PUSH     {r0-r7,lr}
        0x00002e80:    b085        ..      SUB      sp,sp,#0x14
        0x00002e82:    460d        .F      MOV      r5,r1
        0x00002e84:    0004        ..      MOVS     r4,r0
        0x00002e86:    d03b        ;.      BEQ      0x2f00 ; BsrJill + 130
        0x00002e88:    6860        `h      LDR      r0,[r4,#4]
        0x00002e8a:    2800        .(      CMP      r0,#0
        0x00002e8c:    db38        8.      BLT      0x2f00 ; BsrJill + 130
        0x00002e8e:    2b00        .+      CMP      r3,#0
        0x00002e90:    d105        ..      BNE      0x2e9e ; BsrJill + 32
        0x00002e92:    0068        h.      LSLS     r0,r5,#1
        0x00002e94:    1901        ..      ADDS     r1,r0,r4
        0x00002e96:    2010        .       MOVS     r0,#0x10
        0x00002e98:    5e08        .^      LDRSH    r0,[r1,r0]
        0x00002e9a:    1c40        @.      ADDS     r0,r0,#1
        0x00002e9c:    d102        ..      BNE      0x2ea4 ; BsrJill + 38
        0x00002e9e:    4620         F      MOV      r0,r4
        0x00002ea0:    f000f859    ..Y.    BL       BsrJoan ; 0x2f56
        0x00002ea4:    4629        )F      MOV      r1,r5
        0x00002ea6:    4620         F      MOV      r0,r4
        0x00002ea8:    9a07        ..      LDR      r2,[sp,#0x1c]
        0x00002eaa:    f000f8c6    ....    BL       BsrJodi ; 0x303a
        0x00002eae:    4620         F      MOV      r0,r4
        0x00002eb0:    3080        .0      ADDS     r0,r0,#0x80
        0x00002eb2:    9003        ..      STR      r0,[sp,#0xc]
        0x00002eb4:    6e80        .n      LDR      r0,[r0,#0x68]
        0x00002eb6:    2130        0!      MOVS     r1,#0x30
        0x00002eb8:    f7fdfcc4    ....    BL       BsrAbel ; 0x844
        0x00002ebc:    0007        ..      MOVS     r7,r0
        0x00002ebe:    d01f        ..      BEQ      0x2f00 ; BsrJill + 130
        0x00002ec0:    68a0        .h      LDR      r0,[r4,#8]
        0x00002ec2:    2800        .(      CMP      r0,#0
        0x00002ec4:    db00        ..      BLT      0x2ec8 ; BsrJill + 74
        0x00002ec6:    4605        .F      MOV      r5,r0
        0x00002ec8:    0068        h.      LSLS     r0,r5,#1
        0x00002eca:    1901        ..      ADDS     r1,r0,r4
        0x00002ecc:    2014        .       MOVS     r0,#0x14
        0x00002ece:    5e08        .^      LDRSH    r0,[r1,r0]
        0x00002ed0:    2864        d(      CMP      r0,#0x64
        0x00002ed2:    db00        ..      BLT      0x2ed6 ; BsrJill + 88
        0x00002ed4:    2064        d       MOVS     r0,#0x64
        0x00002ed6:    9001        ..      STR      r0,[sp,#4]
        0x00002ed8:    6860        `h      LDR      r0,[r4,#4]
        0x00002eda:    2800        .(      CMP      r0,#0
        0x00002edc:    d004        ..      BEQ      0x2ee8 ; BsrJill + 106
        0x00002ede:    2010        .       MOVS     r0,#0x10
        0x00002ee0:    5e08        .^      LDRSH    r0,[r1,r0]
        0x00002ee2:    2801        .(      CMP      r0,#1
        0x00002ee4:    da00        ..      BGE      0x2ee8 ; BsrJill + 106
        0x00002ee6:    2001        .       MOVS     r0,#1
        0x00002ee8:    211e        .!      MOVS     r1,#0x1e
        0x00002eea:    4348        HC      MULS     r0,r1,r0
        0x00002eec:    3064        d0      ADDS     r0,r0,#0x64
        0x00002eee:    9901        ..      LDR      r1,[sp,#4]
        0x00002ef0:    9000        ..      STR      r0,[sp,#0]
        0x00002ef2:    1a40        @.      SUBS     r0,r0,r1
        0x00002ef4:    9002        ..      STR      r0,[sp,#8]
        0x00002ef6:    2018        .       MOVS     r0,#0x18
        0x00002ef8:    2600        .&      MOVS     r6,#0
        0x00002efa:    4345        EC      MULS     r5,r0,r5
        0x00002efc:    192d        -.      ADDS     r5,r5,r4
        0x00002efe:    e013        ..      B        0x2f28 ; BsrJill + 170
        0x00002f00:    2000        .       MOVS     r0,#0
        0x00002f02:    b009        ..      ADD      sp,sp,#0x24
        0x00002f04:    bdf0        ..      POP      {r4-r7,pc}
        0x00002f06:    0070        p.      LSLS     r0,r6,#1
        0x00002f08:    1828        (.      ADDS     r0,r5,r0
        0x00002f0a:    22a8        ."      MOVS     r2,#0xa8
        0x00002f0c:    5e11        .^      LDRSH    r1,[r2,r0]
        0x00002f0e:    9a02        ..      LDR      r2,[sp,#8]
        0x00002f10:    4351        QC      MULS     r1,r2,r1
        0x00002f12:    2278        x"      MOVS     r2,#0x78
        0x00002f14:    5e82        .^      LDRSH    r2,[r0,r2]
        0x00002f16:    9801        ..      LDR      r0,[sp,#4]
        0x00002f18:    4342        BC      MULS     r2,r0,r2
        0x00002f1a:    1888        ..      ADDS     r0,r1,r2
        0x00002f1c:    9900        ..      LDR      r1,[sp,#0]
        0x00002f1e:    f7fdf97b    ..{.    BL       __aeabi_idiv ; 0x218
        0x00002f22:    00b1        ..      LSLS     r1,r6,#2
        0x00002f24:    5078        xP      STR      r0,[r7,r1]
        0x00002f26:    1c76        v.      ADDS     r6,r6,#1
        0x00002f28:    6820         h      LDR      r0,[r4,#0]
        0x00002f2a:    42b0        .B      CMP      r0,r6
        0x00002f2c:    dceb        ..      BGT      0x2f06 ; BsrJill + 136
        0x00002f2e:    2500        .%      MOVS     r5,#0
        0x00002f30:    e007        ..      B        0x2f42 ; BsrJill + 196
        0x00002f32:    00a8        ..      LSLS     r0,r5,#2
        0x00002f34:    9907        ..      LDR      r1,[sp,#0x1c]
        0x00002f36:    583a        :X      LDR      r2,[r7,r0]
        0x00002f38:    5809        .X      LDR      r1,[r1,r0]
        0x00002f3a:    1a8a        ..      SUBS     r2,r1,r2
        0x00002f3c:    9907        ..      LDR      r1,[sp,#0x1c]
        0x00002f3e:    1c6d        m.      ADDS     r5,r5,#1
        0x00002f40:    500a        .P      STR      r2,[r1,r0]
        0x00002f42:    6820         h      LDR      r0,[r4,#0]
        0x00002f44:    42a8        .B      CMP      r0,r5
        0x00002f46:    dcf4        ..      BGT      0x2f32 ; BsrJill + 180
        0x00002f48:    9803        ..      LDR      r0,[sp,#0xc]
        0x00002f4a:    4639        9F      MOV      r1,r7
        0x00002f4c:    6e80        .n      LDR      r0,[r0,#0x68]
        0x00002f4e:    f7fdfcb5    ....    BL       BsrAdam ; 0x8bc
        0x00002f52:    4628        (F      MOV      r0,r5
        0x00002f54:    e7d5        ..      B        0x2f02 ; BsrJill + 132
    i.BsrJoan
    BsrJoan
        0x00002f56:    b5fe        ..      PUSH     {r1-r7,lr}
        0x00002f58:    4605        .F      MOV      r5,r0
        0x00002f5a:    2400        .$      MOVS     r4,#0
        0x00002f5c:    3080        .0      ADDS     r0,r0,#0x80
        0x00002f5e:    9001        ..      STR      r0,[sp,#4]
        0x00002f60:    e067        g.      B        0x3032 ; BsrJoan + 220
        0x00002f62:    0060        `.      LSLS     r0,r4,#1
        0x00002f64:    1946        F.      ADDS     r6,r0,r5
        0x00002f66:    2010        .       MOVS     r0,#0x10
        0x00002f68:    5e30        0^      LDRSH    r0,[r6,r0]
        0x00002f6a:    1c40        @.      ADDS     r0,r0,#1
        0x00002f6c:    d005        ..      BEQ      0x2f7a ; BsrJoan + 36
        0x00002f6e:    2014        .       MOVS     r0,#0x14
        0x00002f70:    5e30        0^      LDRSH    r0,[r6,r0]
        0x00002f72:    283c        <(      CMP      r0,#0x3c
        0x00002f74:    dd5b        [.      BLE      0x302e ; BsrJoan + 216
        0x00002f76:    2700        .'      MOVS     r7,#0
        0x00002f78:    e039        9.      B        0x2fee ; BsrJoan + 152
        0x00002f7a:    2100        .!      MOVS     r1,#0
        0x00002f7c:    4622        "F      MOV      r2,r4
        0x00002f7e:    2318        .#      MOVS     r3,#0x18
        0x00002f80:    435a        ZC      MULS     r2,r3,r2
        0x00002f82:    4608        .F      MOV      r0,r1
        0x00002f84:    1952        R.      ADDS     r2,r2,r5
        0x00002f86:    e004        ..      B        0x2f92 ; BsrJoan + 60
        0x00002f88:    004b        K.      LSLS     r3,r1,#1
        0x00002f8a:    18d3        ..      ADDS     r3,r2,r3
        0x00002f8c:    3380        .3      ADDS     r3,r3,#0x80
        0x00002f8e:    8518        ..      STRH     r0,[r3,#0x28]
        0x00002f90:    1c49        I.      ADDS     r1,r1,#1
        0x00002f92:    682b        +h      LDR      r3,[r5,#0]
        0x00002f94:    428b        .B      CMP      r3,r1
        0x00002f96:    dcf7        ..      BGT      0x2f88 ; BsrJoan + 50
        0x00002f98:    4623        #F      MOV      r3,r4
        0x00002f9a:    2730        0'      MOVS     r7,#0x30
        0x00002f9c:    2100        .!      MOVS     r1,#0
        0x00002f9e:    437b        {C      MULS     r3,r7,r3
        0x00002fa0:    195b        [.      ADDS     r3,r3,r5
        0x00002fa2:    e007        ..      B        0x2fb4 ; BsrJoan + 94
        0x00002fa4:    004f        O.      LSLS     r7,r1,#1
        0x00002fa6:    19d7        ..      ADDS     r7,r2,r7
        0x00002fa8:    3740        @7      ADDS     r7,r7,#0x40
        0x00002faa:    8738        8.      STRH     r0,[r7,#0x38]
        0x00002fac:    008f        ..      LSLS     r7,r1,#2
        0x00002fae:    19df        ..      ADDS     r7,r3,r7
        0x00002fb0:    1c49        I.      ADDS     r1,r1,#1
        0x00002fb2:    61b8        .a      STR      r0,[r7,#0x18]
        0x00002fb4:    682f        /h      LDR      r7,[r5,#0]
        0x00002fb6:    428f        .B      CMP      r7,r1
        0x00002fb8:    dcf4        ..      BGT      0x2fa4 ; BsrJoan + 78
        0x00002fba:    82b0        ..      STRH     r0,[r6,#0x14]
        0x00002fbc:    8230        0.      STRH     r0,[r6,#0x10]
        0x00002fbe:    e036        6.      B        0x302e ; BsrJoan + 216
        0x00002fc0:    2018        .       MOVS     r0,#0x18
        0x00002fc2:    4360        `C      MULS     r0,r4,r0
        0x00002fc4:    1940        @.      ADDS     r0,r0,r5
        0x00002fc6:    0079        y.      LSLS     r1,r7,#1
        0x00002fc8:    1843        C.      ADDS     r3,r0,r1
        0x00002fca:    4618        .F      MOV      r0,r3
        0x00002fcc:    3080        .0      ADDS     r0,r0,#0x80
        0x00002fce:    9000        ..      STR      r0,[sp,#0]
        0x00002fd0:    2228        ("      MOVS     r2,#0x28
        0x00002fd2:    5e82        .^      LDRSH    r2,[r0,r2]
        0x00002fd4:    2110        .!      MOVS     r1,#0x10
        0x00002fd6:    5e71        q^      LDRSH    r1,[r6,r1]
        0x00002fd8:    2078        x       MOVS     r0,#0x78
        0x00002fda:    434a        JC      MULS     r2,r1,r2
        0x00002fdc:    5ec3        .^      LDRSH    r3,[r0,r3]
        0x00002fde:    1c49        I.      ADDS     r1,r1,#1
        0x00002fe0:    18d0        ..      ADDS     r0,r2,r3
        0x00002fe2:    f7fdf919    ....    BL       __aeabi_idiv ; 0x218
        0x00002fe6:    4601        .F      MOV      r1,r0
        0x00002fe8:    9800        ..      LDR      r0,[sp,#0]
        0x00002fea:    1c7f        ..      ADDS     r7,r7,#1
        0x00002fec:    8501        ..      STRH     r1,[r0,#0x28]
        0x00002fee:    6828        (h      LDR      r0,[r5,#0]
        0x00002ff0:    42b8        .B      CMP      r0,r7
        0x00002ff2:    dce5        ..      BGT      0x2fc0 ; BsrJoan + 106
        0x00002ff4:    2010        .       MOVS     r0,#0x10
        0x00002ff6:    5e30        0^      LDRSH    r0,[r6,r0]
        0x00002ff8:    6869        ih      LDR      r1,[r5,#4]
        0x00002ffa:    4288        .B      CMP      r0,r1
        0x00002ffc:    da01        ..      BGE      0x3002 ; BsrJoan + 172
        0x00002ffe:    1c40        @.      ADDS     r0,r0,#1
        0x00003000:    8230        0.      STRH     r0,[r6,#0x10]
        0x00003002:    4621        !F      MOV      r1,r4
        0x00003004:    2230        0"      MOVS     r2,#0x30
        0x00003006:    4351        QC      MULS     r1,r2,r1
        0x00003008:    2000        .       MOVS     r0,#0
        0x0000300a:    194b        K.      ADDS     r3,r1,r5
        0x0000300c:    2218        ."      MOVS     r2,#0x18
        0x0000300e:    4362        bC      MULS     r2,r4,r2
        0x00003010:    4601        .F      MOV      r1,r0
        0x00003012:    1952        R.      ADDS     r2,r2,r5
        0x00003014:    e007        ..      B        0x3026 ; BsrJoan + 208
        0x00003016:    0047        G.      LSLS     r7,r0,#1
        0x00003018:    19d7        ..      ADDS     r7,r2,r7
        0x0000301a:    3740        @7      ADDS     r7,r7,#0x40
        0x0000301c:    8739        9.      STRH     r1,[r7,#0x38]
        0x0000301e:    0087        ..      LSLS     r7,r0,#2
        0x00003020:    19df        ..      ADDS     r7,r3,r7
        0x00003022:    1c40        @.      ADDS     r0,r0,#1
        0x00003024:    61b9        .a      STR      r1,[r7,#0x18]
        0x00003026:    682f        /h      LDR      r7,[r5,#0]
        0x00003028:    4287        .B      CMP      r7,r0
        0x0000302a:    dcf4        ..      BGT      0x3016 ; BsrJoan + 192
        0x0000302c:    82b1        ..      STRH     r1,[r6,#0x14]
        0x0000302e:    9801        ..      LDR      r0,[sp,#4]
        0x00003030:    1c64        d.      ADDS     r4,r4,#1
        0x00003032:    6d80        .m      LDR      r0,[r0,#0x58]
        0x00003034:    42a0        .B      CMP      r0,r4
        0x00003036:    dc94        ..      BGT      0x2f62 ; BsrJoan + 12
        0x00003038:    bdfe        ..      POP      {r1-r7,pc}
    i.BsrJodi
    BsrJodi
        0x0000303a:    b5f8        ..      PUSH     {r3-r7,lr}
        0x0000303c:    4604        .F      MOV      r4,r0
        0x0000303e:    2330        0#      MOVS     r3,#0x30
        0x00003040:    2000        .       MOVS     r0,#0
        0x00003042:    434b        KC      MULS     r3,r1,r3
        0x00003044:    191f        ..      ADDS     r7,r3,r4
        0x00003046:    e006        ..      B        0x3056 ; BsrJodi + 28
        0x00003048:    0083        ..      LSLS     r3,r0,#2
        0x0000304a:    18fd        ..      ADDS     r5,r7,r3
        0x0000304c:    58d3        .X      LDR      r3,[r2,r3]
        0x0000304e:    69ae        .i      LDR      r6,[r5,#0x18]
        0x00003050:    18f3        ..      ADDS     r3,r6,r3
        0x00003052:    1c40        @.      ADDS     r0,r0,#1
        0x00003054:    61ab        .a      STR      r3,[r5,#0x18]
        0x00003056:    6823        #h      LDR      r3,[r4,#0]
        0x00003058:    4283        .B      CMP      r3,r0
        0x0000305a:    dcf5        ..      BGT      0x3048 ; BsrJodi + 14
        0x0000305c:    0048        H.      LSLS     r0,r1,#1
        0x0000305e:    1906        ..      ADDS     r6,r0,r4
        0x00003060:    2018        .       MOVS     r0,#0x18
        0x00003062:    2500        .%      MOVS     r5,#0
        0x00003064:    4341        AC      MULS     r1,r0,r1
        0x00003066:    1908        ..      ADDS     r0,r1,r4
        0x00003068:    9000        ..      STR      r0,[sp,#0]
        0x0000306a:    e00d        ..      B        0x3088 ; BsrJodi + 78
        0x0000306c:    2114        .!      MOVS     r1,#0x14
        0x0000306e:    00a8        ..      LSLS     r0,r5,#2
        0x00003070:    5e71        q^      LDRSH    r1,[r6,r1]
        0x00003072:    1838        8.      ADDS     r0,r7,r0
        0x00003074:    6980        .i      LDR      r0,[r0,#0x18]
        0x00003076:    1c49        I.      ADDS     r1,r1,#1
        0x00003078:    f7fdf8ce    ....    BL       __aeabi_idiv ; 0x218
        0x0000307c:    9900        ..      LDR      r1,[sp,#0]
        0x0000307e:    006a        j.      LSLS     r2,r5,#1
        0x00003080:    1889        ..      ADDS     r1,r1,r2
        0x00003082:    3140        @1      ADDS     r1,r1,#0x40
        0x00003084:    8708        ..      STRH     r0,[r1,#0x38]
        0x00003086:    1c6d        m.      ADDS     r5,r5,#1
        0x00003088:    6820         h      LDR      r0,[r4,#0]
        0x0000308a:    42a8        .B      CMP      r0,r5
        0x0000308c:    dcee        ..      BGT      0x306c ; BsrJodi + 50
        0x0000308e:    2014        .       MOVS     r0,#0x14
        0x00003090:    5e30        0^      LDRSH    r0,[r6,r0]
        0x00003092:    28ff        .(      CMP      r0,#0xff
        0x00003094:    da02        ..      BGE      0x309c ; BsrJodi + 98
        0x00003096:    1c40        @.      ADDS     r0,r0,#1
        0x00003098:    82b0        ..      STRH     r0,[r6,#0x14]
        0x0000309a:    bdf8        ..      POP      {r3-r7,pc}
        0x0000309c:    2000        .       MOVS     r0,#0
        0x0000309e:    e008        ..      B        0x30b2 ; BsrJodi + 120
        0x000030a0:    0081        ..      LSLS     r1,r0,#2
        0x000030a2:    1879        y.      ADDS     r1,r7,r1
        0x000030a4:    698a        .i      LDR      r2,[r1,#0x18]
        0x000030a6:    0213        ..      LSLS     r3,r2,#8
        0x000030a8:    1a9a        ..      SUBS     r2,r3,r2
        0x000030aa:    3280        .2      ADDS     r2,r2,#0x80
        0x000030ac:    1212        ..      ASRS     r2,r2,#8
        0x000030ae:    1c40        @.      ADDS     r0,r0,#1
        0x000030b0:    618a        .a      STR      r2,[r1,#0x18]
        0x000030b2:    6821        !h      LDR      r1,[r4,#0]
        0x000030b4:    4281        .B      CMP      r1,r0
        0x000030b6:    dcf3        ..      BGT      0x30a0 ; BsrJodi + 102
        0x000030b8:    bdf8        ..      POP      {r3-r7,pc}
    i.BsrJody
    BsrJody
        0x000030ba:    b5f0        ..      PUSH     {r4-r7,lr}
        0x000030bc:    4604        .F      MOV      r4,r0
        0x000030be:    2000        .       MOVS     r0,#0
        0x000030c0:    4605        .F      MOV      r5,r0
        0x000030c2:    e005        ..      B        0x30d0 ; BsrJody + 22
        0x000030c4:    0086        ..      LSLS     r6,r0,#2
        0x000030c6:    59a7        .Y      LDR      r7,[r4,r6]
        0x000030c8:    1c40        @.      ADDS     r0,r0,#1
        0x000030ca:    11ff        ..      ASRS     r7,r7,#7
        0x000030cc:    518f        .Q      STR      r7,[r1,r6]
        0x000030ce:    1c6d        m.      ADDS     r5,r5,#1
        0x000030d0:    4295        .B      CMP      r5,r2
        0x000030d2:    dbf7        ..      BLT      0x30c4 ; BsrJody + 10
        0x000030d4:    4298        .B      CMP      r0,r3
        0x000030d6:    da09        ..      BGE      0x30ec ; BsrJody + 50
        0x000030d8:    2500        .%      MOVS     r5,#0
        0x000030da:    e005        ..      B        0x30e8 ; BsrJody + 46
        0x000030dc:    0086        ..      LSLS     r6,r0,#2
        0x000030de:    59a7        .Y      LDR      r7,[r4,r6]
        0x000030e0:    1c40        @.      ADDS     r0,r0,#1
        0x000030e2:    117f        ..      ASRS     r7,r7,#5
        0x000030e4:    518f        .Q      STR      r7,[r1,r6]
        0x000030e6:    1c6d        m.      ADDS     r5,r5,#1
        0x000030e8:    4295        .B      CMP      r5,r2
        0x000030ea:    dbf7        ..      BLT      0x30dc ; BsrJody + 34
        0x000030ec:    4298        .B      CMP      r0,r3
        0x000030ee:    da14        ..      BGE      0x311a ; BsrJody + 96
        0x000030f0:    2300        .#      MOVS     r3,#0
        0x000030f2:    1e92        ..      SUBS     r2,r2,#2
        0x000030f4:    e005        ..      B        0x3102 ; BsrJody + 72
        0x000030f6:    0085        ..      LSLS     r5,r0,#2
        0x000030f8:    5966        fY      LDR      r6,[r4,r5]
        0x000030fa:    1c40        @.      ADDS     r0,r0,#1
        0x000030fc:    1136        6.      ASRS     r6,r6,#4
        0x000030fe:    514e        NQ      STR      r6,[r1,r5]
        0x00003100:    1c5b        [.      ADDS     r3,r3,#1
        0x00003102:    4293        .B      CMP      r3,r2
        0x00003104:    dbf7        ..      BLT      0x30f6 ; BsrJody + 60
        0x00003106:    0082        ..      LSLS     r2,r0,#2
        0x00003108:    58a3        .X      LDR      r3,[r4,r2]
        0x0000310a:    1c40        @.      ADDS     r0,r0,#1
        0x0000310c:    11db        ..      ASRS     r3,r3,#7
        0x0000310e:    508b        .P      STR      r3,[r1,r2]
        0x00003110:    0082        ..      LSLS     r2,r0,#2
        0x00003112:    58a3        .X      LDR      r3,[r4,r2]
        0x00003114:    115b        [.      ASRS     r3,r3,#5
        0x00003116:    508b        .P      STR      r3,[r1,r2]
        0x00003118:    1c40        @.      ADDS     r0,r0,#1
        0x0000311a:    237f        .#      MOVS     r3,#0x7f
        0x0000311c:    2200        ."      MOVS     r2,#0
        0x0000311e:    43db        .C      MVNS     r3,r3
        0x00003120:    267f        .&      MOVS     r6,#0x7f
        0x00003122:    e009        ..      B        0x3138 ; BsrJody + 126
        0x00003124:    0094        ..      LSLS     r4,r2,#2
        0x00003126:    590d        .Y      LDR      r5,[r1,r4]
        0x00003128:    2d7f        .-      CMP      r5,#0x7f
        0x0000312a:    dd01        ..      BLE      0x3130 ; BsrJody + 118
        0x0000312c:    510e        .Q      STR      r6,[r1,r4]
        0x0000312e:    e002        ..      B        0x3136 ; BsrJody + 124
        0x00003130:    429d        .B      CMP      r5,r3
        0x00003132:    da00        ..      BGE      0x3136 ; BsrJody + 124
        0x00003134:    510b        .Q      STR      r3,[r1,r4]
        0x00003136:    1c52        R.      ADDS     r2,r2,#1
        0x00003138:    4282        .B      CMP      r2,r0
        0x0000313a:    dbf3        ..      BLT      0x3124 ; BsrJody + 106
        0x0000313c:    bdf0        ..      POP      {r4-r7,pc}
        0x0000313e:    0000        ..      MOVS     r0,r0
    i.BsrJoel
    BsrJoel
        0x00003140:    b5ff        ..      PUSH     {r0-r7,lr}
        0x00003142:    b08b        ..      SUB      sp,sp,#0x2c
        0x00003144:    990c        ..      LDR      r1,[sp,#0x30]
        0x00003146:    2000        .       MOVS     r0,#0
        0x00003148:    9c0b        ..      LDR      r4,[sp,#0x2c]
        0x0000314a:    461e        .F      MOV      r6,r3
        0x0000314c:    4617        .F      MOV      r7,r2
        0x0000314e:    2900        .)      CMP      r1,#0
        0x00003150:    d000        ..      BEQ      0x3154 ; BsrJoel + 20
        0x00003152:    6008        .`      STR      r0,[r1,#0]
        0x00003154:    2f00        ./      CMP      r7,#0
        0x00003156:    d000        ..      BEQ      0x315a ; BsrJoel + 26
        0x00003158:    6038        8`      STR      r0,[r7,#0]
        0x0000315a:    2e00        ..      CMP      r6,#0
        0x0000315c:    d000        ..      BEQ      0x3160 ; BsrJoel + 32
        0x0000315e:    6030        0`      STR      r0,[r6,#0]
        0x00003160:    6ca0        .l      LDR      r0,[r4,#0x48]
        0x00003162:    9006        ..      STR      r0,[sp,#0x18]
        0x00003164:    2800        .(      CMP      r0,#0
        0x00003166:    d06f        o.      BEQ      0x3248 ; BsrJoel + 264
        0x00003168:    6b60        `k      LDR      r0,[r4,#0x34]
        0x0000316a:    1040        @.      ASRS     r0,r0,#1
        0x0000316c:    9005        ..      STR      r0,[sp,#0x14]
        0x0000316e:    6ba0        .k      LDR      r0,[r4,#0x38]
        0x00003170:    2800        .(      CMP      r0,#0
        0x00003172:    dd02        ..      BLE      0x317a ; BsrJoel + 58
        0x00003174:    6be0        .k      LDR      r0,[r4,#0x3c]
        0x00003176:    1040        @.      ASRS     r0,r0,#1
        0x00003178:    e000        ..      B        0x317c ; BsrJoel + 60
        0x0000317a:    2000        .       MOVS     r0,#0
        0x0000317c:    4684        .F      MOV      r12,r0
        0x0000317e:    6c20         l      LDR      r0,[r4,#0x40]
        0x00003180:    9002        ..      STR      r0,[sp,#8]
        0x00003182:    1041        A.      ASRS     r1,r0,#1
        0x00003184:    2200        ."      MOVS     r2,#0
        0x00003186:    4610        .F      MOV      r0,r2
        0x00003188:    e009        ..      B        0x319e ; BsrJoel + 94
        0x0000318a:    9b06        ..      LDR      r3,[sp,#0x18]
        0x0000318c:    004d        M.      LSLS     r5,r1,#1
        0x0000318e:    5b5b        [[      LDRH     r3,[r3,r5]
        0x00003190:    1e49        I.      SUBS     r1,r1,#1
        0x00003192:    1818        ..      ADDS     r0,r3,r0
        0x00003194:    1c52        R.      ADDS     r2,r2,#1
        0x00003196:    2900        .)      CMP      r1,#0
        0x00003198:    da01        ..      BGE      0x319e ; BsrJoel + 94
        0x0000319a:    9b05        ..      LDR      r3,[sp,#0x14]
        0x0000319c:    18c9        ..      ADDS     r1,r1,r3
        0x0000319e:    4561        aE      CMP      r1,r12
        0x000031a0:    d001        ..      BEQ      0x31a6 ; BsrJoel + 102
        0x000031a2:    2a32        2*      CMP      r2,#0x32
        0x000031a4:    dbf1        ..      BLT      0x318a ; BsrJoel + 74
        0x000031a6:    2a00        .*      CMP      r2,#0
        0x000031a8:    dd02        ..      BLE      0x31b0 ; BsrJoel + 112
        0x000031aa:    4611        .F      MOV      r1,r2
        0x000031ac:    f7fdf834    ..4.    BL       __aeabi_idiv ; 0x218
        0x000031b0:    6c61        al      LDR      r1,[r4,#0x44]
        0x000031b2:    1049        I.      ASRS     r1,r1,#1
        0x000031b4:    9104        ..      STR      r1,[sp,#0x10]
        0x000031b6:    9902        ..      LDR      r1,[sp,#8]
        0x000031b8:    104a        J.      ASRS     r2,r1,#1
        0x000031ba:    2100        .!      MOVS     r1,#0
        0x000031bc:    468c        .F      MOV      r12,r1
        0x000031be:    460d        .F      MOV      r5,r1
        0x000031c0:    9109        ..      STR      r1,[sp,#0x24]
        0x000031c2:    4931        1I      LDR      r1,[pc,#196] ; [0x3288] = 0xffff
        0x000031c4:    468e        .F      MOV      lr,r1
        0x000031c6:    e012        ..      B        0x31ee ; BsrJoel + 174
        0x000031c8:    9906        ..      LDR      r1,[sp,#0x18]
        0x000031ca:    0053        S.      LSLS     r3,r2,#1
        0x000031cc:    5ac9        .Z      LDRH     r1,[r1,r3]
        0x000031ce:    9b09        ..      LDR      r3,[sp,#0x24]
        0x000031d0:    186d        m.      ADDS     r5,r5,r1
        0x000031d2:    428b        .B      CMP      r3,r1
        0x000031d4:    da00        ..      BGE      0x31d8 ; BsrJoel + 152
        0x000031d6:    9109        ..      STR      r1,[sp,#0x24]
        0x000031d8:    458e        .E      CMP      lr,r1
        0x000031da:    dd00        ..      BLE      0x31de ; BsrJoel + 158
        0x000031dc:    468e        .F      MOV      lr,r1
        0x000031de:    4661        aF      MOV      r1,r12
        0x000031e0:    1c49        I.      ADDS     r1,r1,#1
        0x000031e2:    468c        .F      MOV      r12,r1
        0x000031e4:    9905        ..      LDR      r1,[sp,#0x14]
        0x000031e6:    1c52        R.      ADDS     r2,r2,#1
        0x000031e8:    428a        .B      CMP      r2,r1
        0x000031ea:    db00        ..      BLT      0x31ee ; BsrJoel + 174
        0x000031ec:    2200        ."      MOVS     r2,#0
        0x000031ee:    9904        ..      LDR      r1,[sp,#0x10]
        0x000031f0:    428a        .B      CMP      r2,r1
        0x000031f2:    d1e9        ..      BNE      0x31c8 ; BsrJoel + 136
        0x000031f4:    4661        aF      MOV      r1,r12
        0x000031f6:    2900        .)      CMP      r1,#0
        0x000031f8:    dd05        ..      BLE      0x3206 ; BsrJoel + 198
        0x000031fa:    9909        ..      LDR      r1,[sp,#0x24]
        0x000031fc:    004a        J.      LSLS     r2,r1,#1
        0x000031fe:    188a        ..      ADDS     r2,r1,r2
        0x00003200:    4671        qF      MOV      r1,lr
        0x00003202:    1851        Q.      ADDS     r1,r2,r1
        0x00003204:    108d        ..      ASRS     r5,r1,#2
        0x00003206:    990c        ..      LDR      r1,[sp,#0x30]
        0x00003208:    2900        .)      CMP      r1,#0
        0x0000320a:    d000        ..      BEQ      0x320e ; BsrJoel + 206
        0x0000320c:    600d        .`      STR      r5,[r1,#0]
        0x0000320e:    2f00        ./      CMP      r7,#0
        0x00003210:    d000        ..      BEQ      0x3214 ; BsrJoel + 212
        0x00003212:    6038        8`      STR      r0,[r7,#0]
        0x00003214:    2800        .(      CMP      r0,#0
        0x00003216:    dc01        ..      BGT      0x321c ; BsrJoel + 220
        0x00003218:    2d00        .-      CMP      r5,#0
        0x0000321a:    dd2f        /.      BLE      0x327c ; BsrJoel + 316
        0x0000321c:    6d61        am      LDR      r1,[r4,#0x54]
        0x0000321e:    4281        .B      CMP      r1,r0
        0x00003220:    dd00        ..      BLE      0x3224 ; BsrJoel + 228
        0x00003222:    4608        .F      MOV      r0,r1
        0x00003224:    6e21        !n      LDR      r1,[r4,#0x60]
        0x00003226:    2902        .)      CMP      r1,#2
        0x00003228:    db06        ..      BLT      0x3238 ; BsrJoel + 248
        0x0000322a:    6aa2        .j      LDR      r2,[r4,#0x28]
        0x0000322c:    6da1        .m      LDR      r1,[r4,#0x58]
        0x0000322e:    1a53        S.      SUBS     r3,r2,r1
        0x00003230:    2b1e        .+      CMP      r3,#0x1e
        0x00003232:    dc01        ..      BGT      0x3238 ; BsrJoel + 248
        0x00003234:    428a        .B      CMP      r2,r1
        0x00003236:    da08        ..      BGE      0x324a ; BsrJoel + 266
        0x00003238:    4601        .F      MOV      r1,r0
        0x0000323a:    2201        ."      MOVS     r2,#1
        0x0000323c:    980b        ..      LDR      r0,[sp,#0x2c]
        0x0000323e:    f000f8d1    ....    BL       BsrMaarav ; 0x33e4
        0x00003242:    6aa1        .j      LDR      r1,[r4,#0x28]
        0x00003244:    65a1        .e      STR      r1,[r4,#0x58]
        0x00003246:    e005        ..      B        0x3254 ; BsrJoel + 276
        0x00003248:    e011        ..      B        0x326e ; BsrJoel + 302
        0x0000324a:    4601        .F      MOV      r1,r0
        0x0000324c:    2200        ."      MOVS     r2,#0
        0x0000324e:    980b        ..      LDR      r0,[sp,#0x2c]
        0x00003250:    f000f8c8    ....    BL       BsrMaarav ; 0x33e4
        0x00003254:    2f00        ./      CMP      r7,#0
        0x00003256:    d000        ..      BEQ      0x325a ; BsrJoel + 282
        0x00003258:    6038        8`      STR      r0,[r7,#0]
        0x0000325a:    4285        .B      CMP      r5,r0
        0x0000325c:    dd11        ..      BLE      0x3282 ; BsrJoel + 322
        0x0000325e:    210f        .!      MOVS     r1,#0xf
        0x00003260:    0249        I.      LSLS     r1,r1,#9
        0x00003262:    1842        B.      ADDS     r2,r0,r1
        0x00003264:    4295        .B      CMP      r5,r2
        0x00003266:    db03        ..      BLT      0x3270 ; BsrJoel + 304
        0x00003268:    2e00        ..      CMP      r6,#0
        0x0000326a:    d007        ..      BEQ      0x327c ; BsrJoel + 316
        0x0000326c:    6031        1`      STR      r1,[r6,#0]
        0x0000326e:    e005        ..      B        0x327c ; BsrJoel + 316
        0x00003270:    1a28        (.      SUBS     r0,r5,r0
        0x00003272:    2e00        ..      CMP      r6,#0
        0x00003274:    d000        ..      BEQ      0x3278 ; BsrJoel + 312
        0x00003276:    6030        0`      STR      r0,[r6,#0]
        0x00003278:    28ff        .(      CMP      r0,#0xff
        0x0000327a:    dd02        ..      BLE      0x3282 ; BsrJoel + 322
        0x0000327c:    2001        .       MOVS     r0,#1
        0x0000327e:    b00f        ..      ADD      sp,sp,#0x3c
        0x00003280:    bdf0        ..      POP      {r4-r7,pc}
        0x00003282:    2000        .       MOVS     r0,#0
        0x00003284:    e7fb        ..      B        0x327e ; BsrJoel + 318
    $d
        0x00003286:    0000        ..      DCW    0
        0x00003288:    0000ffff    ....    DCD    65535
    $t
    i.BsrJoey
    BsrJoey
        0x0000328c:    b510        ..      PUSH     {r4,lr}
        0x0000328e:    4604        .F      MOV      r4,r0
        0x00003290:    2000        .       MOVS     r0,#0
        0x00003292:    2900        .)      CMP      r1,#0
        0x00003294:    dc00        ..      BGT      0x3298 ; BsrJoey + 12
        0x00003296:    bd10        ..      POP      {r4,pc}
        0x00003298:    2200        ."      MOVS     r2,#0
        0x0000329a:    e005        ..      B        0x32a8 ; BsrJoey + 28
        0x0000329c:    0053        S.      LSLS     r3,r2,#1
        0x0000329e:    5ee3        .^      LDRSH    r3,[r4,r3]
        0x000032a0:    435b        [C      MULS     r3,r3,r3
        0x000032a2:    0a9b        ..      LSRS     r3,r3,#10
        0x000032a4:    1818        ..      ADDS     r0,r3,r0
        0x000032a6:    1c52        R.      ADDS     r2,r2,#1
        0x000032a8:    428a        .B      CMP      r2,r1
        0x000032aa:    dbf7        ..      BLT      0x329c ; BsrJoey + 16
        0x000032ac:    f7fcffa6    ....    BL       __aeabi_uidiv ; 0x1fc
        0x000032b0:    0282        ..      LSLS     r2,r0,#10
        0x000032b2:    2000        .       MOVS     r0,#0
        0x000032b4:    2101        .!      MOVS     r1,#1
        0x000032b6:    0789        ..      LSLS     r1,r1,#30
        0x000032b8:    e000        ..      B        0x32bc ; BsrJoey + 48
        0x000032ba:    0889        ..      LSRS     r1,r1,#2
        0x000032bc:    4291        .B      CMP      r1,r2
        0x000032be:    d8fc        ..      BHI      0x32ba ; BsrJoey + 46
        0x000032c0:    e007        ..      B        0x32d2 ; BsrJoey + 70
        0x000032c2:    1843        C.      ADDS     r3,r0,r1
        0x000032c4:    4293        .B      CMP      r3,r2
        0x000032c6:    d802        ..      BHI      0x32ce ; BsrJoey + 66
        0x000032c8:    1ad2        ..      SUBS     r2,r2,r3
        0x000032ca:    004b        K.      LSLS     r3,r1,#1
        0x000032cc:    1818        ..      ADDS     r0,r3,r0
        0x000032ce:    0840        @.      LSRS     r0,r0,#1
        0x000032d0:    0889        ..      LSRS     r1,r1,#2
        0x000032d2:    2900        .)      CMP      r1,#0
        0x000032d4:    d1f5        ..      BNE      0x32c2 ; BsrJoey + 54
        0x000032d6:    4282        .B      CMP      r2,r0
        0x000032d8:    d9dd        ..      BLS      0x3296 ; BsrJoey + 10
        0x000032da:    1c40        @.      ADDS     r0,r0,#1
        0x000032dc:    bd10        ..      POP      {r4,pc}
    i.BsrJohn
    BsrJohn
        0x000032de:    2800        .(      CMP      r0,#0
        0x000032e0:    d007        ..      BEQ      0x32f2 ; BsrJohn + 20
        0x000032e2:    2300        .#      MOVS     r3,#0
        0x000032e4:    b2c9        ..      UXTB     r1,r1
        0x000032e6:    e002        ..      B        0x32ee ; BsrJohn + 16
        0x000032e8:    7001        .p      STRB     r1,[r0,#0]
        0x000032ea:    1c40        @.      ADDS     r0,r0,#1
        0x000032ec:    1c5b        [.      ADDS     r3,r3,#1
        0x000032ee:    4293        .B      CMP      r3,r2
        0x000032f0:    dbfa        ..      BLT      0x32e8 ; BsrJohn + 10
        0x000032f2:    4770        pG      BX       lr
    i.BsrJose
    BsrJose
        0x000032f4:    b510        ..      PUSH     {r4,lr}
        0x000032f6:    2800        .(      CMP      r0,#0
        0x000032f8:    d00c        ..      BEQ      0x3314 ; BsrJose + 32
        0x000032fa:    2900        .)      CMP      r1,#0
        0x000032fc:    d00a        ..      BEQ      0x3314 ; BsrJose + 32
        0x000032fe:    4288        .B      CMP      r0,r1
        0x00003300:    d008        ..      BEQ      0x3314 ; BsrJose + 32
        0x00003302:    2300        .#      MOVS     r3,#0
        0x00003304:    e004        ..      B        0x3310 ; BsrJose + 28
        0x00003306:    780c        .x      LDRB     r4,[r1,#0]
        0x00003308:    7004        .p      STRB     r4,[r0,#0]
        0x0000330a:    1c40        @.      ADDS     r0,r0,#1
        0x0000330c:    1c49        I.      ADDS     r1,r1,#1
        0x0000330e:    1c5b        [.      ADDS     r3,r3,#1
        0x00003310:    4293        .B      CMP      r3,r2
        0x00003312:    dbf8        ..      BLT      0x3306 ; BsrJose + 18
        0x00003314:    bd10        ..      POP      {r4,pc}
    i.BsrJosh
    BsrJosh
        0x00003316:    b530        0.      PUSH     {r4,r5,lr}
        0x00003318:    0003        ..      MOVS     r3,r0
        0x0000331a:    d003        ..      BEQ      0x3324 ; BsrJosh + 14
        0x0000331c:    2900        .)      CMP      r1,#0
        0x0000331e:    d106        ..      BNE      0x332e ; BsrJosh + 24
        0x00003320:    2001        .       MOVS     r0,#1
        0x00003322:    bd30        0.      POP      {r4,r5,pc}
        0x00003324:    2900        .)      CMP      r1,#0
        0x00003326:    d002        ..      BEQ      0x332e ; BsrJosh + 24
        0x00003328:    2000        .       MOVS     r0,#0
        0x0000332a:    43c0        .C      MVNS     r0,r0
        0x0000332c:    bd30        0.      POP      {r4,r5,pc}
        0x0000332e:    4308        .C      ORRS     r0,r0,r1
        0x00003330:    d0fc        ..      BEQ      0x332c ; BsrJosh + 22
        0x00003332:    2000        .       MOVS     r0,#0
        0x00003334:    e00c        ..      B        0x3350 ; BsrJosh + 58
        0x00003336:    5c1c        .\      LDRB     r4,[r3,r0]
        0x00003338:    5c0d        .\      LDRB     r5,[r1,r0]
        0x0000333a:    42ac        .B      CMP      r4,r5
        0x0000333c:    d007        ..      BEQ      0x334e ; BsrJosh + 56
        0x0000333e:    b2e2        ..      UXTB     r2,r4
        0x00003340:    b2e9        ..      UXTB     r1,r5
        0x00003342:    428a        .B      CMP      r2,r1
        0x00003344:    d901        ..      BLS      0x334a ; BsrJosh + 52
        0x00003346:    1c40        @.      ADDS     r0,r0,#1
        0x00003348:    bd30        0.      POP      {r4,r5,pc}
        0x0000334a:    43c0        .C      MVNS     r0,r0
        0x0000334c:    bd30        0.      POP      {r4,r5,pc}
        0x0000334e:    1c40        @.      ADDS     r0,r0,#1
        0x00003350:    4290        .B      CMP      r0,r2
        0x00003352:    dbf0        ..      BLT      0x3336 ; BsrJosh + 32
        0x00003354:    2000        .       MOVS     r0,#0
        0x00003356:    bd30        0.      POP      {r4,r5,pc}
    i.BsrJuanita
    BsrJuanita
        0x00003358:    b530        0.      PUSH     {r4,r5,lr}
        0x0000335a:    4603        .F      MOV      r3,r0
        0x0000335c:    2000        .       MOVS     r0,#0
        0x0000335e:    e004        ..      B        0x336a ; BsrJuanita + 18
        0x00003360:    0044        D.      LSLS     r4,r0,#1
        0x00003362:    0085        ..      LSLS     r5,r0,#2
        0x00003364:    5f0c        ._      LDRSH    r4,[r1,r4]
        0x00003366:    515c        \Q      STR      r4,[r3,r5]
        0x00003368:    1c40        @.      ADDS     r0,r0,#1
        0x0000336a:    4290        .B      CMP      r0,r2
        0x0000336c:    dbf8        ..      BLT      0x3360 ; BsrJuanita + 8
        0x0000336e:    bd30        0.      POP      {r4,r5,pc}
    i.BsrJuanitez
    BsrJuanitez
        0x00003370:    b530        0.      PUSH     {r4,r5,lr}
        0x00003372:    4603        .F      MOV      r3,r0
        0x00003374:    2000        .       MOVS     r0,#0
        0x00003376:    e004        ..      B        0x3382 ; BsrJuanitez + 18
        0x00003378:    0084        ..      LSLS     r4,r0,#2
        0x0000337a:    0045        E.      LSLS     r5,r0,#1
        0x0000337c:    5b0c        .[      LDRH     r4,[r1,r4]
        0x0000337e:    535c        \S      STRH     r4,[r3,r5]
        0x00003380:    1c40        @.      ADDS     r0,r0,#1
        0x00003382:    4290        .B      CMP      r0,r2
        0x00003384:    dbf8        ..      BLT      0x3378 ; BsrJuanitez + 8
        0x00003386:    bd30        0.      POP      {r4,r5,pc}
    i.BsrLee
    BsrLee
        0x00003388:    2800        .(      CMP      r0,#0
        0x0000338a:    d005        ..      BEQ      0x3398 ; BsrLee + 16
        0x0000338c:    6c81        .l      LDR      r1,[r0,#0x48]
        0x0000338e:    304c        L0      ADDS     r0,r0,#0x4c
        0x00003390:    0089        ..      LSLS     r1,r1,#2
        0x00003392:    1808        ..      ADDS     r0,r1,r0
        0x00003394:    1808        ..      ADDS     r0,r1,r0
        0x00003396:    3018        .0      ADDS     r0,r0,#0x18
        0x00003398:    4770        pG      BX       lr
    i.BsrLei
    BsrLei
        0x0000339a:    b500        ..      PUSH     {lr}
        0x0000339c:    2800        .(      CMP      r0,#0
        0x0000339e:    d004        ..      BEQ      0x33aa ; BsrLei + 16
        0x000033a0:    f7fffff2    ....    BL       BsrLee ; 0x3388
        0x000033a4:    6801        .h      LDR      r1,[r0,#0]
        0x000033a6:    0089        ..      LSLS     r1,r1,#2
        0x000033a8:    1808        ..      ADDS     r0,r1,r0
        0x000033aa:    bd00        ..      POP      {pc}
    i.BsrLuke
    BsrLuke
        0x000033ac:    2005        .       MOVS     r0,#5
        0x000033ae:    0700        ..      LSLS     r0,r0,#28
        0x000033b0:    6800        .h      LDR      r0,[r0,#0]
        0x000033b2:    4904        .I      LDR      r1,[pc,#16] ; [0x33c4] = 0x1d070000
        0x000033b4:    0c00        ..      LSRS     r0,r0,#16
        0x000033b6:    0400        ..      LSLS     r0,r0,#16
        0x000033b8:    4288        .B      CMP      r0,r1
        0x000033ba:    d101        ..      BNE      0x33c0 ; BsrLuke + 20
        0x000033bc:    2001        .       MOVS     r0,#1
        0x000033be:    4770        pG      BX       lr
        0x000033c0:    2000        .       MOVS     r0,#0
        0x000033c2:    4770        pG      BX       lr
    $d
        0x000033c4:    1d070000    ....    DCD    486998016
    $t
    i.BsrLulu
    BsrLulu
        0x000033c8:    b530        0.      PUSH     {r4,r5,lr}
        0x000033ca:    4603        .F      MOV      r3,r0
        0x000033cc:    2000        .       MOVS     r0,#0
        0x000033ce:    e006        ..      B        0x33de ; BsrLulu + 22
        0x000033d0:    0084        ..      LSLS     r4,r0,#2
        0x000033d2:    591c        .Y      LDR      r4,[r3,r4]
        0x000033d4:    2514        .%      MOVS     r5,#0x14
        0x000033d6:    5f65        e_      LDRSH    r5,[r4,r5]
        0x000033d8:    4215        .B      TST      r5,r2
        0x000033da:    d102        ..      BNE      0x33e2 ; BsrLulu + 26
        0x000033dc:    1c40        @.      ADDS     r0,r0,#1
        0x000033de:    4288        .B      CMP      r0,r1
        0x000033e0:    dbf6        ..      BLT      0x33d0 ; BsrLulu + 8
        0x000033e2:    bd30        0.      POP      {r4,r5,pc}
    i.BsrMaarav
    BsrMaarav
        0x000033e4:    b570        p.      PUSH     {r4-r6,lr}
        0x000033e6:    4604        .F      MOV      r4,r0
        0x000033e8:    6dc0        .m      LDR      r0,[r0,#0x5c]
        0x000033ea:    1840        @.      ADDS     r0,r0,r1
        0x000033ec:    2a00        .*      CMP      r2,#0
        0x000033ee:    d00b        ..      BEQ      0x3408 ; BsrMaarav + 36
        0x000033f0:    65e0        .e      STR      r0,[r4,#0x5c]
        0x000033f2:    6e21        !n      LDR      r1,[r4,#0x60]
        0x000033f4:    4606        .F      MOV      r6,r0
        0x000033f6:    460d        .F      MOV      r5,r1
        0x000033f8:    1c49        I.      ADDS     r1,r1,#1
        0x000033fa:    f7fcff0d    ....    BL       __aeabi_idiv ; 0x218
        0x000033fe:    2d0f        .-      CMP      r5,#0xf
        0x00003400:    da07        ..      BGE      0x3412 ; BsrMaarav + 46
        0x00003402:    1c6d        m.      ADDS     r5,r5,#1
        0x00003404:    6625        %f      STR      r5,[r4,#0x60]
        0x00003406:    bd70        p.      POP      {r4-r6,pc}
        0x00003408:    6e21        !n      LDR      r1,[r4,#0x60]
        0x0000340a:    1c49        I.      ADDS     r1,r1,#1
        0x0000340c:    f7fcff04    ....    BL       __aeabi_idiv ; 0x218
        0x00003410:    bd70        p.      POP      {r4-r6,pc}
        0x00003412:    0131        1.      LSLS     r1,r6,#4
        0x00003414:    1b89        ..      SUBS     r1,r1,r6
        0x00003416:    3108        .1      ADDS     r1,r1,#8
        0x00003418:    1109        ..      ASRS     r1,r1,#4
        0x0000341a:    65e1        .e      STR      r1,[r4,#0x5c]
        0x0000341c:    bd70        p.      POP      {r4-r6,pc}
        0x0000341e:    0000        ..      MOVS     r0,r0
    i.BsrMabel
    BsrMabel
        0x00003420:    b5f7        ..      PUSH     {r0-r2,r4-r7,lr}
        0x00003422:    b082        ..      SUB      sp,sp,#8
        0x00003424:    9000        ..      STR      r0,[sp,#0]
        0x00003426:    68c0        .h      LDR      r0,[r0,#0xc]
        0x00003428:    2114        .!      MOVS     r1,#0x14
        0x0000342a:    f7fff9bb    ....    BL       BsrGuy ; 0x27a4
        0x0000342e:    2500        .%      MOVS     r5,#0
        0x00003430:    462e        .F      MOV      r6,r5
        0x00003432:    e018        ..      B        0x3466 ; BsrMabel + 70
        0x00003434:    9803        ..      LDR      r0,[sp,#0xc]
        0x00003436:    00ac        ..      LSLS     r4,r5,#2
        0x00003438:    5900        .Y      LDR      r0,[r0,r4]
        0x0000343a:    f000fa34    ..4.    BL       BsrMichelle ; 0x38a6
        0x0000343e:    4607        .F      MOV      r7,r0
        0x00003440:    9803        ..      LDR      r0,[sp,#0xc]
        0x00003442:    5900        .Y      LDR      r0,[r0,r4]
        0x00003444:    f001fa4e    ..N.    BL       NINJA_API_57 ; 0x48e4
        0x00003448:    2800        .(      CMP      r0,#0
        0x0000344a:    d00a        ..      BEQ      0x3462 ; BsrMabel + 66
        0x0000344c:    2400        .$      MOVS     r4,#0
        0x0000344e:    e006        ..      B        0x345e ; BsrMabel + 62
        0x00003450:    9800        ..      LDR      r0,[sp,#0]
        0x00003452:    1931        1.      ADDS     r1,r6,r4
        0x00003454:    68c0        .h      LDR      r0,[r0,#0xc]
        0x00003456:    4a07        .J      LDR      r2,[pc,#28] ; [0x3474] = 0xfffffc18
        0x00003458:    f7fffa78    ..x.    BL       BsrIvy ; 0x294c
        0x0000345c:    1c64        d.      ADDS     r4,r4,#1
        0x0000345e:    42bc        .B      CMP      r4,r7
        0x00003460:    dbf6        ..      BLT      0x3450 ; BsrMabel + 48
        0x00003462:    19f6        ..      ADDS     r6,r6,r7
        0x00003464:    1c6d        m.      ADDS     r5,r5,#1
        0x00003466:    9804        ..      LDR      r0,[sp,#0x10]
        0x00003468:    4285        .B      CMP      r5,r0
        0x0000346a:    dbe3        ..      BLT      0x3434 ; BsrMabel + 20
        0x0000346c:    4630        0F      MOV      r0,r6
        0x0000346e:    b005        ..      ADD      sp,sp,#0x14
        0x00003470:    bdf0        ..      POP      {r4-r7,pc}
    $d
        0x00003472:    0000        ..      DCW    0
        0x00003474:    fffffc18    ....    DCD    4294966296
    $t
    i.BsrMaxi
    BsrMaxi
        0x00003478:    b510        ..      PUSH     {r4,lr}
        0x0000347a:    2800        .(      CMP      r0,#0
        0x0000347c:    d023        #.      BEQ      0x34c6 ; BsrMaxi + 78
        0x0000347e:    4601        .F      MOV      r1,r0
        0x00003480:    6c02        .l      LDR      r2,[r0,#0x40]
        0x00003482:    3144        D1      ADDS     r1,r1,#0x44
        0x00003484:    2a00        .*      CMP      r2,#0
        0x00003486:    dd1d        ..      BLE      0x34c4 ; BsrMaxi + 76
        0x00003488:    2316        .#      MOVS     r3,#0x16
        0x0000348a:    5ec3        .^      LDRSH    r3,[r0,r3]
        0x0000348c:    3108        .1      ADDS     r1,r1,#8
        0x0000348e:    069c        ..      LSLS     r4,r3,#26
        0x00003490:    d518        ..      BPL      0x34c4 ; BsrMaxi + 76
        0x00003492:    071b        ..      LSLS     r3,r3,#28
        0x00003494:    d01a        ..      BEQ      0x34cc ; BsrMaxi + 84
        0x00003496:    0092        ..      LSLS     r2,r2,#2
        0x00003498:    1851        Q.      ADDS     r1,r2,r1
        0x0000349a:    1851        Q.      ADDS     r1,r2,r1
        0x0000349c:    2314        .#      MOVS     r3,#0x14
        0x0000349e:    5ec3        .^      LDRSH    r3,[r0,r3]
        0x000034a0:    2201        ."      MOVS     r2,#1
        0x000034a2:    0312        ..      LSLS     r2,r2,#12
        0x000034a4:    4293        .B      CMP      r3,r2
        0x000034a6:    db0f        ..      BLT      0x34c8 ; BsrMaxi + 80
        0x000034a8:    6842        Bh      LDR      r2,[r0,#4]
        0x000034aa:    680b        .h      LDR      r3,[r1,#0]
        0x000034ac:    2b00        .+      CMP      r3,#0
        0x000034ae:    dc05        ..      BGT      0x34bc ; BsrMaxi + 68
        0x000034b0:    1a0b        ..      SUBS     r3,r1,r0
        0x000034b2:    b21b        ..      SXTH     r3,r3
        0x000034b4:    4293        .B      CMP      r3,r2
        0x000034b6:    da01        ..      BGE      0x34bc ; BsrMaxi + 68
        0x000034b8:    1d09        ..      ADDS     r1,r1,#4
        0x000034ba:    e7f6        ..      B        0x34aa ; BsrMaxi + 50
        0x000034bc:    1a08        ..      SUBS     r0,r1,r0
        0x000034be:    b200        ..      SXTH     r0,r0
        0x000034c0:    4290        .B      CMP      r0,r2
        0x000034c2:    db01        ..      BLT      0x34c8 ; BsrMaxi + 80
        0x000034c4:    2000        .       MOVS     r0,#0
        0x000034c6:    bd10        ..      POP      {r4,pc}
        0x000034c8:    4608        .F      MOV      r0,r1
        0x000034ca:    bd10        ..      POP      {r4,pc}
        0x000034cc:    f7ffff65    ..e.    BL       BsrLei ; 0x339a
        0x000034d0:    6801        .h      LDR      r1,[r0,#0]
        0x000034d2:    0089        ..      LSLS     r1,r1,#2
        0x000034d4:    1808        ..      ADDS     r0,r1,r0
        0x000034d6:    c806        ..      LDM      r0!,{r1,r2}
        0x000034d8:    0089        ..      LSLS     r1,r1,#2
        0x000034da:    3808        .8      SUBS     r0,r0,#8
        0x000034dc:    1808        ..      ADDS     r0,r1,r0
        0x000034de:    6801        .h      LDR      r1,[r0,#0]
        0x000034e0:    2900        .)      CMP      r1,#0
        0x000034e2:    d001        ..      BEQ      0x34e8 ; BsrMaxi + 112
        0x000034e4:    4291        .B      CMP      r1,r2
        0x000034e6:    d1f0        ..      BNE      0x34ca ; BsrMaxi + 82
        0x000034e8:    1d00        ..      ADDS     r0,r0,#4
        0x000034ea:    2900        .)      CMP      r1,#0
        0x000034ec:    dded        ..      BLE      0x34ca ; BsrMaxi + 82
        0x000034ee:    2200        ."      MOVS     r2,#0
        0x000034f0:    e003        ..      B        0x34fa ; BsrMaxi + 130
        0x000034f2:    6803        .h      LDR      r3,[r0,#0]
        0x000034f4:    009b        ..      LSLS     r3,r3,#2
        0x000034f6:    1818        ..      ADDS     r0,r3,r0
        0x000034f8:    1c52        R.      ADDS     r2,r2,#1
        0x000034fa:    428a        .B      CMP      r2,r1
        0x000034fc:    dbf9        ..      BLT      0x34f2 ; BsrMaxi + 122
        0x000034fe:    bd10        ..      POP      {r4,pc}
    i.BsrMegan
    BsrMegan
        0x00003500:    b5f7        ..      PUSH     {r0-r2,r4-r7,lr}
        0x00003502:    4604        .F      MOV      r4,r0
        0x00003504:    2000        .       MOVS     r0,#0
        0x00003506:    b088        ..      SUB      sp,sp,#0x20
        0x00003508:    65a0        .e      STR      r0,[r4,#0x58]
        0x0000350a:    4615        .F      MOV      r5,r2
        0x0000350c:    4601        .F      MOV      r1,r0
        0x0000350e:    65e0        .e      STR      r0,[r4,#0x5c]
        0x00003510:    e013        ..      B        0x353a ; BsrMegan + 58
        0x00003512:    9809        ..      LDR      r0,[sp,#0x24]
        0x00003514:    008a        ..      LSLS     r2,r1,#2
        0x00003516:    5880        .X      LDR      r0,[r0,r2]
        0x00003518:    6e23        #n      LDR      r3,[r4,#0x60]
        0x0000351a:    6c82        .l      LDR      r2,[r0,#0x48]
        0x0000351c:    3040        @0      ADDS     r0,r0,#0x40
        0x0000351e:    4293        .B      CMP      r3,r2
        0x00003520:    d10d        ..      BNE      0x353e ; BsrMegan + 62
        0x00003522:    6da2        .m      LDR      r2,[r4,#0x58]
        0x00003524:    6803        .h      LDR      r3,[r0,#0]
        0x00003526:    18d2        ..      ADDS     r2,r2,r3
        0x00003528:    65a2        .e      STR      r2,[r4,#0x58]
        0x0000352a:    6de2        .m      LDR      r2,[r4,#0x5c]
        0x0000352c:    6840        @h      LDR      r0,[r0,#4]
        0x0000352e:    1810        ..      ADDS     r0,r2,r0
        0x00003530:    65e0        .e      STR      r0,[r4,#0x5c]
        0x00003532:    6ae0        .j      LDR      r0,[r4,#0x2c]
        0x00003534:    1c40        @.      ADDS     r0,r0,#1
        0x00003536:    1c49        I.      ADDS     r1,r1,#1
        0x00003538:    62e0        .b      STR      r0,[r4,#0x2c]
        0x0000353a:    42a9        .B      CMP      r1,r5
        0x0000353c:    dbe9        ..      BLT      0x3512 ; BsrMegan + 18
        0x0000353e:    6de0        .m      LDR      r0,[r4,#0x5c]
        0x00003540:    1b40        @.      SUBS     r0,r0,r5
        0x00003542:    1c40        @.      ADDS     r0,r0,#1
        0x00003544:    65e0        .e      STR      r0,[r4,#0x5c]
        0x00003546:    42a9        .B      CMP      r1,r5
        0x00003548:    db04        ..      BLT      0x3554 ; BsrMegan + 84
        0x0000354a:    6da0        .m      LDR      r0,[r4,#0x58]
        0x0000354c:    2800        .(      CMP      r0,#0
        0x0000354e:    dd01        ..      BLE      0x3554 ; BsrMegan + 84
        0x00003550:    2d0a        .-      CMP      r5,#0xa
        0x00003552:    dd02        ..      BLE      0x355a ; BsrMegan + 90
        0x00003554:    2000        .       MOVS     r0,#0
        0x00003556:    b00b        ..      ADD      sp,sp,#0x2c
        0x00003558:    bdf0        ..      POP      {r4-r7,pc}
        0x0000355a:    0081        ..      LSLS     r1,r0,#2
        0x0000355c:    208d        .       MOVS     r0,#0x8d
        0x0000355e:    0080        ..      LSLS     r0,r0,#2
        0x00003560:    5900        .Y      LDR      r0,[r0,r4]
        0x00003562:    f7fdf96f    ..o.    BL       BsrAbel ; 0x844
        0x00003566:    4621        !F      MOV      r1,r4
        0x00003568:    31ff        .1      ADDS     r1,r1,#0xff
        0x0000356a:    3181        .1      ADDS     r1,r1,#0x81
        0x0000356c:    468e        .F      MOV      lr,r1
        0x0000356e:    6448        Hd      STR      r0,[r1,#0x44]
        0x00003570:    2800        .(      CMP      r0,#0
        0x00003572:    d008        ..      BEQ      0x3586 ; BsrMegan + 134
        0x00003574:    6da1        .m      LDR      r1,[r4,#0x58]
        0x00003576:    0049        I.      LSLS     r1,r1,#1
        0x00003578:    1841        A.      ADDS     r1,r0,r1
        0x0000357a:    4670        pF      MOV      r0,lr
        0x0000357c:    6481        .d      STR      r1,[r0,#0x48]
        0x0000357e:    2000        .       MOVS     r0,#0
        0x00003580:    4601        .F      MOV      r1,r0
        0x00003582:    9001        ..      STR      r0,[sp,#4]
        0x00003584:    e089        ..      B        0x369a ; BsrMegan + 410
        0x00003586:    2000        .       MOVS     r0,#0
        0x00003588:    43c0        .C      MVNS     r0,r0
        0x0000358a:    e7e4        ..      B        0x3556 ; BsrMegan + 86
        0x0000358c:    0088        ..      LSLS     r0,r1,#2
        0x0000358e:    9a09        ..      LDR      r2,[sp,#0x24]
        0x00003590:    9006        ..      STR      r0,[sp,#0x18]
        0x00003592:    5812        .X      LDR      r2,[r2,r0]
        0x00003594:    1903        ..      ADDS     r3,r0,r4
        0x00003596:    9303        ..      STR      r3,[sp,#0xc]
        0x00003598:    605a        Z`      STR      r2,[r3,#4]
        0x0000359a:    9a09        ..      LDR      r2,[sp,#0x24]
        0x0000359c:    33ff        .3      ADDS     r3,r3,#0xff
        0x0000359e:    5812        .X      LDR      r2,[r2,r0]
        0x000035a0:    9205        ..      STR      r2,[sp,#0x14]
        0x000035a2:    6c10        .l      LDR      r0,[r2,#0x40]
        0x000035a4:    324c        L2      ADDS     r2,r2,#0x4c
        0x000035a6:    3301        .3      ADDS     r3,#1
        0x000035a8:    9302        ..      STR      r3,[sp,#8]
        0x000035aa:    9200        ..      STR      r2,[sp,#0]
        0x000035ac:    675a        Zg      STR      r2,[r3,#0x74]
        0x000035ae:    9b01        ..      LDR      r3,[sp,#4]
        0x000035b0:    2200        ."      MOVS     r2,#0
        0x000035b2:    469c        .F      MOV      r12,r3
        0x000035b4:    e00b        ..      B        0x35ce ; BsrMegan + 206
        0x000035b6:    9b00        ..      LDR      r3,[sp,#0]
        0x000035b8:    0096        ..      LSLS     r6,r2,#2
        0x000035ba:    5b9b        .[      LDRH     r3,[r3,r6]
        0x000035bc:    4676        vF      MOV      r6,lr
        0x000035be:    6c76        vl      LDR      r6,[r6,#0x44]
        0x000035c0:    4667        gF      MOV      r7,r12
        0x000035c2:    007f        ..      LSLS     r7,r7,#1
        0x000035c4:    53f3        .S      STRH     r3,[r6,r7]
        0x000035c6:    4663        cF      MOV      r3,r12
        0x000035c8:    1c5b        [.      ADDS     r3,r3,#1
        0x000035ca:    469c        .F      MOV      r12,r3
        0x000035cc:    1c52        R.      ADDS     r2,r2,#1
        0x000035ce:    4282        .B      CMP      r2,r0
        0x000035d0:    dbf1        ..      BLT      0x35b6 ; BsrMegan + 182
        0x000035d2:    0082        ..      LSLS     r2,r0,#2
        0x000035d4:    9b00        ..      LDR      r3,[sp,#0]
        0x000035d6:    9204        ..      STR      r2,[sp,#0x10]
        0x000035d8:    18d3        ..      ADDS     r3,r2,r3
        0x000035da:    9a03        ..      LDR      r2,[sp,#0xc]
        0x000035dc:    9300        ..      STR      r3,[sp,#0]
        0x000035de:    32ff        .2      ADDS     r2,r2,#0xff
        0x000035e0:    3281        .2      ADDS     r2,r2,#0x81
        0x000035e2:    61d3        .a      STR      r3,[r2,#0x1c]
        0x000035e4:    9a01        ..      LDR      r2,[sp,#4]
        0x000035e6:    2300        .#      MOVS     r3,#0
        0x000035e8:    4694        .F      MOV      r12,r2
        0x000035ea:    e00b        ..      B        0x3604 ; BsrMegan + 260
        0x000035ec:    9e00        ..      LDR      r6,[sp,#0]
        0x000035ee:    009f        ..      LSLS     r7,r3,#2
        0x000035f0:    5bf6        .[      LDRH     r6,[r6,r7]
        0x000035f2:    4672        rF      MOV      r2,lr
        0x000035f4:    6c97        .l      LDR      r7,[r2,#0x48]
        0x000035f6:    4662        bF      MOV      r2,r12
        0x000035f8:    0052        R.      LSLS     r2,r2,#1
        0x000035fa:    52be        .R      STRH     r6,[r7,r2]
        0x000035fc:    4662        bF      MOV      r2,r12
        0x000035fe:    1c52        R.      ADDS     r2,r2,#1
        0x00003600:    4694        .F      MOV      r12,r2
        0x00003602:    1c5b        [.      ADDS     r3,r3,#1
        0x00003604:    4283        .B      CMP      r3,r0
        0x00003606:    dbf1        ..      BLT      0x35ec ; BsrMegan + 236
        0x00003608:    9b00        ..      LDR      r3,[sp,#0]
        0x0000360a:    9a04        ..      LDR      r2,[sp,#0x10]
        0x0000360c:    2614        .&      MOVS     r6,#0x14
        0x0000360e:    18d2        ..      ADDS     r2,r2,r3
        0x00003610:    9b05        ..      LDR      r3,[sp,#0x14]
        0x00003612:    5f9e        ._      LDRSH    r6,[r3,r6]
        0x00003614:    2301        .#      MOVS     r3,#1
        0x00003616:    031b        ..      LSLS     r3,r3,#12
        0x00003618:    429e        .B      CMP      r6,r3
        0x0000361a:    db0f        ..      BLT      0x363c ; BsrMegan + 316
        0x0000361c:    9b05        ..      LDR      r3,[sp,#0x14]
        0x0000361e:    9f06        ..      LDR      r7,[sp,#0x18]
        0x00003620:    9e09        ..      LDR      r6,[sp,#0x24]
        0x00003622:    685b        [h      LDR      r3,[r3,#4]
        0x00003624:    59f7        .Y      LDR      r7,[r6,r7]
        0x00003626:    6816        .h      LDR      r6,[r2,#0]
        0x00003628:    2e00        ..      CMP      r6,#0
        0x0000362a:    dc04        ..      BGT      0x3636 ; BsrMegan + 310
        0x0000362c:    1bd6        ..      SUBS     r6,r2,r7
        0x0000362e:    429e        .B      CMP      r6,r3
        0x00003630:    da01        ..      BGE      0x3636 ; BsrMegan + 310
        0x00003632:    1d12        ..      ADDS     r2,r2,#4
        0x00003634:    e7f7        ..      B        0x3626 ; BsrMegan + 294
        0x00003636:    1bd6        ..      SUBS     r6,r2,r7
        0x00003638:    429e        .B      CMP      r6,r3
        0x0000363a:    da31        1.      BGE      0x36a0 ; BsrMegan + 416
        0x0000363c:    9b05        ..      LDR      r3,[sp,#0x14]
        0x0000363e:    7d9b        .}      LDRB     r3,[r3,#0x16]
        0x00003640:    069b        ..      LSLS     r3,r3,#26
        0x00003642:    d512        ..      BPL      0x366a ; BsrMegan + 362
        0x00003644:    9b03        ..      LDR      r3,[sp,#0xc]
        0x00003646:    3380        .3      ADDS     r3,r3,#0x80
        0x00003648:    629a        .b      STR      r2,[r3,#0x28]
        0x0000364a:    1de3        ..      ADDS     r3,r4,#7
        0x0000364c:    33f9        .3      ADDS     r3,r3,#0xf9
        0x0000364e:    ca40        @.      LDM      r2!,{r6}
        0x00003650:    469c        .F      MOV      r12,r3
        0x00003652:    6a1b        .j      LDR      r3,[r3,#0x20]
        0x00003654:    199f        ..      ADDS     r7,r3,r6
        0x00003656:    4663        cF      MOV      r3,r12
        0x00003658:    621f        .b      STR      r7,[r3,#0x20]
        0x0000365a:    2300        .#      MOVS     r3,#0
        0x0000365c:    e003        ..      B        0x3666 ; BsrMegan + 358
        0x0000365e:    6817        .h      LDR      r7,[r2,#0]
        0x00003660:    00bf        ..      LSLS     r7,r7,#2
        0x00003662:    18ba        ..      ADDS     r2,r7,r2
        0x00003664:    1c5b        [.      ADDS     r3,r3,#1
        0x00003666:    42b3        .B      CMP      r3,r6
        0x00003668:    dbf9        ..      BLT      0x365e ; BsrMegan + 350
        0x0000366a:    9b02        ..      LDR      r3,[sp,#8]
        0x0000366c:    2700        .'      MOVS     r7,#0
        0x0000366e:    625a        Zb      STR      r2,[r3,#0x24]
        0x00003670:    e00b        ..      B        0x368a ; BsrMegan + 394
        0x00003672:    6813        .h      LDR      r3,[r2,#0]
        0x00003674:    9e09        ..      LDR      r6,[sp,#0x24]
        0x00003676:    009b        ..      LSLS     r3,r3,#2
        0x00003678:    189a        ..      ADDS     r2,r3,r2
        0x0000367a:    9b06        ..      LDR      r3,[sp,#0x18]
        0x0000367c:    58f3        .X      LDR      r3,[r6,r3]
        0x0000367e:    1ad6        ..      SUBS     r6,r2,r3
        0x00003680:    9b05        ..      LDR      r3,[sp,#0x14]
        0x00003682:    685b        [h      LDR      r3,[r3,#4]
        0x00003684:    429e        .B      CMP      r6,r3
        0x00003686:    dc0b        ..      BGT      0x36a0 ; BsrMegan + 416
        0x00003688:    1c7f        ..      ADDS     r7,r7,#1
        0x0000368a:    4287        .B      CMP      r7,r0
        0x0000368c:    dbf1        ..      BLT      0x3672 ; BsrMegan + 370
        0x0000368e:    9a01        ..      LDR      r2,[sp,#4]
        0x00003690:    1810        ..      ADDS     r0,r2,r0
        0x00003692:    9a02        ..      LDR      r2,[sp,#8]
        0x00003694:    9001        ..      STR      r0,[sp,#4]
        0x00003696:    1c49        I.      ADDS     r1,r1,#1
        0x00003698:    64d0        .d      STR      r0,[r2,#0x4c]
        0x0000369a:    42a9        .B      CMP      r1,r5
        0x0000369c:    da00        ..      BGE      0x36a0 ; BsrMegan + 416
        0x0000369e:    e775        u.      B        0x358c ; BsrMegan + 140
        0x000036a0:    4608        .F      MOV      r0,r1
        0x000036a2:    e758        X.      B        0x3556 ; BsrMegan + 86
    i.BsrMelissa
    BsrMelissa
        0x000036a4:    b510        ..      PUSH     {r4,lr}
        0x000036a6:    6001        .`      STR      r1,[r0,#0]
        0x000036a8:    6c0a        .l      LDR      r2,[r1,#0x40]
        0x000036aa:    6582        .e      STR      r2,[r0,#0x58]
        0x000036ac:    6c4a        Jl      LDR      r2,[r1,#0x44]
        0x000036ae:    65c2        .e      STR      r2,[r0,#0x5c]
        0x000036b0:    6c8a        .l      LDR      r2,[r1,#0x48]
        0x000036b2:    6602        .f      STR      r2,[r0,#0x60]
        0x000036b4:    314c        L1      ADDS     r1,r1,#0x4c
        0x000036b6:    6641        Af      STR      r1,[r0,#0x64]
        0x000036b8:    0092        ..      LSLS     r2,r2,#2
        0x000036ba:    1851        Q.      ADDS     r1,r2,r1
        0x000036bc:    6681        .f      STR      r1,[r0,#0x68]
        0x000036be:    1851        Q.      ADDS     r1,r2,r1
        0x000036c0:    680a        .h      LDR      r2,[r1,#0]
        0x000036c2:    66c2        .f      STR      r2,[r0,#0x6c]
        0x000036c4:    684a        Jh      LDR      r2,[r1,#4]
        0x000036c6:    6702        .g      STR      r2,[r0,#0x70]
        0x000036c8:    688b        .h      LDR      r3,[r1,#8]
        0x000036ca:    4602        .F      MOV      r2,r0
        0x000036cc:    3280        .2      ADDS     r2,r2,#0x80
        0x000036ce:    6783        .g      STR      r3,[r0,#0x78]
        0x000036d0:    6093        .`      STR      r3,[r2,#8]
        0x000036d2:    68cb        .h      LDR      r3,[r1,#0xc]
        0x000036d4:    67c3        .g      STR      r3,[r0,#0x7c]
        0x000036d6:    60d3        .`      STR      r3,[r2,#0xc]
        0x000036d8:    6908        .i      LDR      r0,[r1,#0x10]
        0x000036da:    6010        .`      STR      r0,[r2,#0]
        0x000036dc:    6110        .a      STR      r0,[r2,#0x10]
        0x000036de:    6948        Hi      LDR      r0,[r1,#0x14]
        0x000036e0:    6050        P`      STR      r0,[r2,#4]
        0x000036e2:    3118        .1      ADDS     r1,r1,#0x18
        0x000036e4:    6191        .a      STR      r1,[r2,#0x18]
        0x000036e6:    6150        Pa      STR      r0,[r2,#0x14]
        0x000036e8:    6808        .h      LDR      r0,[r1,#0]
        0x000036ea:    0080        ..      LSLS     r0,r0,#2
        0x000036ec:    1840        @.      ADDS     r0,r0,r1
        0x000036ee:    61d0        .a      STR      r0,[r2,#0x1c]
        0x000036f0:    6801        .h      LDR      r1,[r0,#0]
        0x000036f2:    0089        ..      LSLS     r1,r1,#2
        0x000036f4:    1808        ..      ADDS     r0,r1,r0
        0x000036f6:    6210        .b      STR      r0,[r2,#0x20]
        0x000036f8:    6801        .h      LDR      r1,[r0,#0]
        0x000036fa:    0089        ..      LSLS     r1,r1,#2
        0x000036fc:    1809        ..      ADDS     r1,r1,r0
        0x000036fe:    680b        .h      LDR      r3,[r1,#0]
        0x00003700:    6840        @h      LDR      r0,[r0,#4]
        0x00003702:    2b00        .+      CMP      r3,#0
        0x00003704:    d001        ..      BEQ      0x370a ; BsrMelissa + 102
        0x00003706:    4283        .B      CMP      r3,r0
        0x00003708:    d10e        ..      BNE      0x3728 ; BsrMelissa + 132
        0x0000370a:    1d09        ..      ADDS     r1,r1,#4
        0x0000370c:    2b00        .+      CMP      r3,#0
        0x0000370e:    dd0b        ..      BLE      0x3728 ; BsrMelissa + 132
        0x00003710:    2000        .       MOVS     r0,#0
        0x00003712:    6251        Qb      STR      r1,[r2,#0x24]
        0x00003714:    4602        .F      MOV      r2,r0
        0x00003716:    e005        ..      B        0x3724 ; BsrMelissa + 128
        0x00003718:    684c        Lh      LDR      r4,[r1,#4]
        0x0000371a:    1820         .      ADDS     r0,r4,r0
        0x0000371c:    680c        .h      LDR      r4,[r1,#0]
        0x0000371e:    00a4        ..      LSLS     r4,r4,#2
        0x00003720:    1861        a.      ADDS     r1,r4,r1
        0x00003722:    1c52        R.      ADDS     r2,r2,#1
        0x00003724:    429a        .B      CMP      r2,r3
        0x00003726:    dbf7        ..      BLT      0x3718 ; BsrMelissa + 116
        0x00003728:    bd10        ..      POP      {r4,pc}
    i.BsrMia
    BsrMia
        0x0000372a:    b570        p.      PUSH     {r4-r6,lr}
        0x0000372c:    0004        ..      MOVS     r4,r0
        0x0000372e:    d00e        ..      BEQ      0x374e ; BsrMia + 36
        0x00003730:    4625        %F      MOV      r5,r4
        0x00003732:    3580        .5      ADDS     r5,r5,#0x80
        0x00003734:    6ee8        .n      LDR      r0,[r5,#0x6c]
        0x00003736:    f7fefa4f    ..O.    BL       BsrCoty ; 0x1bd8
        0x0000373a:    2000        .       MOVS     r0,#0
        0x0000373c:    66e8        .f      STR      r0,[r5,#0x6c]
        0x0000373e:    6628        (f      STR      r0,[r5,#0x60]
        0x00003740:    82a0        ..      STRH     r0,[r4,#0x14]
        0x00003742:    1e40        @.      SUBS     r0,r0,#1
        0x00003744:    8220         .      STRH     r0,[r4,#0x10]
        0x00003746:    2001        .       MOVS     r0,#1
        0x00003748:    65a8        .e      STR      r0,[r5,#0x58]
        0x0000374a:    2000        .       MOVS     r0,#0
        0x0000374c:    bd70        p.      POP      {r4-r6,pc}
        0x0000374e:    2004        .       MOVS     r0,#4
        0x00003750:    43c0        .C      MVNS     r0,r0
        0x00003752:    bd70        p.      POP      {r4-r6,pc}
    i.BsrMichael
    BsrMichael
        0x00003754:    b5ff        ..      PUSH     {r0-r7,lr}
        0x00003756:    b081        ..      SUB      sp,sp,#4
        0x00003758:    2400        .$      MOVS     r4,#0
        0x0000375a:    9802        ..      LDR      r0,[sp,#8]
        0x0000375c:    9f0c        ..      LDR      r7,[sp,#0x30]
        0x0000375e:    461e        .F      MOV      r6,r3
        0x00003760:    9400        ..      STR      r4,[sp,#0]
        0x00003762:    2800        .(      CMP      r0,#0
        0x00003764:    d00a        ..      BEQ      0x377c ; BsrMichael + 40
        0x00003766:    9803        ..      LDR      r0,[sp,#0xc]
        0x00003768:    2800        .(      CMP      r0,#0
        0x0000376a:    d007        ..      BEQ      0x377c ; BsrMichael + 40
        0x0000376c:    2e00        ..      CMP      r6,#0
        0x0000376e:    dd05        ..      BLE      0x377c ; BsrMichael + 40
        0x00003770:    980a        ..      LDR      r0,[sp,#0x28]
        0x00003772:    2800        .(      CMP      r0,#0
        0x00003774:    dd02        ..      BLE      0x377c ; BsrMichael + 40
        0x00003776:    980b        ..      LDR      r0,[sp,#0x2c]
        0x00003778:    2800        .(      CMP      r0,#0
        0x0000377a:    dc02        ..      BGT      0x3782 ; BsrMichael + 46
        0x0000377c:    2000        .       MOVS     r0,#0
        0x0000377e:    43c0        .C      MVNS     r0,r0
        0x00003780:    e034        4.      B        0x37ec ; BsrMichael + 152
        0x00003782:    2500        .%      MOVS     r5,#0
        0x00003784:    e00e        ..      B        0x37a4 ; BsrMichael + 80
        0x00003786:    9803        ..      LDR      r0,[sp,#0xc]
        0x00003788:    00a9        ..      LSLS     r1,r5,#2
        0x0000378a:    5840        @X      LDR      r0,[r0,r1]
        0x0000378c:    2800        .(      CMP      r0,#0
        0x0000378e:    d0f5        ..      BEQ      0x377c ; BsrMichael + 40
        0x00003790:    2d00        .-      CMP      r5,#0
        0x00003792:    d023        #.      BEQ      0x37dc ; BsrMichael + 136
        0x00003794:    2200        ."      MOVS     r2,#0
        0x00003796:    4611        .F      MOV      r1,r2
        0x00003798:    f7fdfbd6    ....    BL       BsrBen ; 0xf48
        0x0000379c:    9900        ..      LDR      r1,[sp,#0]
        0x0000379e:    1840        @.      ADDS     r0,r0,r1
        0x000037a0:    1c6d        m.      ADDS     r5,r5,#1
        0x000037a2:    9000        ..      STR      r0,[sp,#0]
        0x000037a4:    42b5        .B      CMP      r5,r6
        0x000037a6:    dbee        ..      BLT      0x3786 ; BsrMichael + 50
        0x000037a8:    9800        ..      LDR      r0,[sp,#0]
        0x000037aa:    2800        .(      CMP      r0,#0
        0x000037ac:    dde6        ..      BLE      0x377c ; BsrMichael + 40
        0x000037ae:    9801        ..      LDR      r0,[sp,#4]
        0x000037b0:    2800        .(      CMP      r0,#0
        0x000037b2:    d018        ..      BEQ      0x37e6 ; BsrMichael + 146
        0x000037b4:    258f        .%      MOVS     r5,#0x8f
        0x000037b6:    00ad        ..      LSLS     r5,r5,#2
        0x000037b8:    4629        )F      MOV      r1,r5
        0x000037ba:    f7fdf843    ..C.    BL       BsrAbel ; 0x844
        0x000037be:    0004        ..      MOVS     r4,r0
        0x000037c0:    d012        ..      BEQ      0x37e8 ; BsrMichael + 148
        0x000037c2:    462a        *F      MOV      r2,r5
        0x000037c4:    2100        .!      MOVS     r1,#0
        0x000037c6:    f7fffd8a    ....    BL       BsrJohn ; 0x32de
        0x000037ca:    1de5        ..      ADDS     r5,r4,#7
        0x000037cc:    35ff        .5      ADDS     r5,r5,#0xff
        0x000037ce:    35fa        .5      ADDS     r5,r5,#0xfa
        0x000037d0:    9801        ..      LDR      r0,[sp,#4]
        0x000037d2:    6368        hc      STR      r0,[r5,#0x34]
        0x000037d4:    9902        ..      LDR      r1,[sp,#8]
        0x000037d6:    2000        .       MOVS     r0,#0
        0x000037d8:    311c        .1      ADDS     r1,r1,#0x1c
        0x000037da:    e016        ..      B        0x380a ; BsrMichael + 182
        0x000037dc:    9803        ..      LDR      r0,[sp,#0xc]
        0x000037de:    9a0b        ..      LDR      r2,[sp,#0x2c]
        0x000037e0:    6800        .h      LDR      r0,[r0,#0]
        0x000037e2:    990a        ..      LDR      r1,[sp,#0x28]
        0x000037e4:    e7d8        ..      B        0x3798 ; BsrMichael + 68
        0x000037e6:    2400        .$      MOVS     r4,#0
        0x000037e8:    2001        .       MOVS     r0,#1
        0x000037ea:    43c0        .C      MVNS     r0,r0
        0x000037ec:    6038        8`      STR      r0,[r7,#0]
        0x000037ee:    4620         F      MOV      r0,r4
        0x000037f0:    f7fdf9ce    ....    BL       BsrAna ; 0xb90
        0x000037f4:    2000        .       MOVS     r0,#0
        0x000037f6:    b005        ..      ADD      sp,sp,#0x14
        0x000037f8:    bdf0        ..      POP      {r4-r7,pc}
        0x000037fa:    9a03        ..      LDR      r2,[sp,#0xc]
        0x000037fc:    0083        ..      LSLS     r3,r0,#2
        0x000037fe:    58d2        .X      LDR      r2,[r2,r3]
        0x00003800:    680b        .h      LDR      r3,[r1,#0]
        0x00003802:    69d2        .i      LDR      r2,[r2,#0x1c]
        0x00003804:    4293        .B      CMP      r3,r2
        0x00003806:    d102        ..      BNE      0x380e ; BsrMichael + 186
        0x00003808:    1c40        @.      ADDS     r0,r0,#1
        0x0000380a:    42b0        .B      CMP      r0,r6
        0x0000380c:    dbf5        ..      BLT      0x37fa ; BsrMichael + 166
        0x0000380e:    42b0        .B      CMP      r0,r6
        0x00003810:    dbb4        ..      BLT      0x377c ; BsrMichael + 40
        0x00003812:    4620         F      MOV      r0,r4
        0x00003814:    9902        ..      LDR      r1,[sp,#8]
        0x00003816:    f7ffff45    ..E.    BL       BsrMelissa ; 0x36a4
        0x0000381a:    980b        ..      LDR      r0,[sp,#0x2c]
        0x0000381c:    6760        `g      STR      r0,[r4,#0x74]
        0x0000381e:    9803        ..      LDR      r0,[sp,#0xc]
        0x00003820:    6801        .h      LDR      r1,[r0,#0]
        0x00003822:    9802        ..      LDR      r0,[sp,#8]
        0x00003824:    4281        .B      CMP      r1,r0
        0x00003826:    d006        ..      BEQ      0x3836 ; BsrMichael + 226
        0x00003828:    4632        2F      MOV      r2,r6
        0x0000382a:    4620         F      MOV      r0,r4
        0x0000382c:    9903        ..      LDR      r1,[sp,#0xc]
        0x0000382e:    f7fffe67    ..g.    BL       BsrMegan ; 0x3500
        0x00003832:    42b0        .B      CMP      r0,r6
        0x00003834:    d1a2        ..      BNE      0x377c ; BsrMichael + 40
        0x00003836:    4620         F      MOV      r0,r4
        0x00003838:    30ff        .0      ADDS     r0,r0,#0xff
        0x0000383a:    2146        F!      MOVS     r1,#0x46
        0x0000383c:    3081        .0      ADDS     r0,r0,#0x81
        0x0000383e:    64c1        .d      STR      r1,[r0,#0x4c]
        0x00003840:    210f        .!      MOVS     r1,#0xf
        0x00003842:    6501        .e      STR      r1,[r0,#0x50]
        0x00003844:    210a        .!      MOVS     r1,#0xa
        0x00003846:    6541        Ae      STR      r1,[r0,#0x54]
        0x00003848:    2600        .&      MOVS     r6,#0
        0x0000384a:    2100        .!      MOVS     r1,#0
        0x0000384c:    6646        Ff      STR      r6,[r0,#0x64]
        0x0000384e:    43c9        .C      MVNS     r1,r1
        0x00003850:    6686        .f      STR      r6,[r0,#0x68]
        0x00003852:    6601        .f      STR      r1,[r0,#0x60]
        0x00003854:    616e        na      STR      r6,[r5,#0x14]
        0x00003856:    61ae        .a      STR      r6,[r5,#0x18]
        0x00003858:    61ee        .a      STR      r6,[r5,#0x1c]
        0x0000385a:    2014        .       MOVS     r0,#0x14
        0x0000385c:    622e        .b      STR      r6,[r5,#0x20]
        0x0000385e:    6128        (a      STR      r0,[r5,#0x10]
        0x00003860:    2032        2       MOVS     r0,#0x32
        0x00003862:    64e6        .d      STR      r6,[r4,#0x4c]
        0x00003864:    6520         e      STR      r0,[r4,#0x50]
        0x00003866:    200c        .       MOVS     r0,#0xc
        0x00003868:    6560        `e      STR      r0,[r4,#0x54]
        0x0000386a:    980a        ..      LDR      r0,[sp,#0x28]
        0x0000386c:    6268        hb      STR      r0,[r5,#0x24]
        0x0000386e:    2001        .       MOVS     r0,#1
        0x00003870:    6328        (c      STR      r0,[r5,#0x30]
        0x00003872:    6de0        .m      LDR      r0,[r4,#0x5c]
        0x00003874:    21ff        .!      MOVS     r1,#0xff
        0x00003876:    1040        @.      ASRS     r0,r0,#1
        0x00003878:    312d        -1      ADDS     r1,r1,#0x2d
        0x0000387a:    62a8        .b      STR      r0,[r5,#0x28]
        0x0000387c:    4288        .B      CMP      r0,r1
        0x0000387e:    da00        ..      BGE      0x3882 ; BsrMichael + 302
        0x00003880:    62a9        .b      STR      r1,[r5,#0x28]
        0x00003882:    2002        .       MOVS     r0,#2
        0x00003884:    62e8        .b      STR      r0,[r5,#0x2c]
        0x00003886:    6b68        hk      LDR      r0,[r5,#0x34]
        0x00003888:    9900        ..      LDR      r1,[sp,#0]
        0x0000388a:    f7fcffdb    ....    BL       BsrAbel ; 0x844
        0x0000388e:    63a8        .c      STR      r0,[r5,#0x38]
        0x00003890:    0001        ..      MOVS     r1,r0
        0x00003892:    d0a9        ..      BEQ      0x37e8 ; BsrMichael + 148
        0x00003894:    4620         F      MOV      r0,r4
        0x00003896:    9a00        ..      LDR      r2,[sp,#0]
        0x00003898:    f7fdf997    ....    BL       BsrAnn ; 0xbca
        0x0000389c:    2800        .(      CMP      r0,#0
        0x0000389e:    d1a3        ..      BNE      0x37e8 ; BsrMichael + 148
        0x000038a0:    4620         F      MOV      r0,r4
        0x000038a2:    603e        >`      STR      r6,[r7,#0]
        0x000038a4:    e7a7        ..      B        0x37f6 ; BsrMichael + 162
    i.BsrMichelle
    BsrMichelle
        0x000038a6:    2800        .(      CMP      r0,#0
        0x000038a8:    d000        ..      BEQ      0x38ac ; BsrMichelle + 6
        0x000038aa:    6c00        .l      LDR      r0,[r0,#0x40]
        0x000038ac:    4770        pG      BX       lr
    i.BsrMya
    BsrMya
        0x000038ae:    b5ff        ..      PUSH     {r0-r7,lr}
        0x000038b0:    b081        ..      SUB      sp,sp,#4
        0x000038b2:    4616        .F      MOV      r6,r2
        0x000038b4:    460d        .F      MOV      r5,r1
        0x000038b6:    0007        ..      MOVS     r7,r0
        0x000038b8:    d011        ..      BEQ      0x38de ; BsrMya + 48
        0x000038ba:    21f4        .!      MOVS     r1,#0xf4
        0x000038bc:    f7fcffc2    ....    BL       BsrAbel ; 0x844
        0x000038c0:    0004        ..      MOVS     r4,r0
        0x000038c2:    d00c        ..      BEQ      0x38de ; BsrMya + 48
        0x000038c4:    22f4        ."      MOVS     r2,#0xf4
        0x000038c6:    2100        .!      MOVS     r1,#0
        0x000038c8:    f7fffd09    ....    BL       BsrJohn ; 0x32de
        0x000038cc:    4620         F      MOV      r0,r4
        0x000038ce:    3080        .0      ADDS     r0,r0,#0x80
        0x000038d0:    1f29        ).      SUBS     r1,r5,#4
        0x000038d2:    6687        .f      STR      r7,[r0,#0x68]
        0x000038d4:    2909        .)      CMP      r1,#9
        0x000038d6:    d305        ..      BCC      0x38e4 ; BsrMya + 54
        0x000038d8:    4620         F      MOV      r0,r4
        0x000038da:    f000f815    ....    BL       BsrNia ; 0x3908
        0x000038de:    2000        .       MOVS     r0,#0
        0x000038e0:    b005        ..      ADD      sp,sp,#0x14
        0x000038e2:    bdf0        ..      POP      {r4-r7,pc}
        0x000038e4:    6025        %`      STR      r5,[r4,#0]
        0x000038e6:    2e07        ..      CMP      r6,#7
        0x000038e8:    db00        ..      BLT      0x38ec ; BsrMya + 62
        0x000038ea:    2607        .&      MOVS     r6,#7
        0x000038ec:    2100        .!      MOVS     r1,#0
        0x000038ee:    43c9        .C      MVNS     r1,r1
        0x000038f0:    6066        f`      STR      r6,[r4,#4]
        0x000038f2:    60a1        .`      STR      r1,[r4,#8]
        0x000038f4:    9904        ..      LDR      r1,[sp,#0x10]
        0x000038f6:    60e1        .`      STR      r1,[r4,#0xc]
        0x000038f8:    2102        .!      MOVS     r1,#2
        0x000038fa:    43c9        .C      MVNS     r1,r1
        0x000038fc:    6641        Af      STR      r1,[r0,#0x64]
        0x000038fe:    4620         F      MOV      r0,r4
        0x00003900:    f7ffff13    ....    BL       BsrMia ; 0x372a
        0x00003904:    4620         F      MOV      r0,r4
        0x00003906:    e7eb        ..      B        0x38e0 ; BsrMya + 50
    i.BsrNia
    BsrNia
        0x00003908:    b510        ..      PUSH     {r4,lr}
        0x0000390a:    0004        ..      MOVS     r4,r0
        0x0000390c:    d008        ..      BEQ      0x3920 ; BsrNia + 24
        0x0000390e:    f7ffff0c    ....    BL       BsrMia ; 0x372a
        0x00003912:    20e8        .       MOVS     r0,#0xe8
        0x00003914:    5900        .Y      LDR      r0,[r0,r4]
        0x00003916:    4621        !F      MOV      r1,r4
        0x00003918:    f7fcffd0    ....    BL       BsrAdam ; 0x8bc
        0x0000391c:    2000        .       MOVS     r0,#0
        0x0000391e:    bd10        ..      POP      {r4,pc}
        0x00003920:    2004        .       MOVS     r0,#4
        0x00003922:    43c0        .C      MVNS     r0,r0
        0x00003924:    bd10        ..      POP      {r4,pc}
    i.BsrRay
    BsrRay
        0x00003926:    b5f0        ..      PUSH     {r4-r7,lr}
        0x00003928:    b0a9        ..      SUB      sp,sp,#0xa4
        0x0000392a:    460e        .F      MOV      r6,r1
        0x0000392c:    0005        ..      MOVS     r5,r0
        0x0000392e:    d026        &.      BEQ      0x397e ; BsrRay + 88
        0x00003930:    2728        ('      MOVS     r7,#0x28
        0x00003932:    43ff        .C      MVNS     r7,r7
        0x00003934:    2e00        ..      CMP      r6,#0
        0x00003936:    d026        &.      BEQ      0x3986 ; BsrRay + 96
        0x00003938:    f7fffef7    ....    BL       BsrMia ; 0x372a
        0x0000393c:    462c        ,F      MOV      r4,r5
        0x0000393e:    3480        .4      ADDS     r4,r4,#0x80
        0x00003940:    4631        1F      MOV      r1,r6
        0x00003942:    6ea0        .n      LDR      r0,[r4,#0x68]
        0x00003944:    f7fef896    ....    BL       BsrCory ; 0x1a74
        0x00003948:    66e0        .f      STR      r0,[r4,#0x6c]
        0x0000394a:    2800        .(      CMP      r0,#0
        0x0000394c:    d01b        ..      BEQ      0x3986 ; BsrRay + 96
        0x0000394e:    f7fef983    ....    BL       BsrDane ; 0x1c58
        0x00003952:    4607        .F      MOV      r7,r0
        0x00003954:    6ee0        .n      LDR      r0,[r4,#0x6c]
        0x00003956:    f7fef983    ....    BL       BsrDawn ; 0x1c60
        0x0000395a:    9001        ..      STR      r0,[sp,#4]
        0x0000395c:    65e0        .e      STR      r0,[r4,#0x5c]
        0x0000395e:    1c78        x.      ADDS     r0,r7,#1
        0x00003960:    65a0        .e      STR      r0,[r4,#0x58]
        0x00003962:    a902        ..      ADD      r1,sp,#8
        0x00003964:    6ee0        .n      LDR      r0,[r4,#0x6c]
        0x00003966:    f7fef9fd    ....    BL       BsrDeon ; 0x1d64
        0x0000396a:    2000        .       MOVS     r0,#0
        0x0000396c:    9000        ..      STR      r0,[sp,#0]
        0x0000396e:    4601        .F      MOV      r1,r0
        0x00003970:    aa02        ..      ADD      r2,sp,#8
        0x00003972:    4628        (F      MOV      r0,r5
        0x00003974:    9b01        ..      LDR      r3,[sp,#4]
        0x00003976:    f000f89c    ....    BL       BsrTom ; 0x3ab2
        0x0000397a:    2600        .&      MOVS     r6,#0
        0x0000397c:    e013        ..      B        0x39a6 ; BsrRay + 128
        0x0000397e:    2004        .       MOVS     r0,#4
        0x00003980:    43c0        .C      MVNS     r0,r0
        0x00003982:    b029        ).      ADD      sp,sp,#0xa4
        0x00003984:    bdf0        ..      POP      {r4-r7,pc}
        0x00003986:    4638        8F      MOV      r0,r7
        0x00003988:    e7fb        ..      B        0x3982 ; BsrRay + 92
        0x0000398a:    aa02        ..      ADD      r2,sp,#8
        0x0000398c:    4631        1F      MOV      r1,r6
        0x0000398e:    6ee0        .n      LDR      r0,[r4,#0x6c]
        0x00003990:    f7fefa4f    ..O.    BL       BsrDina ; 0x1e32
        0x00003994:    2000        .       MOVS     r0,#0
        0x00003996:    9000        ..      STR      r0,[sp,#0]
        0x00003998:    aa02        ..      ADD      r2,sp,#8
        0x0000399a:    1c71        q.      ADDS     r1,r6,#1
        0x0000399c:    4628        (F      MOV      r0,r5
        0x0000399e:    9b01        ..      LDR      r3,[sp,#4]
        0x000039a0:    f000f887    ....    BL       BsrTom ; 0x3ab2
        0x000039a4:    1c76        v.      ADDS     r6,r6,#1
        0x000039a6:    42be        .B      CMP      r6,r7
        0x000039a8:    dbef        ..      BLT      0x398a ; BsrRay + 100
        0x000039aa:    2000        .       MOVS     r0,#0
        0x000039ac:    e7e9        ..      B        0x3982 ; BsrRay + 92
    i.BsrRex
    BsrRex
        0x000039ae:    2800        .(      CMP      r0,#0
        0x000039b0:    d003        ..      BEQ      0x39ba ; BsrRex + 12
        0x000039b2:    3080        .0      ADDS     r0,r0,#0x80
        0x000039b4:    6641        Af      STR      r1,[r0,#0x64]
        0x000039b6:    2000        .       MOVS     r0,#0
        0x000039b8:    4770        pG      BX       lr
        0x000039ba:    2004        .       MOVS     r0,#4
        0x000039bc:    43c0        .C      MVNS     r0,r0
        0x000039be:    4770        pG      BX       lr
    i.BsrRey
    BsrRey
        0x000039c0:    2800        .(      CMP      r0,#0
        0x000039c2:    d002        ..      BEQ      0x39ca ; BsrRey + 10
        0x000039c4:    3080        .0      ADDS     r0,r0,#0x80
        0x000039c6:    6e00        .n      LDR      r0,[r0,#0x60]
        0x000039c8:    4770        pG      BX       lr
        0x000039ca:    2004        .       MOVS     r0,#4
        0x000039cc:    43c0        .C      MVNS     r0,r0
        0x000039ce:    4770        pG      BX       lr
    i.BsrRon
    BsrRon
        0x000039d0:    b5ff        ..      PUSH     {r0-r7,lr}
        0x000039d2:    b081        ..      SUB      sp,sp,#4
        0x000039d4:    4616        .F      MOV      r6,r2
        0x000039d6:    460f        .F      MOV      r7,r1
        0x000039d8:    0004        ..      MOVS     r4,r0
        0x000039da:    d00e        ..      BEQ      0x39fa ; BsrRon + 42
        0x000039dc:    2128        (!      MOVS     r1,#0x28
        0x000039de:    6820         h      LDR      r0,[r4,#0]
        0x000039e0:    43c9        .C      MVNS     r1,r1
        0x000039e2:    42b0        .B      CMP      r0,r6
        0x000039e4:    dc06        ..      BGT      0x39f4 ; BsrRon + 36
        0x000039e6:    4625        %F      MOV      r5,r4
        0x000039e8:    3580        .5      ADDS     r5,r5,#0x80
        0x000039ea:    6de8        .m      LDR      r0,[r5,#0x5c]
        0x000039ec:    2800        .(      CMP      r0,#0
        0x000039ee:    dd07        ..      BLE      0x3a00 ; BsrRon + 48
        0x000039f0:    42b0        .B      CMP      r0,r6
        0x000039f2:    d005        ..      BEQ      0x3a00 ; BsrRon + 48
        0x000039f4:    4608        .F      MOV      r0,r1
        0x000039f6:    b005        ..      ADD      sp,sp,#0x14
        0x000039f8:    bdf0        ..      POP      {r4-r7,pc}
        0x000039fa:    2004        .       MOVS     r0,#4
        0x000039fc:    43c0        .C      MVNS     r0,r0
        0x000039fe:    e7fa        ..      B        0x39f6 ; BsrRon + 38
        0x00003a00:    6ee8        .n      LDR      r0,[r5,#0x6c]
        0x00003a02:    2800        .(      CMP      r0,#0
        0x00003a04:    d004        ..      BEQ      0x3a10 ; BsrRon + 64
        0x00003a06:    4639        9F      MOV      r1,r7
        0x00003a08:    4620         F      MOV      r0,r4
        0x00003a0a:    9b04        ..      LDR      r3,[sp,#0x10]
        0x00003a0c:    f7fffa00    ....    BL       BsrJess ; 0x2e10
        0x00003a10:    6628        (f      STR      r0,[r5,#0x60]
        0x00003a12:    4601        .F      MOV      r1,r0
        0x00003a14:    463a        :F      MOV      r2,r7
        0x00003a16:    4620         F      MOV      r0,r4
        0x00003a18:    9b04        ..      LDR      r3,[sp,#0x10]
        0x00003a1a:    f7fffa30    ..0.    BL       BsrJill ; 0x2e7e
        0x00003a1e:    68e0        .h      LDR      r0,[r4,#0xc]
        0x00003a20:    2800        .(      CMP      r0,#0
        0x00003a22:    d005        ..      BEQ      0x3a30 ; BsrRon + 96
        0x00003a24:    4639        9F      MOV      r1,r7
        0x00003a26:    4633        3F      MOV      r3,r6
        0x00003a28:    4608        .F      MOV      r0,r1
        0x00003a2a:    6822        "h      LDR      r2,[r4,#0]
        0x00003a2c:    f7fffb45    ..E.    BL       BsrJody ; 0x30ba
        0x00003a30:    2000        .       MOVS     r0,#0
        0x00003a32:    e7e0        ..      B        0x39f6 ; BsrRon + 38
    i.BsrRoy
    BsrRoy
        0x00003a34:    b51c        ..      PUSH     {r2-r4,lr}
        0x00003a36:    2100        .!      MOVS     r1,#0
        0x00003a38:    24f4        .$      MOVS     r4,#0xf4
        0x00003a3a:    9101        ..      STR      r1,[sp,#4]
        0x00003a3c:    2800        .(      CMP      r0,#0
        0x00003a3e:    d006        ..      BEQ      0x3a4e ; BsrRoy + 26
        0x00003a40:    2200        ."      MOVS     r2,#0
        0x00003a42:    9100        ..      STR      r1,[sp,#0]
        0x00003a44:    ab01        ..      ADD      r3,sp,#4
        0x00003a46:    4611        .F      MOV      r1,r2
        0x00003a48:    f7fefa70    ..p.    BL       BsrDion ; 0x1f2c
        0x00003a4c:    1904        ..      ADDS     r4,r0,r4
        0x00003a4e:    f000f878    ..x.    BL       BsrZoe ; 0x3b42
        0x00003a52:    1900        ..      ADDS     r0,r0,r4
        0x00003a54:    1cc0        ..      ADDS     r0,r0,#3
        0x00003a56:    0880        ..      LSRS     r0,r0,#2
        0x00003a58:    0080        ..      LSLS     r0,r0,#2
        0x00003a5a:    bd1c        ..      POP      {r2-r4,pc}
    i.BsrTed
    BsrTed
        0x00003a5c:    2800        .(      CMP      r0,#0
        0x00003a5e:    d002        ..      BEQ      0x3a66 ; BsrTed + 10
        0x00003a60:    3080        .0      ADDS     r0,r0,#0x80
        0x00003a62:    6d80        .m      LDR      r0,[r0,#0x58]
        0x00003a64:    4770        pG      BX       lr
        0x00003a66:    2004        .       MOVS     r0,#4
        0x00003a68:    43c0        .C      MVNS     r0,r0
        0x00003a6a:    4770        pG      BX       lr
    i.BsrTia
    BsrTia
        0x00003a6c:    b530        0.      PUSH     {r4,r5,lr}
        0x00003a6e:    0004        ..      MOVS     r4,r0
        0x00003a70:    d011        ..      BEQ      0x3a96 ; BsrTia + 42
        0x00003a72:    2028        (       MOVS     r0,#0x28
        0x00003a74:    43c0        .C      MVNS     r0,r0
        0x00003a76:    2a00        .*      CMP      r2,#0
        0x00003a78:    d00f        ..      BEQ      0x3a9a ; BsrTia + 46
        0x00003a7a:    6825        %h      LDR      r5,[r4,#0]
        0x00003a7c:    429d        .B      CMP      r5,r3
        0x00003a7e:    dc0c        ..      BGT      0x3a9a ; BsrTia + 46
        0x00003a80:    2900        .)      CMP      r1,#0
        0x00003a82:    db0a        ..      BLT      0x3a9a ; BsrTia + 46
        0x00003a84:    23d8        .#      MOVS     r3,#0xd8
        0x00003a86:    591b        .Y      LDR      r3,[r3,r4]
        0x00003a88:    428b        .B      CMP      r3,r1
        0x00003a8a:    dd06        ..      BLE      0x3a9a ; BsrTia + 46
        0x00003a8c:    2318        .#      MOVS     r3,#0x18
        0x00003a8e:    2000        .       MOVS     r0,#0
        0x00003a90:    4359        YC      MULS     r1,r3,r1
        0x00003a92:    1909        ..      ADDS     r1,r1,r4
        0x00003a94:    e009        ..      B        0x3aaa ; BsrTia + 62
        0x00003a96:    2004        .       MOVS     r0,#4
        0x00003a98:    43c0        .C      MVNS     r0,r0
        0x00003a9a:    bd30        0.      POP      {r4,r5,pc}
        0x00003a9c:    0043        C.      LSLS     r3,r0,#1
        0x00003a9e:    18cb        ..      ADDS     r3,r1,r3
        0x00003aa0:    25a8        .%      MOVS     r5,#0xa8
        0x00003aa2:    5f5d        ]_      LDRSH    r5,[r3,r5]
        0x00003aa4:    0083        ..      LSLS     r3,r0,#2
        0x00003aa6:    50d5        .P      STR      r5,[r2,r3]
        0x00003aa8:    1c40        @.      ADDS     r0,r0,#1
        0x00003aaa:    6823        #h      LDR      r3,[r4,#0]
        0x00003aac:    4283        .B      CMP      r3,r0
        0x00003aae:    dcf5        ..      BGT      0x3a9c ; BsrTia + 48
        0x00003ab0:    bd30        0.      POP      {r4,r5,pc}
    i.BsrTom
    BsrTom
        0x00003ab2:    b5f0        ..      PUSH     {r4-r7,lr}
        0x00003ab4:    9d05        ..      LDR      r5,[sp,#0x14]
        0x00003ab6:    0004        ..      MOVS     r4,r0
        0x00003ab8:    d016        ..      BEQ      0x3ae8 ; BsrTom + 54
        0x00003aba:    2028        (       MOVS     r0,#0x28
        0x00003abc:    43c0        .C      MVNS     r0,r0
        0x00003abe:    2a00        .*      CMP      r2,#0
        0x00003ac0:    d014        ..      BEQ      0x3aec ; BsrTom + 58
        0x00003ac2:    6826        &h      LDR      r6,[r4,#0]
        0x00003ac4:    429e        .B      CMP      r6,r3
        0x00003ac6:    dc11        ..      BGT      0x3aec ; BsrTom + 58
        0x00003ac8:    2900        .)      CMP      r1,#0
        0x00003aca:    db0f        ..      BLT      0x3aec ; BsrTom + 58
        0x00003acc:    23d8        .#      MOVS     r3,#0xd8
        0x00003ace:    591b        .Y      LDR      r3,[r3,r4]
        0x00003ad0:    428b        .B      CMP      r3,r1
        0x00003ad2:    dd0b        ..      BLE      0x3aec ; BsrTom + 58
        0x00003ad4:    2d00        .-      CMP      r5,#0
        0x00003ad6:    db09        ..      BLT      0x3aec ; BsrTom + 58
        0x00003ad8:    6863        ch      LDR      r3,[r4,#4]
        0x00003ada:    42ab        .B      CMP      r3,r5
        0x00003adc:    db06        ..      BLT      0x3aec ; BsrTom + 58
        0x00003ade:    2318        .#      MOVS     r3,#0x18
        0x00003ae0:    2000        .       MOVS     r0,#0
        0x00003ae2:    434b        KC      MULS     r3,r1,r3
        0x00003ae4:    191b        ..      ADDS     r3,r3,r4
        0x00003ae6:    e009        ..      B        0x3afc ; BsrTom + 74
        0x00003ae8:    2004        .       MOVS     r0,#4
        0x00003aea:    43c0        .C      MVNS     r0,r0
        0x00003aec:    bdf0        ..      POP      {r4-r7,pc}
        0x00003aee:    0047        G.      LSLS     r7,r0,#1
        0x00003af0:    0086        ..      LSLS     r6,r0,#2
        0x00003af2:    19df        ..      ADDS     r7,r3,r7
        0x00003af4:    3780        .7      ADDS     r7,r7,#0x80
        0x00003af6:    5b96        .[      LDRH     r6,[r2,r6]
        0x00003af8:    853e        >.      STRH     r6,[r7,#0x28]
        0x00003afa:    1c40        @.      ADDS     r0,r0,#1
        0x00003afc:    6826        &h      LDR      r6,[r4,#0]
        0x00003afe:    4286        .B      CMP      r6,r0
        0x00003b00:    dcf5        ..      BGT      0x3aee ; BsrTom + 60
        0x00003b02:    2000        .       MOVS     r0,#0
        0x00003b04:    2630        0&      MOVS     r6,#0x30
        0x00003b06:    434e        NC      MULS     r6,r1,r6
        0x00003b08:    4602        .F      MOV      r2,r0
        0x00003b0a:    1936        6.      ADDS     r6,r6,r4
        0x00003b0c:    e007        ..      B        0x3b1e ; BsrTom + 108
        0x00003b0e:    0047        G.      LSLS     r7,r0,#1
        0x00003b10:    19df        ..      ADDS     r7,r3,r7
        0x00003b12:    3740        @7      ADDS     r7,r7,#0x40
        0x00003b14:    873a        :.      STRH     r2,[r7,#0x38]
        0x00003b16:    0087        ..      LSLS     r7,r0,#2
        0x00003b18:    19f7        ..      ADDS     r7,r6,r7
        0x00003b1a:    1c40        @.      ADDS     r0,r0,#1
        0x00003b1c:    61ba        .a      STR      r2,[r7,#0x18]
        0x00003b1e:    6827        'h      LDR      r7,[r4,#0]
        0x00003b20:    4287        .B      CMP      r7,r0
        0x00003b22:    dcf4        ..      BGT      0x3b0e ; BsrTom + 92
        0x00003b24:    0049        I.      LSLS     r1,r1,#1
        0x00003b26:    1909        ..      ADDS     r1,r1,r4
        0x00003b28:    828a        ..      STRH     r2,[r1,#0x14]
        0x00003b2a:    820d        ..      STRH     r5,[r1,#0x10]
        0x00003b2c:    bdf0        ..      POP      {r4-r7,pc}
    i.BsrTre
    BsrTre
        0x00003b2e:    b510        ..      PUSH     {r4,lr}
        0x00003b30:    2800        .(      CMP      r0,#0
        0x00003b32:    d003        ..      BEQ      0x3b3c ; BsrTre + 14
        0x00003b34:    f7fffa0f    ....    BL       BsrJoan ; 0x2f56
        0x00003b38:    2000        .       MOVS     r0,#0
        0x00003b3a:    bd10        ..      POP      {r4,pc}
        0x00003b3c:    2004        .       MOVS     r0,#4
        0x00003b3e:    43c0        .C      MVNS     r0,r0
        0x00003b40:    bd10        ..      POP      {r4,pc}
    i.BsrZoe
    BsrZoe
        0x00003b42:    2010        .       MOVS     r0,#0x10
        0x00003b44:    4770        pG      BX       lr
        0x00003b46:    0000        ..      MOVS     r0,r0
    i.CLK_DisableModuleClock
    CLK_DisableModuleClock
        0x00003b48:    0f81        ..      LSRS     r1,r0,#30
        0x00003b4a:    008a        ..      LSLS     r2,r1,#2
        0x00003b4c:    4904        .I      LDR      r1,[pc,#16] ; [0x3b60] = 0x50000200
        0x00003b4e:    1851        Q.      ADDS     r1,r2,r1
        0x00003b50:    684a        Jh      LDR      r2,[r1,#4]
        0x00003b52:    06c3        ..      LSLS     r3,r0,#27
        0x00003b54:    0edb        ..      LSRS     r3,r3,#27
        0x00003b56:    2001        .       MOVS     r0,#1
        0x00003b58:    4098        .@      LSLS     r0,r0,r3
        0x00003b5a:    4382        .C      BICS     r2,r2,r0
        0x00003b5c:    604a        J`      STR      r2,[r1,#4]
        0x00003b5e:    4770        pG      BX       lr
    $d
        0x00003b60:    50000200    ...P    DCD    1342177792
    $t
    i.CLK_EnableLDO
    CLK_EnableLDO
        0x00003b64:    b510        ..      PUSH     {r4,lr}
        0x00003b66:    4604        .F      MOV      r4,r0
        0x00003b68:    f001fa4c    ..L.    BL       SYS_Unlock ; 0x5004
        0x00003b6c:    4908        .I      LDR      r1,[pc,#32] ; [0x3b90] = 0x50000200
        0x00003b6e:    688a        .h      LDR      r2,[r1,#8]
        0x00003b70:    054b        K.      LSLS     r3,r1,#21
        0x00003b72:    431a        .C      ORRS     r2,r2,r3
        0x00003b74:    608a        .`      STR      r2,[r1,#8]
        0x00003b76:    4907        .I      LDR      r1,[pc,#28] ; [0x3b94] = 0x40080000
        0x00003b78:    6a4a        Jj      LDR      r2,[r1,#0x24]
        0x00003b7a:    0852        R.      LSRS     r2,r2,#1
        0x00003b7c:    0052        R.      LSLS     r2,r2,#1
        0x00003b7e:    624a        Jb      STR      r2,[r1,#0x24]
        0x00003b80:    6a0a        .j      LDR      r2,[r1,#0x20]
        0x00003b82:    0892        ..      LSRS     r2,r2,#2
        0x00003b84:    0092        ..      LSLS     r2,r2,#2
        0x00003b86:    4322        "C      ORRS     r2,r2,r4
        0x00003b88:    620a        .b      STR      r2,[r1,#0x20]
        0x00003b8a:    f001fa25    ..%.    BL       SYS_Lock ; 0x4fd8
        0x00003b8e:    bd10        ..      POP      {r4,pc}
    $d
        0x00003b90:    50000200    ...P    DCD    1342177792
        0x00003b94:    40080000    ...@    DCD    1074266112
    $t
    i.CLK_EnableModuleClock
    CLK_EnableModuleClock
        0x00003b98:    0f81        ..      LSRS     r1,r0,#30
        0x00003b9a:    008a        ..      LSLS     r2,r1,#2
        0x00003b9c:    4904        .I      LDR      r1,[pc,#16] ; [0x3bb0] = 0x50000200
        0x00003b9e:    1851        Q.      ADDS     r1,r2,r1
        0x00003ba0:    684a        Jh      LDR      r2,[r1,#4]
        0x00003ba2:    06c3        ..      LSLS     r3,r0,#27
        0x00003ba4:    0edb        ..      LSRS     r3,r3,#27
        0x00003ba6:    2001        .       MOVS     r0,#1
        0x00003ba8:    4098        .@      LSLS     r0,r0,r3
        0x00003baa:    4302        .C      ORRS     r2,r2,r0
        0x00003bac:    604a        J`      STR      r2,[r1,#4]
        0x00003bae:    4770        pG      BX       lr
    $d
        0x00003bb0:    50000200    ...P    DCD    1342177792
    $t
    i.CLK_EnableXtalRC
    CLK_EnableXtalRC
        0x00003bb4:    b510        ..      PUSH     {r4,lr}
        0x00003bb6:    4604        .F      MOV      r4,r0
        0x00003bb8:    f001fa24    ..$.    BL       SYS_Unlock ; 0x5004
        0x00003bbc:    4903        .I      LDR      r1,[pc,#12] ; [0x3bcc] = 0x50000200
        0x00003bbe:    680a        .h      LDR      r2,[r1,#0]
        0x00003bc0:    4322        "C      ORRS     r2,r2,r4
        0x00003bc2:    600a        .`      STR      r2,[r1,#0]
        0x00003bc4:    f001fa08    ....    BL       SYS_Lock ; 0x4fd8
        0x00003bc8:    bd10        ..      POP      {r4,pc}
    $d
        0x00003bca:    0000        ..      DCW    0
        0x00003bcc:    50000200    ...P    DCD    1342177792
    $t
    i.CLK_SysTickDelay
    CLK_SysTickDelay
        0x00003bd0:    4906        .I      LDR      r1,[pc,#24] ; [0x3bec] = 0x20000004
        0x00003bd2:    6809        .h      LDR      r1,[r1,#0]
        0x00003bd4:    4348        HC      MULS     r0,r1,r0
        0x00003bd6:    4906        .I      LDR      r1,[pc,#24] ; [0x3bf0] = 0xe000e000
        0x00003bd8:    6148        Ha      STR      r0,[r1,#0x14]
        0x00003bda:    2000        .       MOVS     r0,#0
        0x00003bdc:    6188        .a      STR      r0,[r1,#0x18]
        0x00003bde:    2005        .       MOVS     r0,#5
        0x00003be0:    6108        .a      STR      r0,[r1,#0x10]
        0x00003be2:    6908        .i      LDR      r0,[r1,#0x10]
        0x00003be4:    03c0        ..      LSLS     r0,r0,#15
        0x00003be6:    d5fc        ..      BPL      0x3be2 ; CLK_SysTickDelay + 18
        0x00003be8:    4770        pG      BX       lr
    $d
        0x00003bea:    0000        ..      DCW    0
        0x00003bec:    20000004    ...     DCD    536870916
        0x00003bf0:    e000e000    ....    DCD    3758153728
    $t
    i.CSpotter_AddSample
    CSpotter_AddSample
        0x00003bf4:    b510        ..      PUSH     {r4,lr}
        0x00003bf6:    0004        ..      MOVS     r4,r0
        0x00003bf8:    d00b        ..      BEQ      0x3c12 ; CSpotter_AddSample + 30
        0x00003bfa:    68a0        .h      LDR      r0,[r4,#8]
        0x00003bfc:    2800        .(      CMP      r0,#0
        0x00003bfe:    d008        ..      BEQ      0x3c12 ; CSpotter_AddSample + 30
        0x00003c00:    f000fca3    ....    BL       NINJA_API_13 ; 0x454a
        0x00003c04:    61e0        .a      STR      r0,[r4,#0x1c]
        0x00003c06:    2800        .(      CMP      r0,#0
        0x00003c08:    db0d        ..      BLT      0x3c26 ; CSpotter_AddSample + 50
        0x00003c0a:    6a20         j      LDR      r0,[r4,#0x20]
        0x00003c0c:    2800        .(      CMP      r0,#0
        0x00003c0e:    d002        ..      BEQ      0x3c16 ; CSpotter_AddSample + 34
        0x00003c10:    e007        ..      B        0x3c22 ; CSpotter_AddSample + 46
        0x00003c12:    480e        .H      LDR      r0,[pc,#56] ; [0x3c4c] = 0xfffff82f
        0x00003c14:    bd10        ..      POP      {r4,pc}
        0x00003c16:    6a61        aj      LDR      r1,[r4,#0x24]
        0x00003c18:    1c89        ..      ADDS     r1,r1,#2
        0x00003c1a:    6261        ab      STR      r1,[r4,#0x24]
        0x00003c1c:    68a0        .h      LDR      r0,[r4,#8]
        0x00003c1e:    f000fcff    ....    BL       NINJA_API_15 ; 0x4620
        0x00003c22:    2000        .       MOVS     r0,#0
        0x00003c24:    bd10        ..      POP      {r4,pc}
        0x00003c26:    4601        .F      MOV      r1,r0
        0x00003c28:    3115        .1      ADDS     r1,r1,#0x15
        0x00003c2a:    d003        ..      BEQ      0x3c34 ; CSpotter_AddSample + 64
        0x00003c2c:    1cc0        ..      ADDS     r0,r0,#3
        0x00003c2e:    d009        ..      BEQ      0x3c44 ; CSpotter_AddSample + 80
        0x00003c30:    4807        .H      LDR      r0,[pc,#28] ; [0x3c50] = 0xffffec78
        0x00003c32:    bd10        ..      POP      {r4,pc}
        0x00003c34:    2100        .!      MOVS     r1,#0
        0x00003c36:    68a0        .h      LDR      r0,[r4,#8]
        0x00003c38:    f000fd4b    ..K.    BL       NINJA_API_23 ; 0x46d2
        0x00003c3c:    61e0        .a      STR      r0,[r4,#0x1c]
        0x00003c3e:    4803        .H      LDR      r0,[pc,#12] ; [0x3c4c] = 0xfffff82f
        0x00003c40:    3813        .8      SUBS     r0,r0,#0x13
        0x00003c42:    bd10        ..      POP      {r4,pc}
        0x00003c44:    4801        .H      LDR      r0,[pc,#4] ; [0x3c4c] = 0xfffff82f
        0x00003c46:    3808        .8      SUBS     r0,r0,#8
        0x00003c48:    bd10        ..      POP      {r4,pc}
    $d
        0x00003c4a:    0000        ..      DCW    0
        0x00003c4c:    fffff82f    /...    DCD    4294965295
        0x00003c50:    ffffec78    x...    DCD    4294962296
    $t
    i.CSpotter_GetMemoryUsage_Multi
    CSpotter_GetMemoryUsage_Multi
        0x00003c54:    b538        8.      PUSH     {r3-r5,lr}
        0x00003c56:    2400        .$      MOVS     r4,#0
        0x00003c58:    9400        ..      STR      r4,[sp,#0]
        0x00003c5a:    f000f801    ....    BL       CSpotter_GetMemoryUsage_MultiWithSpeaker ; 0x3c60
        0x00003c5e:    bd38        8.      POP      {r3-r5,pc}
    i.CSpotter_GetMemoryUsage_MultiWithSpeaker
    CSpotter_GetMemoryUsage_MultiWithSpeaker
        0x00003c60:    b5ff        ..      PUSH     {r0-r7,lr}
        0x00003c62:    b08f        ..      SUB      sp,sp,#0x3c
        0x00003c64:    980f        ..      LDR      r0,[sp,#0x3c]
        0x00003c66:    4e1d        .N      LDR      r6,[pc,#116] ; [0x3cdc] = 0xfffff82e
        0x00003c68:    4614        .F      MOV      r4,r2
        0x00003c6a:    460d        .F      MOV      r5,r1
        0x00003c6c:    2800        .(      CMP      r0,#0
        0x00003c6e:    d031        1.      BEQ      0x3cd4 ; CSpotter_GetMemoryUsage_MultiWithSpeaker + 116
        0x00003c70:    2d00        .-      CMP      r5,#0
        0x00003c72:    d02f        /.      BEQ      0x3cd4 ; CSpotter_GetMemoryUsage_MultiWithSpeaker + 116
        0x00003c74:    6828        (h      LDR      r0,[r5,#0]
        0x00003c76:    2800        .(      CMP      r0,#0
        0x00003c78:    d02c        ,.      BEQ      0x3cd4 ; CSpotter_GetMemoryUsage_MultiWithSpeaker + 116
        0x00003c7a:    2c00        .,      CMP      r4,#0
        0x00003c7c:    dd2a        *.      BLE      0x3cd4 ; CSpotter_GetMemoryUsage_MultiWithSpeaker + 116
        0x00003c7e:    ab0e        ..      ADD      r3,sp,#0x38
        0x00003c80:    aa0d        ..      ADD      r2,sp,#0x34
        0x00003c82:    a90c        ..      ADD      r1,sp,#0x30
        0x00003c84:    a80b        ..      ADD      r0,sp,#0x2c
        0x00003c86:    af02        ..      ADD      r7,sp,#8
        0x00003c88:    c70f        ..      STM      r7!,{r0-r3}
        0x00003c8a:    a907        ..      ADD      r1,sp,#0x1c
        0x00003c8c:    a806        ..      ADD      r0,sp,#0x18
        0x00003c8e:    9101        ..      STR      r1,[sp,#4]
        0x00003c90:    9000        ..      STR      r0,[sp,#0]
        0x00003c92:    ab0a        ..      ADD      r3,sp,#0x28
        0x00003c94:    aa09        ..      ADD      r2,sp,#0x24
        0x00003c96:    a908        ..      ADD      r1,sp,#0x20
        0x00003c98:    980f        ..      LDR      r0,[sp,#0x3c]
        0x00003c9a:    f000fb7b    ..{.    BL       NINJA_API_1 ; 0x4394
        0x00003c9e:    1ef7        ..      SUBS     r7,r6,#3
        0x00003ca0:    2800        .(      CMP      r0,#0
        0x00003ca2:    d109        ..      BNE      0x3cb8 ; CSpotter_GetMemoryUsage_MultiWithSpeaker + 88
        0x00003ca4:    2201        ."      MOVS     r2,#1
        0x00003ca6:    0312        ..      LSLS     r2,r2,#12
        0x00003ca8:    4621        !F      MOV      r1,r4
        0x00003caa:    4628        (F      MOV      r0,r5
        0x00003cac:    f7fffb8c    ....    BL       BsrLulu ; 0x33c8
        0x00003cb0:    4601        .F      MOV      r1,r0
        0x00003cb2:    1e60        `.      SUBS     r0,r4,#1
        0x00003cb4:    4281        .B      CMP      r1,r0
        0x00003cb6:    da02        ..      BGE      0x3cbe ; CSpotter_GetMemoryUsage_MultiWithSpeaker + 94
        0x00003cb8:    4638        8F      MOV      r0,r7
        0x00003cba:    b013        ..      ADD      sp,sp,#0x4c
        0x00003cbc:    bdf0        ..      POP      {r4-r7,pc}
        0x00003cbe:    20ff        .       MOVS     r0,#0xff
        0x00003cc0:    302d        -0      ADDS     r0,r0,#0x2d
        0x00003cc2:    9000        ..      STR      r0,[sp,#0]
        0x00003cc4:    4622        "F      MOV      r2,r4
        0x00003cc6:    4629        )F      MOV      r1,r5
        0x00003cc8:    9b12        ..      LDR      r3,[sp,#0x48]
        0x00003cca:    980f        ..      LDR      r0,[sp,#0x3c]
        0x00003ccc:    f000fe18    ....    BL       NINJA_API_8 ; 0x4900
        0x00003cd0:    2800        .(      CMP      r0,#0
        0x00003cd2:    dc01        ..      BGT      0x3cd8 ; CSpotter_GetMemoryUsage_MultiWithSpeaker + 120
        0x00003cd4:    4630        0F      MOV      r0,r6
        0x00003cd6:    e7f0        ..      B        0x3cba ; CSpotter_GetMemoryUsage_MultiWithSpeaker + 90
        0x00003cd8:    3058        X0      ADDS     r0,r0,#0x58
        0x00003cda:    e7ee        ..      B        0x3cba ; CSpotter_GetMemoryUsage_MultiWithSpeaker + 90
    $d
        0x00003cdc:    fffff82e    ....    DCD    4294965294
    $t
    i.CSpotter_GetNumWord
    CSpotter_GetNumWord
        0x00003ce0:    b510        ..      PUSH     {r4,lr}
        0x00003ce2:    0004        ..      MOVS     r4,r0
        0x00003ce4:    d007        ..      BEQ      0x3cf6 ; CSpotter_GetNumWord + 22
        0x00003ce6:    2204        ."      MOVS     r2,#4
        0x00003ce8:    a106        ..      ADR      r1,{pc}+0x1c ; 0x3d04
        0x00003cea:    f7fffb14    ....    BL       BsrJosh ; 0x3316
        0x00003cee:    2800        .(      CMP      r0,#0
        0x00003cf0:    d004        ..      BEQ      0x3cfc ; CSpotter_GetNumWord + 28
        0x00003cf2:    4806        .H      LDR      r0,[pc,#24] ; [0x3d0c] = 0xfffff82b
        0x00003cf4:    bd10        ..      POP      {r4,pc}
        0x00003cf6:    4805        .H      LDR      r0,[pc,#20] ; [0x3d0c] = 0xfffff82b
        0x00003cf8:    1cc0        ..      ADDS     r0,r0,#3
        0x00003cfa:    bd10        ..      POP      {r4,pc}
        0x00003cfc:    4620         F      MOV      r0,r4
        0x00003cfe:    f000fd21    ..!.    BL       NINJA_API_31 ; 0x4744
        0x00003d02:    bd10        ..      POP      {r4,pc}
    $d
        0x00003d04:    44485943    CYHD    DCD    1145592131
        0x00003d08:    00000000    ....    DCD    0
        0x00003d0c:    fffff82b    +...    DCD    4294965291
    $t
    i.CSpotter_GetResult
    CSpotter_GetResult
        0x00003d10:    b510        ..      PUSH     {r4,lr}
        0x00003d12:    0004        ..      MOVS     r4,r0
        0x00003d14:    d009        ..      BEQ      0x3d2a ; CSpotter_GetResult + 26
        0x00003d16:    68e1        .h      LDR      r1,[r4,#0xc]
        0x00003d18:    68a0        .h      LDR      r0,[r4,#8]
        0x00003d1a:    f000fd42    ..B.    BL       NINJA_API_47 ; 0x47a2
        0x00003d1e:    6921        !i      LDR      r1,[r4,#0x10]
        0x00003d20:    68a0        .h      LDR      r0,[r4,#8]
        0x00003d22:    f000fda1    ....    BL       NINJA_API_55 ; 0x4868
        0x00003d26:    69e0        .i      LDR      r0,[r4,#0x1c]
        0x00003d28:    bd10        ..      POP      {r4,pc}
        0x00003d2a:    4801        .H      LDR      r0,[pc,#4] ; [0x3d30] = 0xfffff82f
        0x00003d2c:    bd10        ..      POP      {r4,pc}
    $d
        0x00003d2e:    0000        ..      DCW    0
        0x00003d30:    fffff82f    /...    DCD    4294965295
    $t
    i.CSpotter_GetResultEPD
    CSpotter_GetResultEPD
        0x00003d34:    b57c        |.      PUSH     {r2-r6,lr}
        0x00003d36:    4615        .F      MOV      r5,r2
        0x00003d38:    460e        .F      MOV      r6,r1
        0x00003d3a:    0004        ..      MOVS     r4,r0
        0x00003d3c:    d009        ..      BEQ      0x3d52 ; CSpotter_GetResultEPD + 30
        0x00003d3e:    aa01        ..      ADD      r2,sp,#4
        0x00003d40:    4669        iF      MOV      r1,sp
        0x00003d42:    68a0        .h      LDR      r0,[r4,#8]
        0x00003d44:    f000fd04    ....    BL       NINJA_API_43 ; 0x4750
        0x00003d48:    69e1        .i      LDR      r1,[r4,#0x1c]
        0x00003d4a:    4281        .B      CMP      r1,r0
        0x00003d4c:    d004        ..      BEQ      0x3d58 ; CSpotter_GetResultEPD + 36
        0x00003d4e:    4809        .H      LDR      r0,[pc,#36] ; [0x3d74] = 0xfffff827
        0x00003d50:    bd7c        |.      POP      {r2-r6,pc}
        0x00003d52:    4808        .H      LDR      r0,[pc,#32] ; [0x3d74] = 0xfffff827
        0x00003d54:    3008        .0      ADDS     r0,r0,#8
        0x00003d56:    bd7c        |.      POP      {r2-r6,pc}
        0x00003d58:    2e00        ..      CMP      r6,#0
        0x00003d5a:    d003        ..      BEQ      0x3d64 ; CSpotter_GetResultEPD + 48
        0x00003d5c:    6960        `i      LDR      r0,[r4,#0x14]
        0x00003d5e:    9900        ..      LDR      r1,[sp,#0]
        0x00003d60:    4348        HC      MULS     r0,r1,r0
        0x00003d62:    6030        0`      STR      r0,[r6,#0]
        0x00003d64:    2d00        .-      CMP      r5,#0
        0x00003d66:    d003        ..      BEQ      0x3d70 ; CSpotter_GetResultEPD + 60
        0x00003d68:    6960        `i      LDR      r0,[r4,#0x14]
        0x00003d6a:    9901        ..      LDR      r1,[sp,#4]
        0x00003d6c:    4348        HC      MULS     r0,r1,r0
        0x00003d6e:    6028        (`      STR      r0,[r5,#0]
        0x00003d70:    69e0        .i      LDR      r0,[r4,#0x1c]
        0x00003d72:    bd7c        |.      POP      {r2-r6,pc}
    $d
        0x00003d74:    fffff827    '...    DCD    4294965287
    $t
    i.CSpotter_Init_Multi
    CSpotter_Init_Multi
        0x00003d78:    b5ff        ..      PUSH     {r0-r7,lr}
        0x00003d7a:    b091        ..      SUB      sp,sp,#0x44
        0x00003d7c:    2400        .$      MOVS     r4,#0
        0x00003d7e:    9f1e        ..      LDR      r7,[sp,#0x78]
        0x00003d80:    9e1a        ..      LDR      r6,[sp,#0x68]
        0x00003d82:    4621        !F      MOV      r1,r4
        0x00003d84:    4620         F      MOV      r0,r4
        0x00003d86:    9409        ..      STR      r4,[sp,#0x24]
        0x00003d88:    f7fffb10    ....    BL       BsrLuke ; 0x33ac
        0x00003d8c:    2800        .(      CMP      r0,#0
        0x00003d8e:    d016        ..      BEQ      0x3dbe ; CSpotter_Init_Multi + 70
        0x00003d90:    9811        ..      LDR      r0,[sp,#0x44]
        0x00003d92:    2800        .(      CMP      r0,#0
        0x00003d94:    d016        ..      BEQ      0x3dc4 ; CSpotter_Init_Multi + 76
        0x00003d96:    ab10        ..      ADD      r3,sp,#0x40
        0x00003d98:    aa0f        ..      ADD      r2,sp,#0x3c
        0x00003d9a:    a90e        ..      ADD      r1,sp,#0x38
        0x00003d9c:    a80d        ..      ADD      r0,sp,#0x34
        0x00003d9e:    ad02        ..      ADD      r5,sp,#8
        0x00003da0:    c50f        ..      STM      r5!,{r0-r3}
        0x00003da2:    a907        ..      ADD      r1,sp,#0x1c
        0x00003da4:    a808        ..      ADD      r0,sp,#0x20
        0x00003da6:    9101        ..      STR      r1,[sp,#4]
        0x00003da8:    9000        ..      STR      r0,[sp,#0]
        0x00003daa:    ab0c        ..      ADD      r3,sp,#0x30
        0x00003dac:    aa0b        ..      ADD      r2,sp,#0x2c
        0x00003dae:    a90a        ..      ADD      r1,sp,#0x28
        0x00003db0:    9811        ..      LDR      r0,[sp,#0x44]
        0x00003db2:    f000faef    ....    BL       NINJA_API_1 ; 0x4394
        0x00003db6:    2800        .(      CMP      r0,#0
        0x00003db8:    d007        ..      BEQ      0x3dca ; CSpotter_Init_Multi + 82
        0x00003dba:    484d        MH      LDR      r0,[pc,#308] ; [0x3ef0] = 0xfffff82b
        0x00003dbc:    e07b        {.      B        0x3eb6 ; CSpotter_Init_Multi + 318
        0x00003dbe:    484c        LH      LDR      r0,[pc,#304] ; [0x3ef0] = 0xfffff82b
        0x00003dc0:    38c3        .8      SUBS     r0,r0,#0xc3
        0x00003dc2:    e078        x.      B        0x3eb6 ; CSpotter_Init_Multi + 318
        0x00003dc4:    484a        JH      LDR      r0,[pc,#296] ; [0x3ef0] = 0xfffff82b
        0x00003dc6:    1cc0        ..      ADDS     r0,r0,#3
        0x00003dc8:    e075        u.      B        0x3eb6 ; CSpotter_Init_Multi + 318
        0x00003dca:    ad11        ..      ADD      r5,sp,#0x44
        0x00003dcc:    cd0f        ..      LDM      r5!,{r0-r3}
        0x00003dce:    f7ffff41    ..A.    BL       CSpotter_GetMemoryUsage_Multi ; 0x3c54
        0x00003dd2:    1e05        ..      SUBS     r5,r0,#0
        0x00003dd4:    ddf6        ..      BLE      0x3dc4 ; CSpotter_Init_Multi + 76
        0x00003dd6:    2e00        ..      CMP      r6,#0
        0x00003dd8:    d002        ..      BEQ      0x3de0 ; CSpotter_Init_Multi + 104
        0x00003dda:    981b        ..      LDR      r0,[sp,#0x6c]
        0x00003ddc:    42a8        .B      CMP      r0,r5
        0x00003dde:    da02        ..      BGE      0x3de6 ; CSpotter_Init_Multi + 110
        0x00003de0:    4843        CH      LDR      r0,[pc,#268] ; [0x3ef0] = 0xfffff82b
        0x00003de2:    1c80        ..      ADDS     r0,r0,#2
        0x00003de4:    e067        g.      B        0x3eb6 ; CSpotter_Init_Multi + 318
        0x00003de6:    9813        ..      LDR      r0,[sp,#0x4c]
        0x00003de8:    2801        .(      CMP      r0,#1
        0x00003dea:    dbe6        ..      BLT      0x3dba ; CSpotter_Init_Multi + 66
        0x00003dec:    2201        ."      MOVS     r2,#1
        0x00003dee:    4601        .F      MOV      r1,r0
        0x00003df0:    0312        ..      LSLS     r2,r2,#12
        0x00003df2:    9812        ..      LDR      r0,[sp,#0x48]
        0x00003df4:    f7fffae8    ....    BL       BsrLulu ; 0x33c8
        0x00003df8:    4601        .F      MOV      r1,r0
        0x00003dfa:    9813        ..      LDR      r0,[sp,#0x4c]
        0x00003dfc:    1e40        @.      SUBS     r0,r0,#1
        0x00003dfe:    4281        .B      CMP      r1,r0
        0x00003e00:    dbdb        ..      BLT      0x3dba ; CSpotter_Init_Multi + 66
        0x00003e02:    2258        X"      MOVS     r2,#0x58
        0x00003e04:    4634        4F      MOV      r4,r6
        0x00003e06:    2100        .!      MOVS     r1,#0
        0x00003e08:    4630        0F      MOV      r0,r6
        0x00003e0a:    f7fffa68    ..h.    BL       BsrJohn ; 0x32de
        0x00003e0e:    20ff        .       MOVS     r0,#0xff
        0x00003e10:    302d        -0      ADDS     r0,r0,#0x2d
        0x00003e12:    462a        *F      MOV      r2,r5
        0x00003e14:    4631        1F      MOV      r1,r6
        0x00003e16:    9000        ..      STR      r0,[sp,#0]
        0x00003e18:    ab09        ..      ADD      r3,sp,#0x24
        0x00003e1a:    3a58        X:      SUBS     r2,r2,#0x58
        0x00003e1c:    3158        X1      ADDS     r1,r1,#0x58
        0x00003e1e:    a801        ..      ADD      r0,sp,#4
        0x00003e20:    c00e        ..      STM      r0!,{r1-r3}
        0x00003e22:    a811        ..      ADD      r0,sp,#0x44
        0x00003e24:    c80f        ..      LDM      r0,{r0-r3}
        0x00003e26:    f000fdcd    ....    BL       NINJA_API_9 ; 0x49c4
        0x00003e2a:    60a0        .`      STR      r0,[r4,#8]
        0x00003e2c:    2800        .(      CMP      r0,#0
        0x00003e2e:    d041        A.      BEQ      0x3eb4 ; CSpotter_Init_Multi + 316
        0x00003e30:    991c        ..      LDR      r1,[sp,#0x70]
        0x00003e32:    2900        .)      CMP      r1,#0
        0x00003e34:    d018        ..      BEQ      0x3e68 ; CSpotter_Init_Multi + 240
        0x00003e36:    991d        ..      LDR      r1,[sp,#0x74]
        0x00003e38:    2900        .)      CMP      r1,#0
        0x00003e3a:    dd15        ..      BLE      0x3e68 ; CSpotter_Init_Multi + 240
        0x00003e3c:    2100        .!      MOVS     r1,#0
        0x00003e3e:    f000fcb0    ....    BL       NINJA_API_47 ; 0x47a2
        0x00003e42:    991d        ..      LDR      r1,[sp,#0x74]
        0x00003e44:    9000        ..      STR      r0,[sp,#0]
        0x00003e46:    4288        .B      CMP      r0,r1
        0x00003e48:    dc0e        ..      BGT      0x3e68 ; CSpotter_Init_Multi + 240
        0x00003e4a:    981c        ..      LDR      r0,[sp,#0x70]
        0x00003e4c:    60e0        .`      STR      r0,[r4,#0xc]
        0x00003e4e:    2100        .!      MOVS     r1,#0
        0x00003e50:    68a0        .h      LDR      r0,[r4,#8]
        0x00003e52:    f000fd09    ....    BL       NINJA_API_55 ; 0x4868
        0x00003e56:    9900        ..      LDR      r1,[sp,#0]
        0x00003e58:    1841        A.      ADDS     r1,r0,r1
        0x00003e5a:    981d        ..      LDR      r0,[sp,#0x74]
        0x00003e5c:    4281        .B      CMP      r1,r0
        0x00003e5e:    dc03        ..      BGT      0x3e68 ; CSpotter_Init_Multi + 240
        0x00003e60:    9900        ..      LDR      r1,[sp,#0]
        0x00003e62:    981c        ..      LDR      r0,[sp,#0x70]
        0x00003e64:    1840        @.      ADDS     r0,r0,r1
        0x00003e66:    6120         a      STR      r0,[r4,#0x10]
        0x00003e68:    68e1        .h      LDR      r1,[r4,#0xc]
        0x00003e6a:    68a0        .h      LDR      r0,[r4,#8]
        0x00003e6c:    f000fccd    ....    BL       NINJA_API_48 ; 0x480a
        0x00003e70:    6921        !i      LDR      r1,[r4,#0x10]
        0x00003e72:    68a0        .h      LDR      r0,[r4,#8]
        0x00003e74:    f000fd18    ....    BL       NINJA_API_56 ; 0x48a8
        0x00003e78:    213c        <!      MOVS     r1,#0x3c
        0x00003e7a:    68a0        .h      LDR      r0,[r4,#8]
        0x00003e7c:    f000fc05    ....    BL       NINJA_API_19 ; 0x468a
        0x00003e80:    2104        .!      MOVS     r1,#4
        0x00003e82:    68a0        .h      LDR      r0,[r4,#8]
        0x00003e84:    f000fc37    ..7.    BL       NINJA_API_26 ; 0x46f6
        0x00003e88:    9812        ..      LDR      r0,[sp,#0x48]
        0x00003e8a:    6020         `      STR      r0,[r4,#0]
        0x00003e8c:    9813        ..      LDR      r0,[sp,#0x4c]
        0x00003e8e:    6060        ``      STR      r0,[r4,#4]
        0x00003e90:    9808        ..      LDR      r0,[sp,#0x20]
        0x00003e92:    6160        `a      STR      r0,[r4,#0x14]
        0x00003e94:    9807        ..      LDR      r0,[sp,#0x1c]
        0x00003e96:    61a0        .a      STR      r0,[r4,#0x18]
        0x00003e98:    4815        .H      LDR      r0,[pc,#84] ; [0x3ef0] = 0xfffff82b
        0x00003e9a:    4621        !F      MOV      r1,r4
        0x00003e9c:    1f00        ..      SUBS     r0,r0,#4
        0x00003e9e:    61e0        .a      STR      r0,[r4,#0x1c]
        0x00003ea0:    312c        ,1      ADDS     r1,r1,#0x2c
        0x00003ea2:    6aa0        .j      LDR      r0,[r4,#0x28]
        0x00003ea4:    f7fffa82    ....    BL       BsrLuke ; 0x33ac
        0x00003ea8:    2114        .!      MOVS     r1,#0x14
        0x00003eaa:    6261        ab      STR      r1,[r4,#0x24]
        0x00003eac:    6220         b      STR      r0,[r4,#0x20]
        0x00003eae:    2800        .(      CMP      r0,#0
        0x00003eb0:    d00c        ..      BEQ      0x3ecc ; CSpotter_Init_Multi + 340
        0x00003eb2:    e00e        ..      B        0x3ed2 ; CSpotter_Init_Multi + 346
        0x00003eb4:    480f        .H      LDR      r0,[pc,#60] ; [0x3ef4] = 0xffffec78
        0x00003eb6:    9009        ..      STR      r0,[sp,#0x24]
        0x00003eb8:    4620         F      MOV      r0,r4
        0x00003eba:    f000f81d    ....    BL       CSpotter_Release ; 0x3ef8
        0x00003ebe:    2f00        ./      CMP      r7,#0
        0x00003ec0:    d001        ..      BEQ      0x3ec6 ; CSpotter_Init_Multi + 334
        0x00003ec2:    9809        ..      LDR      r0,[sp,#0x24]
        0x00003ec4:    6038        8`      STR      r0,[r7,#0]
        0x00003ec6:    2000        .       MOVS     r0,#0
        0x00003ec8:    b015        ..      ADD      sp,sp,#0x54
        0x00003eca:    bdf0        ..      POP      {r4-r7,pc}
        0x00003ecc:    68a0        .h      LDR      r0,[r4,#8]
        0x00003ece:    f000fba7    ....    BL       NINJA_API_15 ; 0x4620
        0x00003ed2:    1970        p.      ADDS     r0,r6,r5
        0x00003ed4:    6320         c      STR      r0,[r4,#0x30]
        0x00003ed6:    981b        ..      LDR      r0,[sp,#0x6c]
        0x00003ed8:    1b40        @.      SUBS     r0,r0,r5
        0x00003eda:    6360        `c      STR      r0,[r4,#0x34]
        0x00003edc:    9811        ..      LDR      r0,[sp,#0x44]
        0x00003ede:    63a0        .c      STR      r0,[r4,#0x38]
        0x00003ee0:    9814        ..      LDR      r0,[sp,#0x50]
        0x00003ee2:    63e0        .c      STR      r0,[r4,#0x3c]
        0x00003ee4:    2f00        ./      CMP      r7,#0
        0x00003ee6:    d001        ..      BEQ      0x3eec ; CSpotter_Init_Multi + 372
        0x00003ee8:    9809        ..      LDR      r0,[sp,#0x24]
        0x00003eea:    6038        8`      STR      r0,[r7,#0]
        0x00003eec:    4620         F      MOV      r0,r4
        0x00003eee:    e7eb        ..      B        0x3ec8 ; CSpotter_Init_Multi + 336
    $d
        0x00003ef0:    fffff82b    +...    DCD    4294965291
        0x00003ef4:    ffffec78    x...    DCD    4294962296
    $t
    i.CSpotter_Release
    CSpotter_Release
        0x00003ef8:    b510        ..      PUSH     {r4,lr}
        0x00003efa:    0004        ..      MOVS     r4,r0
        0x00003efc:    d00c        ..      BEQ      0x3f18 ; CSpotter_Release + 32
        0x00003efe:    68e1        .h      LDR      r1,[r4,#0xc]
        0x00003f00:    68a0        .h      LDR      r0,[r4,#8]
        0x00003f02:    f000fc4e    ..N.    BL       NINJA_API_47 ; 0x47a2
        0x00003f06:    6921        !i      LDR      r1,[r4,#0x10]
        0x00003f08:    68a0        .h      LDR      r0,[r4,#8]
        0x00003f0a:    f000fcad    ....    BL       NINJA_API_55 ; 0x4868
        0x00003f0e:    68a0        .h      LDR      r0,[r4,#8]
        0x00003f10:    f000fbcb    ....    BL       NINJA_API_2 ; 0x46aa
        0x00003f14:    2000        .       MOVS     r0,#0
        0x00003f16:    bd10        ..      POP      {r4,pc}
        0x00003f18:    4800        .H      LDR      r0,[pc,#0] ; [0x3f1c] = 0xfffff82f
        0x00003f1a:    bd10        ..      POP      {r4,pc}
    $d
        0x00003f1c:    fffff82f    /...    DCD    4294965295
    $t
    i.CSpotter_Reset
    CSpotter_Reset
        0x00003f20:    b510        ..      PUSH     {r4,lr}
        0x00003f22:    0004        ..      MOVS     r4,r0
        0x00003f24:    d008        ..      BEQ      0x3f38 ; CSpotter_Reset + 24
        0x00003f26:    68a0        .h      LDR      r0,[r4,#8]
        0x00003f28:    2800        .(      CMP      r0,#0
        0x00003f2a:    d005        ..      BEQ      0x3f38 ; CSpotter_Reset + 24
        0x00003f2c:    f000fbfa    ....    BL       NINJA_API_3 ; 0x4724
        0x00003f30:    2800        .(      CMP      r0,#0
        0x00003f32:    d003        ..      BEQ      0x3f3c ; CSpotter_Reset + 28
        0x00003f34:    4805        .H      LDR      r0,[pc,#20] ; [0x3f4c] = 0xffffec78
        0x00003f36:    bd10        ..      POP      {r4,pc}
        0x00003f38:    4805        .H      LDR      r0,[pc,#20] ; [0x3f50] = 0xfffff82f
        0x00003f3a:    bd10        ..      POP      {r4,pc}
        0x00003f3c:    4804        .H      LDR      r0,[pc,#16] ; [0x3f50] = 0xfffff82f
        0x00003f3e:    3808        .8      SUBS     r0,r0,#8
        0x00003f40:    61e0        .a      STR      r0,[r4,#0x1c]
        0x00003f42:    64a0        .d      STR      r0,[r4,#0x48]
        0x00003f44:    2000        .       MOVS     r0,#0
        0x00003f46:    64e0        .d      STR      r0,[r4,#0x4c]
        0x00003f48:    bd10        ..      POP      {r4,pc}
    $d
        0x00003f4a:    0000        ..      DCW    0
        0x00003f4c:    ffffec78    x...    DCD    4294962296
        0x00003f50:    fffff82f    /...    DCD    4294965295
    $t
    i.CSpotter_SetCmdResponseReward
    CSpotter_SetCmdResponseReward
        0x00003f54:    b510        ..      PUSH     {r4,lr}
        0x00003f56:    0003        ..      MOVS     r3,r0
        0x00003f58:    d00b        ..      BEQ      0x3f72 ; CSpotter_SetCmdResponseReward + 30
        0x00003f5a:    6898        .h      LDR      r0,[r3,#8]
        0x00003f5c:    2800        .(      CMP      r0,#0
        0x00003f5e:    d008        ..      BEQ      0x3f72 ; CSpotter_SetCmdResponseReward + 30
        0x00003f60:    6a1b        .j      LDR      r3,[r3,#0x20]
        0x00003f62:    2b00        .+      CMP      r3,#0
        0x00003f64:    d008        ..      BEQ      0x3f78 ; CSpotter_SetCmdResponseReward + 36
        0x00003f66:    f000fb7b    ..{.    BL       NINJA_API_18 ; 0x4660
        0x00003f6a:    2800        .(      CMP      r0,#0
        0x00003f6c:    d000        ..      BEQ      0x3f70 ; CSpotter_SetCmdResponseReward + 28
        0x00003f6e:    4803        .H      LDR      r0,[pc,#12] ; [0x3f7c] = 0xfffff82e
        0x00003f70:    bd10        ..      POP      {r4,pc}
        0x00003f72:    4802        .H      LDR      r0,[pc,#8] ; [0x3f7c] = 0xfffff82e
        0x00003f74:    1c40        @.      ADDS     r0,r0,#1
        0x00003f76:    bd10        ..      POP      {r4,pc}
        0x00003f78:    2000        .       MOVS     r0,#0
        0x00003f7a:    bd10        ..      POP      {r4,pc}
    $d
        0x00003f7c:    fffff82e    ....    DCD    4294965294
    $t
    i.CSpotter_SetResponseTime
    CSpotter_SetResponseTime
        0x00003f80:    b510        ..      PUSH     {r4,lr}
        0x00003f82:    0002        ..      MOVS     r2,r0
        0x00003f84:    d00b        ..      BEQ      0x3f9e ; CSpotter_SetResponseTime + 30
        0x00003f86:    6890        .h      LDR      r0,[r2,#8]
        0x00003f88:    2800        .(      CMP      r0,#0
        0x00003f8a:    d008        ..      BEQ      0x3f9e ; CSpotter_SetResponseTime + 30
        0x00003f8c:    6a12        .j      LDR      r2,[r2,#0x20]
        0x00003f8e:    2a00        .*      CMP      r2,#0
        0x00003f90:    d008        ..      BEQ      0x3fa4 ; CSpotter_SetResponseTime + 36
        0x00003f92:    f000fb55    ..U.    BL       NINJA_API_16 ; 0x4640
        0x00003f96:    2800        .(      CMP      r0,#0
        0x00003f98:    d000        ..      BEQ      0x3f9c ; CSpotter_SetResponseTime + 28
        0x00003f9a:    4803        .H      LDR      r0,[pc,#12] ; [0x3fa8] = 0xfffff82e
        0x00003f9c:    bd10        ..      POP      {r4,pc}
        0x00003f9e:    4802        .H      LDR      r0,[pc,#8] ; [0x3fa8] = 0xfffff82e
        0x00003fa0:    1c40        @.      ADDS     r0,r0,#1
        0x00003fa2:    bd10        ..      POP      {r4,pc}
        0x00003fa4:    2000        .       MOVS     r0,#0
        0x00003fa6:    bd10        ..      POP      {r4,pc}
    $d
        0x00003fa8:    fffff82e    ....    DCD    4294965294
    $t
    i.DoVR_create_multi
    DoVR_create_multi
        0x00003fac:    b570        p.      PUSH     {r4-r6,lr}
        0x00003fae:    b086        ..      SUB      sp,sp,#0x18
        0x00003fb0:    4604        .F      MOV      r4,r0
        0x00003fb2:    460d        .F      MOV      r5,r1
        0x00003fb4:    4616        .F      MOV      r6,r2
        0x00003fb6:    23c8        .#      MOVS     r3,#0xc8
        0x00003fb8:    4632        2F      MOV      r2,r6
        0x00003fba:    4629        )F      MOV      r1,r5
        0x00003fbc:    4620         F      MOV      r0,r4
        0x00003fbe:    f7fffe49    ..I.    BL       CSpotter_GetMemoryUsage_Multi ; 0x3c54
        0x00003fc2:    4a0b        .J      LDR      r2,[pc,#44] ; [0x3ff0] = 0x2000003c
        0x00003fc4:    2040        @       MOVS     r0,#0x40
        0x00003fc6:    6812        .h      LDR      r2,[r2,#0]
        0x00003fc8:    9003        ..      STR      r0,[sp,#0xc]
        0x00003fca:    ab05        ..      ADD      r3,sp,#0x14
        0x00003fcc:    4907        .I      LDR      r1,[pc,#28] ; [0x3fec] = 0x20002854
        0x00003fce:    4809        .H      LDR      r0,[pc,#36] ; [0x3ff4] = 0x20000054
        0x00003fd0:    9304        ..      STR      r3,[sp,#0x10]
        0x00003fd2:    9201        ..      STR      r2,[sp,#4]
        0x00003fd4:    9102        ..      STR      r1,[sp,#8]
        0x00003fd6:    9000        ..      STR      r0,[sp,#0]
        0x00003fd8:    23c8        .#      MOVS     r3,#0xc8
        0x00003fda:    4632        2F      MOV      r2,r6
        0x00003fdc:    4629        )F      MOV      r1,r5
        0x00003fde:    4620         F      MOV      r0,r4
        0x00003fe0:    f7fffeca    ....    BL       CSpotter_Init_Multi ; 0x3d78
        0x00003fe4:    2800        .(      CMP      r0,#0
        0x00003fe6:    d1ff        ..      BNE      0x3fe8 ; DoVR_create_multi + 60
        0x00003fe8:    b006        ..      ADD      sp,sp,#0x18
        0x00003fea:    bd70        p.      POP      {r4-r6,pc}
    $d
        0x00003fec:    20002854    T(.     DCD    536881236
        0x00003ff0:    2000003c    <..     DCD    536870972
        0x00003ff4:    20000054    T..     DCD    536870996
    $t
    i.DoVR_get_two_as_one
    DoVR_get_two_as_one
        0x00003ff8:    b5ff        ..      PUSH     {r0-r7,lr}
        0x00003ffa:    b085        ..      SUB      sp,sp,#0x14
        0x00003ffc:    f001f962    ..b.    BL       Wave_StartRecord ; 0x52c4
        0x00004000:    2700        .'      MOVS     r7,#0
        0x00004002:    2000        .       MOVS     r0,#0
        0x00004004:    9004        ..      STR      r0,[sp,#0x10]
        0x00004006:    9805        ..      LDR      r0,[sp,#0x14]
        0x00004008:    f7ffff8a    ....    BL       CSpotter_Reset ; 0x3f20
        0x0000400c:    2500        .%      MOVS     r5,#0
        0x0000400e:    980f        ..      LDR      r0,[sp,#0x3c]
        0x00004010:    2800        .(      CMP      r0,#0
        0x00004012:    d005        ..      BEQ      0x4020 ; DoVR_get_two_as_one + 40
        0x00004014:    980f        ..      LDR      r0,[sp,#0x3c]
        0x00004016:    4780        .G      BLX      r0
        0x00004018:    2800        .(      CMP      r0,#0
        0x0000401a:    dd01        ..      BLE      0x4020 ; DoVR_get_two_as_one + 40
        0x0000401c:    9004        ..      STR      r0,[sp,#0x10]
        0x0000401e:    e04a        J.      B        0x40b6 ; DoVR_get_two_as_one + 190
        0x00004020:    a801        ..      ADD      r0,sp,#4
        0x00004022:    f001f92f    ../.    BL       Wave_GetSample ; 0x5284
        0x00004026:    9000        ..      STR      r0,[sp,#0]
        0x00004028:    9800        ..      LDR      r0,[sp,#0]
        0x0000402a:    2800        .(      CMP      r0,#0
        0x0000402c:    db43        C.      BLT      0x40b6 ; DoVR_get_two_as_one + 190
        0x0000402e:    9800        ..      LDR      r0,[sp,#0]
        0x00004030:    2800        .(      CMP      r0,#0
        0x00004032:    d0ec        ..      BEQ      0x400e ; DoVR_get_two_as_one + 22
        0x00004034:    9a00        ..      LDR      r2,[sp,#0]
        0x00004036:    9901        ..      LDR      r1,[sp,#4]
        0x00004038:    9805        ..      LDR      r0,[sp,#0x14]
        0x0000403a:    f7fffddb    ....    BL       CSpotter_AddSample ; 0x3bf4
        0x0000403e:    2800        .(      CMP      r0,#0
        0x00004040:    d126        &.      BNE      0x4090 ; DoVR_get_two_as_one + 152
        0x00004042:    9805        ..      LDR      r0,[sp,#0x14]
        0x00004044:    f7fffe64    ..d.    BL       CSpotter_GetResult ; 0x3d10
        0x00004048:    4604        .F      MOV      r4,r0
        0x0000404a:    2d00        .-      CMP      r5,#0
        0x0000404c:    d03b        ;.      BEQ      0x40c6 ; DoVR_get_two_as_one + 206
        0x0000404e:    9806        ..      LDR      r0,[sp,#0x18]
        0x00004050:    6800        .h      LDR      r0,[r0,#0]
        0x00004052:    42a0        .B      CMP      r0,r4
        0x00004054:    dc1b        ..      BGT      0x408e ; DoVR_get_two_as_one + 150
        0x00004056:    9806        ..      LDR      r0,[sp,#0x18]
        0x00004058:    6840        @h      LDR      r0,[r0,#4]
        0x0000405a:    42a0        .B      CMP      r0,r4
        0x0000405c:    dd17        ..      BLE      0x408e ; DoVR_get_two_as_one + 150
        0x0000405e:    aa02        ..      ADD      r2,sp,#8
        0x00004060:    a903        ..      ADD      r1,sp,#0xc
        0x00004062:    9805        ..      LDR      r0,[sp,#0x14]
        0x00004064:    f7fffe66    ..f.    BL       CSpotter_GetResultEPD ; 0x3d34
        0x00004068:    9902        ..      LDR      r1,[sp,#8]
        0x0000406a:    9803        ..      LDR      r0,[sp,#0xc]
        0x0000406c:    1840        @.      ADDS     r0,r0,r1
        0x0000406e:    1a31        1.      SUBS     r1,r6,r0
        0x00004070:    207d        }       MOVS     r0,#0x7d
        0x00004072:    0200        ..      LSLS     r0,r0,#8
        0x00004074:    4281        .B      CMP      r1,r0
        0x00004076:    da09        ..      BGE      0x408c ; DoVR_get_two_as_one + 148
        0x00004078:    f001f8f8    ....    BL       Wave_CheckCpuOverload ; 0x526c
        0x0000407c:    2800        .(      CMP      r0,#0
        0x0000407e:    d001        ..      BEQ      0x4084 ; DoVR_get_two_as_one + 140
        0x00004080:    f001f8fa    ....    BL       Wave_ClearCpuOverload ; 0x5278
        0x00004084:    9807        ..      LDR      r0,[sp,#0x1c]
        0x00004086:    2800        .(      CMP      r0,#0
        0x00004088:    d02d        -.      BEQ      0x40e6 ; DoVR_get_two_as_one + 238
        0x0000408a:    2700        .'      MOVS     r7,#0
        0x0000408c:    2500        .%      MOVS     r5,#0
        0x0000408e:    2600        .&      MOVS     r6,#0
        0x00004090:    a801        ..      ADD      r0,sp,#4
        0x00004092:    f001f95f    .._.    BL       Wave_UnlockSample ; 0x5354
        0x00004096:    2d00        .-      CMP      r5,#0
        0x00004098:    dd06        ..      BLE      0x40a8 ; DoVR_get_two_as_one + 176
        0x0000409a:    9800        ..      LDR      r0,[sp,#0]
        0x0000409c:    1836        6.      ADDS     r6,r6,r0
        0x0000409e:    207d        }       MOVS     r0,#0x7d
        0x000040a0:    0240        @.      LSLS     r0,r0,#9
        0x000040a2:    4286        .B      CMP      r6,r0
        0x000040a4:    db00        ..      BLT      0x40a8 ; DoVR_get_two_as_one + 176
        0x000040a6:    2500        .%      MOVS     r5,#0
        0x000040a8:    1c7f        ..      ADDS     r7,r7,#1
        0x000040aa:    9808        ..      LDR      r0,[sp,#0x20]
        0x000040ac:    2800        .(      CMP      r0,#0
        0x000040ae:    d0ae        ..      BEQ      0x400e ; DoVR_get_two_as_one + 22
        0x000040b0:    9808        ..      LDR      r0,[sp,#0x20]
        0x000040b2:    4287        .B      CMP      r7,r0
        0x000040b4:    d3ab        ..      BCC      0x400e ; DoVR_get_two_as_one + 22
        0x000040b6:    9805        ..      LDR      r0,[sp,#0x14]
        0x000040b8:    f7ffff1e    ....    BL       CSpotter_Release ; 0x3ef8
        0x000040bc:    f001f93c    ..<.    BL       Wave_StopRecord ; 0x5338
        0x000040c0:    9804        ..      LDR      r0,[sp,#0x10]
        0x000040c2:    b009        ..      ADD      sp,sp,#0x24
        0x000040c4:    bdf0        ..      POP      {r4-r7,pc}
        0x000040c6:    9806        ..      LDR      r0,[sp,#0x18]
        0x000040c8:    6800        .h      LDR      r0,[r0,#0]
        0x000040ca:    42a0        .B      CMP      r0,r4
        0x000040cc:    dc03        ..      BGT      0x40d6 ; DoVR_get_two_as_one + 222
        0x000040ce:    9806        ..      LDR      r0,[sp,#0x18]
        0x000040d0:    6840        @h      LDR      r0,[r0,#4]
        0x000040d2:    42a0        .B      CMP      r0,r4
        0x000040d4:    dcdb        ..      BGT      0x408e ; DoVR_get_two_as_one + 150
        0x000040d6:    f001f8c9    ....    BL       Wave_CheckCpuOverload ; 0x526c
        0x000040da:    2800        .(      CMP      r0,#0
        0x000040dc:    d001        ..      BEQ      0x40e2 ; DoVR_get_two_as_one + 234
        0x000040de:    f001f8cb    ....    BL       Wave_ClearCpuOverload ; 0x5278
        0x000040e2:    2501        .%      MOVS     r5,#1
        0x000040e4:    e7d3        ..      B        0x408e ; DoVR_get_two_as_one + 150
        0x000040e6:    1c64        d.      ADDS     r4,r4,#1
        0x000040e8:    9404        ..      STR      r4,[sp,#0x10]
        0x000040ea:    e7e4        ..      B        0x40b6 ; DoVR_get_two_as_one + 190
    i.DoVR_two_as_one
    DoVR_two_as_one
        0x000040ec:    b5ff        ..      PUSH     {r0-r7,lr}
        0x000040ee:    b085        ..      SUB      sp,sp,#0x14
        0x000040f0:    460d        .F      MOV      r5,r1
        0x000040f2:    4617        .F      MOV      r7,r2
        0x000040f4:    463a        :F      MOV      r2,r7
        0x000040f6:    4629        )F      MOV      r1,r5
        0x000040f8:    f7ffff58    ..X.    BL       DoVR_create_multi ; 0x3fac
        0x000040fc:    4606        .F      MOV      r6,r0
        0x000040fe:    2000        .       MOVS     r0,#0
        0x00004100:    9002        ..      STR      r0,[sp,#8]
        0x00004102:    9003        ..      STR      r0,[sp,#0xc]
        0x00004104:    9004        ..      STR      r0,[sp,#0x10]
        0x00004106:    0030        0.      MOVS     r0,r6
        0x00004108:    d001        ..      BEQ      0x410e ; DoVR_two_as_one + 34
        0x0000410a:    2f02        ./      CMP      r7,#2
        0x0000410c:    d203        ..      BCS      0x4116 ; DoVR_two_as_one + 42
        0x0000410e:    2000        .       MOVS     r0,#0
        0x00004110:    43c0        .C      MVNS     r0,r0
        0x00004112:    b009        ..      ADD      sp,sp,#0x24
        0x00004114:    bdf0        ..      POP      {r4-r7,pc}
        0x00004116:    6828        (h      LDR      r0,[r5,#0]
        0x00004118:    f7fffde2    ....    BL       CSpotter_GetNumWord ; 0x3ce0
        0x0000411c:    9002        ..      STR      r0,[sp,#8]
        0x0000411e:    6868        hh      LDR      r0,[r5,#4]
        0x00004120:    f7fffdde    ....    BL       CSpotter_GetNumWord ; 0x3ce0
        0x00004124:    9902        ..      LDR      r1,[sp,#8]
        0x00004126:    1840        @.      ADDS     r0,r0,r1
        0x00004128:    9003        ..      STR      r0,[sp,#0xc]
        0x0000412a:    9803        ..      LDR      r0,[sp,#0xc]
        0x0000412c:    9004        ..      STR      r0,[sp,#0x10]
        0x0000412e:    2400        .$      MOVS     r4,#0
        0x00004130:    e006        ..      B        0x4140 ; DoVR_two_as_one + 84
        0x00004132:    220e        ."      MOVS     r2,#0xe
        0x00004134:    43d2        .C      MVNS     r2,r2
        0x00004136:    4621        !F      MOV      r1,r4
        0x00004138:    4630        0F      MOV      r0,r6
        0x0000413a:    f7ffff0b    ....    BL       CSpotter_SetCmdResponseReward ; 0x3f54
        0x0000413e:    1c64        d.      ADDS     r4,r4,#1
        0x00004140:    9802        ..      LDR      r0,[sp,#8]
        0x00004142:    42a0        .B      CMP      r0,r4
        0x00004144:    dcf5        ..      BGT      0x4132 ; DoVR_two_as_one + 70
        0x00004146:    2f02        ./      CMP      r7,#2
        0x00004148:    d912        ..      BLS      0x4170 ; DoVR_two_as_one + 132
        0x0000414a:    68a8        .h      LDR      r0,[r5,#8]
        0x0000414c:    f7fffdc8    ....    BL       CSpotter_GetNumWord ; 0x3ce0
        0x00004150:    9903        ..      LDR      r1,[sp,#0xc]
        0x00004152:    1840        @.      ADDS     r0,r0,r1
        0x00004154:    9004        ..      STR      r0,[sp,#0x10]
        0x00004156:    9c03        ..      LDR      r4,[sp,#0xc]
        0x00004158:    250e        .%      MOVS     r5,#0xe
        0x0000415a:    43ed        .C      MVNS     r5,r5
        0x0000415c:    e005        ..      B        0x416a ; DoVR_two_as_one + 126
        0x0000415e:    462a        *F      MOV      r2,r5
        0x00004160:    4621        !F      MOV      r1,r4
        0x00004162:    4630        0F      MOV      r0,r6
        0x00004164:    f7fffef6    ....    BL       CSpotter_SetCmdResponseReward ; 0x3f54
        0x00004168:    1c64        d.      ADDS     r4,r4,#1
        0x0000416a:    9804        ..      LDR      r0,[sp,#0x10]
        0x0000416c:    42a0        .B      CMP      r0,r4
        0x0000416e:    dcf6        ..      BGT      0x415e ; DoVR_two_as_one + 114
        0x00004170:    2114        .!      MOVS     r1,#0x14
        0x00004172:    4630        0F      MOV      r0,r6
        0x00004174:    f7ffff04    ....    BL       CSpotter_SetResponseTime ; 0x3f80
        0x00004178:    9910        ..      LDR      r1,[sp,#0x40]
        0x0000417a:    980f        ..      LDR      r0,[sp,#0x3c]
        0x0000417c:    9101        ..      STR      r1,[sp,#4]
        0x0000417e:    9000        ..      STR      r0,[sp,#0]
        0x00004180:    a902        ..      ADD      r1,sp,#8
        0x00004182:    4630        0F      MOV      r0,r6
        0x00004184:    9b0e        ..      LDR      r3,[sp,#0x38]
        0x00004186:    9a08        ..      LDR      r2,[sp,#0x20]
        0x00004188:    f7ffff36    ..6.    BL       DoVR_get_two_as_one ; 0x3ff8
        0x0000418c:    e7c1        ..      B        0x4112 ; DoVR_two_as_one + 38
        0x0000418e:    0000        ..      MOVS     r0,r0
    i.GPAB_IRQHandler
    GPAB_IRQHandler
        0x00004190:    b510        ..      PUSH     {r4,lr}
        0x00004192:    480d        .H      LDR      r0,[pc,#52] ; [0x41c8] = 0x50004040
        0x00004194:    6a01        .j      LDR      r1,[r0,#0x20]
        0x00004196:    0649        I.      LSLS     r1,r1,#25
        0x00004198:    d50e        ..      BPL      0x41b8 ; GPAB_IRQHandler + 40
        0x0000419a:    2140        @!      MOVS     r1,#0x40
        0x0000419c:    6201        .b      STR      r1,[r0,#0x20]
        0x0000419e:    490b        .I      LDR      r1,[pc,#44] ; [0x41cc] = 0x2000001c
        0x000041a0:    2201        ."      MOVS     r2,#1
        0x000041a2:    794b        Ky      LDRB     r3,[r1,#5]
        0x000041a4:    2b00        .+      CMP      r3,#0
        0x000041a6:    d008        ..      BEQ      0x41ba ; GPAB_IRQHandler + 42
        0x000041a8:    780b        .x      LDRB     r3,[r1,#0]
        0x000041aa:    2b00        .+      CMP      r3,#0
        0x000041ac:    d007        ..      BEQ      0x41be ; GPAB_IRQHandler + 46
        0x000041ae:    2200        ."      MOVS     r2,#0
        0x000041b0:    700a        .p      STRB     r2,[r1,#0]
        0x000041b2:    2120         !      MOVS     r1,#0x20
        0x000041b4:    f000ff3c    ..<.    BL       SetOutputPin ; 0x5030
        0x000041b8:    bd10        ..      POP      {r4,pc}
        0x000041ba:    714a        Jq      STRB     r2,[r1,#5]
        0x000041bc:    bd10        ..      POP      {r4,pc}
        0x000041be:    700a        .p      STRB     r2,[r1,#0]
        0x000041c0:    f001f828    ..(.    BL       Vibrate_SmartGlove ; 0x5214
        0x000041c4:    bd10        ..      POP      {r4,pc}
    $d
        0x000041c6:    0000        ..      DCW    0
        0x000041c8:    50004040    @@.P    DCD    1342193728
        0x000041cc:    2000001c    ...     DCD    536870940
    $t
    i.GPIO_EnableInt
    GPIO_EnableInt
        0x000041d0:    b510        ..      PUSH     {r4,lr}
        0x000041d2:    6983        .i      LDR      r3,[r0,#0x18]
        0x000041d4:    0e14        ..      LSRS     r4,r2,#24
        0x000041d6:    408c        .@      LSLS     r4,r4,r1
        0x000041d8:    4323        #C      ORRS     r3,r3,r4
        0x000041da:    6183        .a      STR      r3,[r0,#0x18]
        0x000041dc:    69c3        .i      LDR      r3,[r0,#0x1c]
        0x000041de:    0212        ..      LSLS     r2,r2,#8
        0x000041e0:    0a12        ..      LSRS     r2,r2,#8
        0x000041e2:    408a        .@      LSLS     r2,r2,r1
        0x000041e4:    4313        .C      ORRS     r3,r3,r2
        0x000041e6:    61c3        .a      STR      r3,[r0,#0x1c]
        0x000041e8:    bd10        ..      POP      {r4,pc}
    i.GPIO_SetMode
    GPIO_SetMode
        0x000041ea:    b5f0        ..      PUSH     {r4-r7,lr}
        0x000041ec:    2300        .#      MOVS     r3,#0
        0x000041ee:    2701        .'      MOVS     r7,#1
        0x000041f0:    463c        <F      MOV      r4,r7
        0x000041f2:    409c        .@      LSLS     r4,r4,r3
        0x000041f4:    420c        .B      TST      r4,r1
        0x000041f6:    d008        ..      BEQ      0x420a ; GPIO_SetMode + 32
        0x000041f8:    6805        .h      LDR      r5,[r0,#0]
        0x000041fa:    005c        \.      LSLS     r4,r3,#1
        0x000041fc:    2603        .&      MOVS     r6,#3
        0x000041fe:    40a6        .@      LSLS     r6,r6,r4
        0x00004200:    43b5        .C      BICS     r5,r5,r6
        0x00004202:    4616        .F      MOV      r6,r2
        0x00004204:    40a6        .@      LSLS     r6,r6,r4
        0x00004206:    4335        5C      ORRS     r5,r5,r6
        0x00004208:    6005        .`      STR      r5,[r0,#0]
        0x0000420a:    1c5b        [.      ADDS     r3,r3,#1
        0x0000420c:    2b10        .+      CMP      r3,#0x10
        0x0000420e:    d3ef        ..      BCC      0x41f0 ; GPIO_SetMode + 6
        0x00004210:    bdf0        ..      POP      {r4-r7,pc}
        0x00004212:    0000        ..      MOVS     r0,r0
    i.InitialGPIO
    InitialGPIO
        0x00004214:    b570        p.      PUSH     {r4-r6,lr}
        0x00004216:    4c1b        .L      LDR      r4,[pc,#108] ; [0x4284] = 0x50004040
        0x00004218:    2201        ."      MOVS     r2,#1
        0x0000421a:    4611        .F      MOV      r1,r2
        0x0000421c:    4620         F      MOV      r0,r4
        0x0000421e:    f7ffffe4    ....    BL       GPIO_SetMode ; 0x41ea
        0x00004222:    2200        ."      MOVS     r2,#0
        0x00004224:    2101        .!      MOVS     r1,#1
        0x00004226:    4620         F      MOV      r0,r4
        0x00004228:    f000ff0c    ....    BL       SetOutputPin_0 ; 0x5044
        0x0000422c:    2201        ."      MOVS     r2,#1
        0x0000422e:    2120         !      MOVS     r1,#0x20
        0x00004230:    4620         F      MOV      r0,r4
        0x00004232:    f7ffffda    ....    BL       GPIO_SetMode ; 0x41ea
        0x00004236:    4d13        .M      LDR      r5,[pc,#76] ; [0x4284] = 0x50004040
        0x00004238:    2201        ."      MOVS     r2,#1
        0x0000423a:    3d40        @=      SUBS     r5,r5,#0x40
        0x0000423c:    213f        ?!      MOVS     r1,#0x3f
        0x0000423e:    4628        (F      MOV      r0,r5
        0x00004240:    f7ffffd3    ....    BL       GPIO_SetMode ; 0x41ea
        0x00004244:    2200        ."      MOVS     r2,#0
        0x00004246:    213f        ?!      MOVS     r1,#0x3f
        0x00004248:    4628        (F      MOV      r0,r5
        0x0000424a:    f000fef1    ....    BL       SetOutputPin ; 0x5030
        0x0000424e:    2200        ."      MOVS     r2,#0
        0x00004250:    2120         !      MOVS     r1,#0x20
        0x00004252:    4620         F      MOV      r0,r4
        0x00004254:    f000feec    ....    BL       SetOutputPin ; 0x5030
        0x00004258:    2203        ."      MOVS     r2,#3
        0x0000425a:    2140        @!      MOVS     r1,#0x40
        0x0000425c:    4620         F      MOV      r0,r4
        0x0000425e:    f7ffffc4    ....    BL       GPIO_SetMode ; 0x41ea
        0x00004262:    4a09        .J      LDR      r2,[pc,#36] ; [0x4288] = 0x10001
        0x00004264:    2106        .!      MOVS     r1,#6
        0x00004266:    4620         F      MOV      r0,r4
        0x00004268:    f7ffffb2    ....    BL       GPIO_EnableInt ; 0x41d0
        0x0000426c:    4807        .H      LDR      r0,[pc,#28] ; [0x428c] = 0xe000e100
        0x0000426e:    2110        .!      MOVS     r1,#0x10
        0x00004270:    6001        .`      STR      r1,[r0,#0]
        0x00004272:    4907        .I      LDR      r1,[pc,#28] ; [0x4290] = 0x50004180
        0x00004274:    2020                MOVS     r0,#0x20
        0x00004276:    6008        .`      STR      r0,[r1,#0]
        0x00004278:    6961        ai      LDR      r1,[r4,#0x14]
        0x0000427a:    2040        @       MOVS     r0,#0x40
        0x0000427c:    4301        .C      ORRS     r1,r1,r0
        0x0000427e:    6161        aa      STR      r1,[r4,#0x14]
        0x00004280:    bd70        p.      POP      {r4-r6,pc}
    $d
        0x00004282:    0000        ..      DCW    0
        0x00004284:    50004040    @@.P    DCD    1342193728
        0x00004288:    00010001    ....    DCD    65537
        0x0000428c:    e000e100    ....    DCD    3758153984
        0x00004290:    50004180    .A.P    DCD    1342194048
    $t
    i.MIC_Close
    MIC_Close
        0x00004294:    b510        ..      PUSH     {r4,lr}
        0x00004296:    2001        .       MOVS     r0,#1
        0x00004298:    490d        .I      LDR      r1,[pc,#52] ; [0x42d0] = 0x400e0000
        0x0000429a:    43c0        .C      MVNS     r0,r0
        0x0000429c:    6048        H`      STR      r0,[r1,#4]
        0x0000429e:    2001        .       MOVS     r0,#1
        0x000042a0:    f7fcf8d6    ....    BL       ADC_DisableInt ; 0x450
        0x000042a4:    4c0b        .L      LDR      r4,[pc,#44] ; [0x42d4] = 0x40080040
        0x000042a6:    2000        .       MOVS     r0,#0
        0x000042a8:    6220         b      STR      r0,[r4,#0x20]
        0x000042aa:    480a        .H      LDR      r0,[pc,#40] ; [0x42d4] = 0x40080040
        0x000042ac:    3840        @8      SUBS     r0,r0,#0x40
        0x000042ae:    6801        .h      LDR      r1,[r0,#0]
        0x000042b0:    2207        ."      MOVS     r2,#7
        0x000042b2:    4311        .C      ORRS     r1,r1,r2
        0x000042b4:    6001        .`      STR      r1,[r0,#0]
        0x000042b6:    f7fcf8eb    ....    BL       ADC_DisableMICBias ; 0x490
        0x000042ba:    6a60        `j      LDR      r0,[r4,#0x24]
        0x000042bc:    211e        .!      MOVS     r1,#0x1e
        0x000042be:    4388        .C      BICS     r0,r0,r1
        0x000042c0:    6260        `b      STR      r0,[r4,#0x24]
        0x000042c2:    f7fcf8c4    ....    BL       ADC_Close ; 0x44e
        0x000042c6:    4804        .H      LDR      r0,[pc,#16] ; [0x42d8] = 0x4003fe1c
        0x000042c8:    f7fffc3e    ..>.    BL       CLK_DisableModuleClock ; 0x3b48
        0x000042cc:    bd10        ..      POP      {r4,pc}
    $d
        0x000042ce:    0000        ..      DCW    0
        0x000042d0:    400e0000    ...@    DCD    1074659328
        0x000042d4:    40080040    @..@    DCD    1074266176
        0x000042d8:    4003fe1c    ...@    DCD    1074003484
    $t
    i.MIC_Open
    MIC_Open
        0x000042dc:    b570        p.      PUSH     {r4-r6,lr}
        0x000042de:    4823        #H      LDR      r0,[pc,#140] ; [0x436c] = 0x4003fe1c
        0x000042e0:    f7fffc5a    ..Z.    BL       CLK_EnableModuleClock ; 0x3b98
        0x000042e4:    4822        "H      LDR      r0,[pc,#136] ; [0x4370] = 0x4000001e
        0x000042e6:    f7fffc57    ..W.    BL       CLK_EnableModuleClock ; 0x3b98
        0x000042ea:    4822        "H      LDR      r0,[pc,#136] ; [0x4374] = 0x400001c
        0x000042ec:    f000fe7c    ..|.    BL       SYS_ResetModule ; 0x4fe8
        0x000042f0:    4c21        !L      LDR      r4,[pc,#132] ; [0x4378] = 0x40080040
        0x000042f2:    6a60        `j      LDR      r0,[r4,#0x24]
        0x000042f4:    0940        @.      LSRS     r0,r0,#5
        0x000042f6:    0140        @.      LSLS     r0,r0,#5
        0x000042f8:    301e        .0      ADDS     r0,r0,#0x1e
        0x000042fa:    6260        `b      STR      r0,[r4,#0x24]
        0x000042fc:    6a60        `j      LDR      r0,[r4,#0x24]
        0x000042fe:    2620         &      MOVS     r6,#0x20
        0x00004300:    4330        0C      ORRS     r0,r0,r6
        0x00004302:    6260        `b      STR      r0,[r4,#0x24]
        0x00004304:    6a60        `j      LDR      r0,[r4,#0x24]
        0x00004306:    2140        @!      MOVS     r1,#0x40
        0x00004308:    4388        .C      BICS     r0,r0,r1
        0x0000430a:    6260        `b      STR      r0,[r4,#0x24]
        0x0000430c:    6a20         j      LDR      r0,[r4,#0x20]
        0x0000430e:    0900        ..      LSRS     r0,r0,#4
        0x00004310:    0100        ..      LSLS     r0,r0,#4
        0x00004312:    300e        .0      ADDS     r0,r0,#0xe
        0x00004314:    6220         b      STR      r0,[r4,#0x20]
        0x00004316:    4819        .H      LDR      r0,[pc,#100] ; [0x437c] = 0xdc5
        0x00004318:    f7fcf8f4    ....    BL       ADC_SetPGAGaindB ; 0x504
        0x0000431c:    4916        .I      LDR      r1,[pc,#88] ; [0x4378] = 0x40080040
        0x0000431e:    2004        .       MOVS     r0,#4
        0x00004320:    3940        @9      SUBS     r1,r1,#0x40
        0x00004322:    6008        .`      STR      r0,[r1,#0]
        0x00004324:    2000        .       MOVS     r0,#0
        0x00004326:    f7fcf8bb    ....    BL       ADC_EnableMICBias ; 0x4a0
        0x0000432a:    2200        ."      MOVS     r2,#0
        0x0000432c:    4611        .F      MOV      r1,r2
        0x0000432e:    0230        0.      LSLS     r0,r6,#8
        0x00004330:    f7fcf8c0    ....    BL       ADC_SetAMUX ; 0x4b4
        0x00004334:    f7fcf8bc    ....    BL       ADC_Open ; 0x4b0
        0x00004338:    4d11        .M      LDR      r5,[pc,#68] ; [0x4380] = 0x400e0000
        0x0000433a:    6928        (i      LDR      r0,[r5,#0x10]
        0x0000433c:    2107        .!      MOVS     r1,#7
        0x0000433e:    4308        .C      ORRS     r0,r0,r1
        0x00004340:    6128        (a      STR      r0,[r5,#0x10]
        0x00004342:    6a60        `j      LDR      r0,[r4,#0x24]
        0x00004344:    43b0        .C      BICS     r0,r0,r6
        0x00004346:    6260        `b      STR      r0,[r4,#0x24]
        0x00004348:    f7fcf950    ..P.    BL       BIQFilter_Setting ; 0x5ec
        0x0000434c:    2001        .       MOVS     r0,#1
        0x0000434e:    43c0        .C      MVNS     r0,r0
        0x00004350:    6068        h`      STR      r0,[r5,#4]
        0x00004352:    6968        hi      LDR      r0,[r5,#0x14]
        0x00004354:    2101        .!      MOVS     r1,#1
        0x00004356:    4308        .C      ORRS     r0,r0,r1
        0x00004358:    6168        ha      STR      r0,[r5,#0x14]
        0x0000435a:    6928        (i      LDR      r0,[r5,#0x10]
        0x0000435c:    0040        @.      LSLS     r0,r0,#1
        0x0000435e:    0840        @.      LSRS     r0,r0,#1
        0x00004360:    6128        (a      STR      r0,[r5,#0x10]
        0x00004362:    4908        .I      LDR      r1,[pc,#32] ; [0x4384] = 0x6100224
        0x00004364:    2000        .       MOVS     r0,#0
        0x00004366:    f000fdc1    ....    BL       PdmaCtrl_Open ; 0x4eec
        0x0000436a:    bd70        p.      POP      {r4-r6,pc}
    $d
        0x0000436c:    4003fe1c    ...@    DCD    1074003484
        0x00004370:    4000001e    ...@    DCD    1073741854
        0x00004374:    0400001c    ....    DCD    67108892
        0x00004378:    40080040    @..@    DCD    1074266176
        0x0000437c:    00000dc5    ....    DCD    3525
        0x00004380:    400e0000    ...@    DCD    1074659328
        0x00004384:    06100224    $...    DCD    101712420
    $t
    i.MIC_Start
    MIC_Start
        0x00004388:    4901        .I      LDR      r1,[pc,#4] ; [0x4390] = 0x400e0000
        0x0000438a:    2001        .       MOVS     r0,#1
        0x0000438c:    6048        H`      STR      r0,[r1,#4]
        0x0000438e:    4770        pG      BX       lr
    $d
        0x00004390:    400e0000    ...@    DCD    1074659328
    $t
    i.NINJA_API_1
    NINJA_API_1
        0x00004394:    b5f0        ..      PUSH     {r4-r7,lr}
        0x00004396:    9e05        ..      LDR      r6,[sp,#0x14]
        0x00004398:    9d08        ..      LDR      r5,[sp,#0x20]
        0x0000439a:    9c09        ..      LDR      r4,[sp,#0x24]
        0x0000439c:    2800        .(      CMP      r0,#0
        0x0000439e:    d006        ..      BEQ      0x43ae ; NINJA_API_1 + 26
        0x000043a0:    2714        .'      MOVS     r7,#0x14
        0x000043a2:    5fc7        ._      LDRSH    r7,[r0,r7]
        0x000043a4:    2f07        ./      CMP      r7,#7
        0x000043a6:    da05        ..      BGE      0x43b4 ; NINJA_API_1 + 32
        0x000043a8:    2003        .       MOVS     r0,#3
        0x000043aa:    43c0        .C      MVNS     r0,r0
        0x000043ac:    bdf0        ..      POP      {r4-r7,pc}
        0x000043ae:    2000        .       MOVS     r0,#0
        0x000043b0:    43c0        .C      MVNS     r0,r0
        0x000043b2:    bdf0        ..      POP      {r4-r7,pc}
        0x000043b4:    2720         '      MOVS     r7,#0x20
        0x000043b6:    5fc7        ._      LDRSH    r7,[r0,r7]
        0x000043b8:    600f        .`      STR      r7,[r1,#0]
        0x000043ba:    2122        "!      MOVS     r1,#0x22
        0x000043bc:    5e41        A^      LDRSH    r1,[r0,r1]
        0x000043be:    6011        .`      STR      r1,[r2,#0]
        0x000043c0:    2124        $!      MOVS     r1,#0x24
        0x000043c2:    5e41        A^      LDRSH    r1,[r0,r1]
        0x000043c4:    6019        .`      STR      r1,[r3,#0]
        0x000043c6:    2126        &!      MOVS     r1,#0x26
        0x000043c8:    5e41        A^      LDRSH    r1,[r0,r1]
        0x000043ca:    6031        1`      STR      r1,[r6,#0]
        0x000043cc:    2228        ("      MOVS     r2,#0x28
        0x000043ce:    9906        ..      LDR      r1,[sp,#0x18]
        0x000043d0:    5e82        .^      LDRSH    r2,[r0,r2]
        0x000043d2:    600a        .`      STR      r2,[r1,#0]
        0x000043d4:    222c        ,"      MOVS     r2,#0x2c
        0x000043d6:    9907        ..      LDR      r1,[sp,#0x1c]
        0x000043d8:    5e82        .^      LDRSH    r2,[r0,r2]
        0x000043da:    600a        .`      STR      r2,[r1,#0]
        0x000043dc:    212e        .!      MOVS     r1,#0x2e
        0x000043de:    5e41        A^      LDRSH    r1,[r0,r1]
        0x000043e0:    6029        )`      STR      r1,[r5,#0]
        0x000043e2:    2130        0!      MOVS     r1,#0x30
        0x000043e4:    5e41        A^      LDRSH    r1,[r0,r1]
        0x000043e6:    6021        !`      STR      r1,[r4,#0]
        0x000043e8:    2132        2!      MOVS     r1,#0x32
        0x000043ea:    5e41        A^      LDRSH    r1,[r0,r1]
        0x000043ec:    980a        ..      LDR      r0,[sp,#0x28]
        0x000043ee:    6001        .`      STR      r1,[r0,#0]
        0x000043f0:    2000        .       MOVS     r0,#0
        0x000043f2:    bdf0        ..      POP      {r4-r7,pc}
    i.NINJA_API_11
    NINJA_API_11
        0x000043f4:    b5f0        ..      PUSH     {r4-r7,lr}
        0x000043f6:    b08b        ..      SUB      sp,sp,#0x2c
        0x000043f8:    4617        .F      MOV      r7,r2
        0x000043fa:    460e        .F      MOV      r6,r1
        0x000043fc:    0004        ..      MOVS     r4,r0
        0x000043fe:    d014        ..      BEQ      0x442a ; NINJA_API_11 + 54
        0x00004400:    6ca0        .l      LDR      r0,[r4,#0x48]
        0x00004402:    2800        .(      CMP      r0,#0
        0x00004404:    d020         .      BEQ      0x4448 ; NINJA_API_11 + 84
        0x00004406:    aa07        ..      ADD      r2,sp,#0x1c
        0x00004408:    2100        .!      MOVS     r1,#0
        0x0000440a:    68e0        .h      LDR      r0,[r4,#0xc]
        0x0000440c:    f7fef8f5    ....    BL       BsrEva ; 0x25fa
        0x00004410:    9807        ..      LDR      r0,[sp,#0x1c]
        0x00004412:    1045        E.      ASRS     r5,r0,#1
        0x00004414:    2f01        ./      CMP      r7,#1
        0x00004416:    dd0c        ..      BLE      0x4432 ; NINJA_API_11 + 62
        0x00004418:    4638        8F      MOV      r0,r7
        0x0000441a:    f7fcfddb    ....    BL       BsrBrad ; 0xfd4
        0x0000441e:    214d        M!      MOVS     r1,#0x4d
        0x00004420:    4348        HC      MULS     r0,r1,r0
        0x00004422:    1200        ..      ASRS     r0,r0,#8
        0x00004424:    2114        .!      MOVS     r1,#0x14
        0x00004426:    4348        HC      MULS     r0,r1,r0
        0x00004428:    e004        ..      B        0x4434 ; NINJA_API_11 + 64
        0x0000442a:    2000        .       MOVS     r0,#0
        0x0000442c:    43c0        .C      MVNS     r0,r0
        0x0000442e:    b00b        ..      ADD      sp,sp,#0x2c
        0x00004430:    bdf0        ..      POP      {r4-r7,pc}
        0x00004432:    2000        .       MOVS     r0,#0
        0x00004434:    9907        ..      LDR      r1,[sp,#0x1c]
        0x00004436:    07c9        ..      LSLS     r1,r1,#31
        0x00004438:    6ca1        .l      LDR      r1,[r4,#0x48]
        0x0000443a:    d016        ..      BEQ      0x446a ; NINJA_API_11 + 118
        0x0000443c:    006a        j.      LSLS     r2,r5,#1
        0x0000443e:    5a8b        .Z      LDRH     r3,[r1,r2]
        0x00004440:    1818        ..      ADDS     r0,r3,r0
        0x00004442:    03c0        ..      LSLS     r0,r0,#15
        0x00004444:    0c00        ..      LSRS     r0,r0,#16
        0x00004446:    5288        .R      STRH     r0,[r1,r2]
        0x00004448:    4631        1F      MOV      r1,r6
        0x0000444a:    68e0        .h      LDR      r0,[r4,#0xc]
        0x0000444c:    f7fcfcca    ....    BL       BsrAsa ; 0xde4
        0x00004450:    4622        "F      MOV      r2,r4
        0x00004452:    4605        .F      MOV      r5,r0
        0x00004454:    323c        <2      ADDS     r2,r2,#0x3c
        0x00004456:    1f11        ..      SUBS     r1,r2,#4
        0x00004458:    68e0        .h      LDR      r0,[r4,#0xc]
        0x0000445a:    f7fef8ce    ....    BL       BsrEva ; 0x25fa
        0x0000445e:    2d00        .-      CMP      r5,#0
        0x00004460:    da05        ..      BGE      0x446e ; NINJA_API_11 + 122
        0x00004462:    4628        (F      MOV      r0,r5
        0x00004464:    300b        .0      ADDS     r0,r0,#0xb
        0x00004466:    d002        ..      BEQ      0x446e ; NINJA_API_11 + 122
        0x00004468:    e06c        l.      B        0x4544 ; NINJA_API_11 + 336
        0x0000446a:    006a        j.      LSLS     r2,r5,#1
        0x0000446c:    e7eb        ..      B        0x4446 ; NINJA_API_11 + 82
        0x0000446e:    4620         F      MOV      r0,r4
        0x00004470:    3020         0      ADDS     r0,r0,#0x20
        0x00004472:    9000        ..      STR      r0,[sp,#0]
        0x00004474:    4623        #F      MOV      r3,r4
        0x00004476:    2200        ."      MOVS     r2,#0
        0x00004478:    3340        @3      ADDS     r3,r3,#0x40
        0x0000447a:    4611        .F      MOV      r1,r2
        0x0000447c:    68e0        .h      LDR      r0,[r4,#0xc]
        0x0000447e:    f7fdfe23    ..#.    BL       BsrEli ; 0x20c8
        0x00004482:    ab0a        ..      ADD      r3,sp,#0x28
        0x00004484:    aa02        ..      ADD      r2,sp,#8
        0x00004486:    a901        ..      ADD      r1,sp,#4
        0x00004488:    4620         F      MOV      r0,r4
        0x0000448a:    f7fefe59    ..Y.    BL       BsrJoel ; 0x3140
        0x0000448e:    9902        ..      LDR      r1,[sp,#8]
        0x00004490:    2900        .)      CMP      r1,#0
        0x00004492:    dc08        ..      BGT      0x44a6 ; NINJA_API_11 + 178
        0x00004494:    9901        ..      LDR      r1,[sp,#4]
        0x00004496:    2900        .)      CMP      r1,#0
        0x00004498:    dc05        ..      BGT      0x44a6 ; NINJA_API_11 + 178
        0x0000449a:    2d00        .-      CMP      r5,#0
        0x0000449c:    db01        ..      BLT      0x44a2 ; NINJA_API_11 + 174
        0x0000449e:    6ee1        .n      LDR      r1,[r4,#0x6c]
        0x000044a0:    e000        ..      B        0x44a4 ; NINJA_API_11 + 176
        0x000044a2:    6d21        !m      LDR      r1,[r4,#0x50]
        0x000044a4:    9101        ..      STR      r1,[sp,#4]
        0x000044a6:    2d00        .-      CMP      r5,#0
        0x000044a8:    db39        9.      BLT      0x451e ; NINJA_API_11 + 298
        0x000044aa:    2800        .(      CMP      r0,#0
        0x000044ac:    d037        7.      BEQ      0x451e ; NINJA_API_11 + 298
        0x000044ae:    6ee1        .n      LDR      r1,[r4,#0x6c]
        0x000044b0:    9801        ..      LDR      r0,[sp,#4]
        0x000044b2:    4281        .B      CMP      r1,r0
        0x000044b4:    dc33        3.      BGT      0x451e ; NINJA_API_11 + 298
        0x000044b6:    6ca1        .l      LDR      r1,[r4,#0x48]
        0x000044b8:    2900        .)      CMP      r1,#0
        0x000044ba:    d028        (.      BEQ      0x450e ; NINJA_API_11 + 282
        0x000044bc:    6e61        an      LDR      r1,[r4,#0x64]
        0x000044be:    1808        ..      ADDS     r0,r1,r0
        0x000044c0:    6660        `f      STR      r0,[r4,#0x64]
        0x000044c2:    6ea6        .n      LDR      r6,[r4,#0x68]
        0x000044c4:    4607        .F      MOV      r7,r0
        0x000044c6:    1c71        q.      ADDS     r1,r6,#1
        0x000044c8:    f7fbfea6    ....    BL       __aeabi_idiv ; 0x218
        0x000044cc:    2e03        ..      CMP      r6,#3
        0x000044ce:    da02        ..      BGE      0x44d6 ; NINJA_API_11 + 226
        0x000044d0:    1c76        v.      ADDS     r6,r6,#1
        0x000044d2:    66a6        .f      STR      r6,[r4,#0x68]
        0x000044d4:    e004        ..      B        0x44e0 ; NINJA_API_11 + 236
        0x000044d6:    0079        y.      LSLS     r1,r7,#1
        0x000044d8:    1879        y.      ADDS     r1,r7,r1
        0x000044da:    1c89        ..      ADDS     r1,r1,#2
        0x000044dc:    108a        ..      ASRS     r2,r1,#2
        0x000044de:    6662        bf      STR      r2,[r4,#0x64]
        0x000044e0:    2105        .!      MOVS     r1,#5
        0x000044e2:    0249        I.      LSLS     r1,r1,#9
        0x000044e4:    1a40        @.      SUBS     r0,r0,r1
        0x000044e6:    9001        ..      STR      r0,[sp,#4]
        0x000044e8:    1a40        @.      SUBS     r0,r0,r1
        0x000044ea:    210f        .!      MOVS     r1,#0xf
        0x000044ec:    9a02        ..      LDR      r2,[sp,#8]
        0x000044ee:    0249        I.      LSLS     r1,r1,#9
        0x000044f0:    1851        Q.      ADDS     r1,r2,r1
        0x000044f2:    4288        .B      CMP      r0,r1
        0x000044f4:    dd00        ..      BLE      0x44f8 ; NINJA_API_11 + 260
        0x000044f6:    4608        .F      MOV      r0,r1
        0x000044f8:    1dd1        ..      ADDS     r1,r2,#7
        0x000044fa:    31ff        .1      ADDS     r1,r1,#0xff
        0x000044fc:    31fa        .1      ADDS     r1,r1,#0xfa
        0x000044fe:    4288        .B      CMP      r0,r1
        0x00004500:    da00        ..      BGE      0x4504 ; NINJA_API_11 + 272
        0x00004502:    4608        .F      MOV      r0,r1
        0x00004504:    6ce1        .l      LDR      r1,[r4,#0x4c]
        0x00004506:    4281        .B      CMP      r1,r0
        0x00004508:    db00        ..      BLT      0x450c ; NINJA_API_11 + 280
        0x0000450a:    4608        .F      MOV      r0,r1
        0x0000450c:    66e0        .f      STR      r0,[r4,#0x6c]
        0x0000450e:    68e0        .h      LDR      r0,[r4,#0xc]
        0x00004510:    f7fcfc30    ..0.    BL       BsrAri ; 0xd74
        0x00004514:    2000        .       MOVS     r0,#0
        0x00004516:    62a0        .b      STR      r0,[r4,#0x28]
        0x00004518:    65a0        .e      STR      r0,[r4,#0x58]
        0x0000451a:    4628        (F      MOV      r0,r5
        0x0000451c:    e787        ..      B        0x442e ; NINJA_API_11 + 58
        0x0000451e:    69e0        .i      LDR      r0,[r4,#0x1c]
        0x00004520:    2800        .(      CMP      r0,#0
        0x00004522:    d00f        ..      BEQ      0x4544 ; NINJA_API_11 + 336
        0x00004524:    2d00        .-      CMP      r5,#0
        0x00004526:    da04        ..      BGE      0x4532 ; NINJA_API_11 + 318
        0x00004528:    6d20         m      LDR      r0,[r4,#0x50]
        0x0000452a:    9901        ..      LDR      r1,[sp,#4]
        0x0000452c:    4288        .B      CMP      r0,r1
        0x0000452e:    dd03        ..      BLE      0x4538 ; NINJA_API_11 + 324
        0x00004530:    e008        ..      B        0x4544 ; NINJA_API_11 + 336
        0x00004532:    2003        .       MOVS     r0,#3
        0x00004534:    43c0        .C      MVNS     r0,r0
        0x00004536:    6220         b      STR      r0,[r4,#0x20]
        0x00004538:    68e0        .h      LDR      r0,[r4,#0xc]
        0x0000453a:    f7fcfc1b    ....    BL       BsrAri ; 0xd74
        0x0000453e:    2014        .       MOVS     r0,#0x14
        0x00004540:    43c0        .C      MVNS     r0,r0
        0x00004542:    e774        t.      B        0x442e ; NINJA_API_11 + 58
        0x00004544:    2002        .       MOVS     r0,#2
        0x00004546:    43c0        .C      MVNS     r0,r0
        0x00004548:    e771        q.      B        0x442e ; NINJA_API_11 + 58
    i.NINJA_API_13
    NINJA_API_13
        0x0000454a:    b5f7        ..      PUSH     {r0-r2,r4-r7,lr}
        0x0000454c:    b0a8        ..      SUB      sp,sp,#0xa0
        0x0000454e:    4617        .F      MOV      r7,r2
        0x00004550:    0004        ..      MOVS     r4,r0
        0x00004552:    d04c        L.      BEQ      0x45ee ; NINJA_API_13 + 164
        0x00004554:    6966        fi      LDR      r6,[r4,#0x14]
        0x00004556:    69a0        .i      LDR      r0,[r4,#0x18]
        0x00004558:    9003        ..      STR      r0,[sp,#0xc]
        0x0000455a:    1a30        0.      SUBS     r0,r6,r0
        0x0000455c:    9002        ..      STR      r0,[sp,#8]
        0x0000455e:    2000        .       MOVS     r0,#0
        0x00004560:    6b22        "k      LDR      r2,[r4,#0x30]
        0x00004562:    1ab1        ..      SUBS     r1,r6,r2
        0x00004564:    1845        E.      ADDS     r5,r0,r1
        0x00004566:    42bd        .B      CMP      r5,r7
        0x00004568:    dc47        G.      BGT      0x45fa ; NINJA_API_13 + 176
        0x0000456a:    6ae3        .j      LDR      r3,[r4,#0x2c]
        0x0000456c:    0052        R.      LSLS     r2,r2,#1
        0x0000456e:    189b        ..      ADDS     r3,r3,r2
        0x00004570:    004a        J.      LSLS     r2,r1,#1
        0x00004572:    0041        A.      LSLS     r1,r0,#1
        0x00004574:    9829        ).      LDR      r0,[sp,#0xa4]
        0x00004576:    1809        ..      ADDS     r1,r1,r0
        0x00004578:    4618        .F      MOV      r0,r3
        0x0000457a:    f7fefebb    ....    BL       BsrJose ; 0x32f4
        0x0000457e:    6a60        `j      LDR      r0,[r4,#0x24]
        0x00004580:    9000        ..      STR      r0,[sp,#0]
        0x00004582:    ab01        ..      ADD      r3,sp,#4
        0x00004584:    aa04        ..      ADD      r2,sp,#0x10
        0x00004586:    6ae1        .j      LDR      r1,[r4,#0x2c]
        0x00004588:    6860        `h      LDR      r0,[r4,#4]
        0x0000458a:    f7fcfa74    ..t.    BL       BsrAmos ; 0xa76
        0x0000458e:    9000        ..      STR      r0,[sp,#0]
        0x00004590:    6ca0        .l      LDR      r0,[r4,#0x48]
        0x00004592:    2800        .(      CMP      r0,#0
        0x00004594:    d004        ..      BEQ      0x45a0 ; NINJA_API_13 + 86
        0x00004596:    4631        1F      MOV      r1,r6
        0x00004598:    6ae0        .j      LDR      r0,[r4,#0x2c]
        0x0000459a:    f7fefe77    ..w.    BL       BsrJoey ; 0x328c
        0x0000459e:    9001        ..      STR      r0,[sp,#4]
        0x000045a0:    2000        .       MOVS     r0,#0
        0x000045a2:    6260        `b      STR      r0,[r4,#0x24]
        0x000045a4:    9800        ..      LDR      r0,[sp,#0]
        0x000045a6:    2800        .(      CMP      r0,#0
        0x000045a8:    dd15        ..      BLE      0x45d6 ; NINJA_API_13 + 140
        0x000045aa:    6aa0        .j      LDR      r0,[r4,#0x28]
        0x000045ac:    2800        .(      CMP      r0,#0
        0x000045ae:    d022        ".      BEQ      0x45f6 ; NINJA_API_13 + 172
        0x000045b0:    2300        .#      MOVS     r3,#0
        0x000045b2:    68a0        .h      LDR      r0,[r4,#8]
        0x000045b4:    a904        ..      ADD      r1,sp,#0x10
        0x000045b6:    9a00        ..      LDR      r2,[sp,#0]
        0x000045b8:    f7fffa0a    ....    BL       BsrRon ; 0x39d0
        0x000045bc:    68a0        .h      LDR      r0,[r4,#8]
        0x000045be:    f7fff9ff    ....    BL       BsrRey ; 0x39c0
        0x000045c2:    6aa0        .j      LDR      r0,[r4,#0x28]
        0x000045c4:    a904        ..      ADD      r1,sp,#0x10
        0x000045c6:    1c40        @.      ADDS     r0,r0,#1
        0x000045c8:    62a0        .b      STR      r0,[r4,#0x28]
        0x000045ca:    4620         F      MOV      r0,r4
        0x000045cc:    9a01        ..      LDR      r2,[sp,#4]
        0x000045ce:    f7ffff11    ....    BL       NINJA_API_11 ; 0x43f4
        0x000045d2:    1cc1        ..      ADDS     r1,r0,#3
        0x000045d4:    d10d        ..      BNE      0x45f2 ; NINJA_API_13 + 168
        0x000045d6:    9903        ..      LDR      r1,[sp,#0xc]
        0x000045d8:    6ae0        .j      LDR      r0,[r4,#0x2c]
        0x000045da:    9a02        ..      LDR      r2,[sp,#8]
        0x000045dc:    0049        I.      LSLS     r1,r1,#1
        0x000045de:    1841        A.      ADDS     r1,r0,r1
        0x000045e0:    0052        R.      LSLS     r2,r2,#1
        0x000045e2:    f7fefe87    ....    BL       BsrJose ; 0x32f4
        0x000045e6:    9802        ..      LDR      r0,[sp,#8]
        0x000045e8:    6320         c      STR      r0,[r4,#0x30]
        0x000045ea:    4628        (F      MOV      r0,r5
        0x000045ec:    e7b8        ..      B        0x4560 ; NINJA_API_13 + 22
        0x000045ee:    2000        .       MOVS     r0,#0
        0x000045f0:    43c0        .C      MVNS     r0,r0
        0x000045f2:    b02b        +.      ADD      sp,sp,#0xac
        0x000045f4:    bdf0        ..      POP      {r4-r7,pc}
        0x000045f6:    2301        .#      MOVS     r3,#1
        0x000045f8:    e7db        ..      B        0x45b2 ; NINJA_API_13 + 104
        0x000045fa:    1a3d        =.      SUBS     r5,r7,r0
        0x000045fc:    2d00        .-      CMP      r5,#0
        0x000045fe:    dd0c        ..      BLE      0x461a ; NINJA_API_13 + 208
        0x00004600:    6ae1        .j      LDR      r1,[r4,#0x2c]
        0x00004602:    0052        R.      LSLS     r2,r2,#1
        0x00004604:    188b        ..      ADDS     r3,r1,r2
        0x00004606:    0041        A.      LSLS     r1,r0,#1
        0x00004608:    9829        ).      LDR      r0,[sp,#0xa4]
        0x0000460a:    006a        j.      LSLS     r2,r5,#1
        0x0000460c:    1809        ..      ADDS     r1,r1,r0
        0x0000460e:    4618        .F      MOV      r0,r3
        0x00004610:    f7fefe70    ..p.    BL       BsrJose ; 0x32f4
        0x00004614:    6b20         k      LDR      r0,[r4,#0x30]
        0x00004616:    1940        @.      ADDS     r0,r0,r5
        0x00004618:    6320         c      STR      r0,[r4,#0x30]
        0x0000461a:    2002        .       MOVS     r0,#2
        0x0000461c:    43c0        .C      MVNS     r0,r0
        0x0000461e:    e7e8        ..      B        0x45f2 ; NINJA_API_13 + 168
    i.NINJA_API_15
    NINJA_API_15
        0x00004620:    b510        ..      PUSH     {r4,lr}
        0x00004622:    2800        .(      CMP      r0,#0
        0x00004624:    d006        ..      BEQ      0x4634 ; NINJA_API_15 + 20
        0x00004626:    68c0        .h      LDR      r0,[r0,#0xc]
        0x00004628:    f7fdfaee    ....    BL       BsrDan ; 0x1c08
        0x0000462c:    1c40        @.      ADDS     r0,r0,#1
        0x0000462e:    d004        ..      BEQ      0x463a ; NINJA_API_15 + 26
        0x00004630:    2000        .       MOVS     r0,#0
        0x00004632:    bd10        ..      POP      {r4,pc}
        0x00004634:    2000        .       MOVS     r0,#0
        0x00004636:    43c0        .C      MVNS     r0,r0
        0x00004638:    bd10        ..      POP      {r4,pc}
        0x0000463a:    200c        .       MOVS     r0,#0xc
        0x0000463c:    43c0        .C      MVNS     r0,r0
        0x0000463e:    bd10        ..      POP      {r4,pc}
    i.NINJA_API_16
    NINJA_API_16
        0x00004640:    b510        ..      PUSH     {r4,lr}
        0x00004642:    2800        .(      CMP      r0,#0
        0x00004644:    d006        ..      BEQ      0x4654 ; NINJA_API_16 + 20
        0x00004646:    68c0        .h      LDR      r0,[r0,#0xc]
        0x00004648:    f7fef8ac    ....    BL       BsrGuy ; 0x27a4
        0x0000464c:    1c40        @.      ADDS     r0,r0,#1
        0x0000464e:    d004        ..      BEQ      0x465a ; NINJA_API_16 + 26
        0x00004650:    2000        .       MOVS     r0,#0
        0x00004652:    bd10        ..      POP      {r4,pc}
        0x00004654:    2000        .       MOVS     r0,#0
        0x00004656:    43c0        .C      MVNS     r0,r0
        0x00004658:    bd10        ..      POP      {r4,pc}
        0x0000465a:    200c        .       MOVS     r0,#0xc
        0x0000465c:    43c0        .C      MVNS     r0,r0
        0x0000465e:    bd10        ..      POP      {r4,pc}
    i.NINJA_API_18
    NINJA_API_18
        0x00004660:    b510        ..      PUSH     {r4,lr}
        0x00004662:    2800        .(      CMP      r0,#0
        0x00004664:    d008        ..      BEQ      0x4678 ; NINJA_API_18 + 24
        0x00004666:    68c0        .h      LDR      r0,[r0,#0xc]
        0x00004668:    f7fef970    ..p.    BL       BsrIvy ; 0x294c
        0x0000466c:    1c41        A.      ADDS     r1,r0,#1
        0x0000466e:    d006        ..      BEQ      0x467e ; NINJA_API_18 + 30
        0x00004670:    300c        .0      ADDS     r0,r0,#0xc
        0x00004672:    d007        ..      BEQ      0x4684 ; NINJA_API_18 + 36
        0x00004674:    2000        .       MOVS     r0,#0
        0x00004676:    bd10        ..      POP      {r4,pc}
        0x00004678:    2000        .       MOVS     r0,#0
        0x0000467a:    43c0        .C      MVNS     r0,r0
        0x0000467c:    bd10        ..      POP      {r4,pc}
        0x0000467e:    200c        .       MOVS     r0,#0xc
        0x00004680:    43c0        .C      MVNS     r0,r0
        0x00004682:    bd10        ..      POP      {r4,pc}
        0x00004684:    201d        .       MOVS     r0,#0x1d
        0x00004686:    43c0        .C      MVNS     r0,r0
        0x00004688:    bd10        ..      POP      {r4,pc}
    i.NINJA_API_19
    NINJA_API_19
        0x0000468a:    b510        ..      PUSH     {r4,lr}
        0x0000468c:    2800        .(      CMP      r0,#0
        0x0000468e:    d006        ..      BEQ      0x469e ; NINJA_API_19 + 20
        0x00004690:    68c0        .h      LDR      r0,[r0,#0xc]
        0x00004692:    f7fefa04    ....    BL       BsrJan ; 0x2a9e
        0x00004696:    1c40        @.      ADDS     r0,r0,#1
        0x00004698:    d004        ..      BEQ      0x46a4 ; NINJA_API_19 + 26
        0x0000469a:    2000        .       MOVS     r0,#0
        0x0000469c:    bd10        ..      POP      {r4,pc}
        0x0000469e:    2000        .       MOVS     r0,#0
        0x000046a0:    43c0        .C      MVNS     r0,r0
        0x000046a2:    bd10        ..      POP      {r4,pc}
        0x000046a4:    200c        .       MOVS     r0,#0xc
        0x000046a6:    43c0        .C      MVNS     r0,r0
        0x000046a8:    bd10        ..      POP      {r4,pc}
    i.NINJA_API_2
    NINJA_API_2
        0x000046aa:    b510        ..      PUSH     {r4,lr}
        0x000046ac:    0004        ..      MOVS     r4,r0
        0x000046ae:    d00e        ..      BEQ      0x46ce ; NINJA_API_2 + 36
        0x000046b0:    68e0        .h      LDR      r0,[r4,#0xc]
        0x000046b2:    2800        .(      CMP      r0,#0
        0x000046b4:    d001        ..      BEQ      0x46ba ; NINJA_API_2 + 16
        0x000046b6:    f7fcfa6b    ..k.    BL       BsrAna ; 0xb90
        0x000046ba:    68a0        .h      LDR      r0,[r4,#8]
        0x000046bc:    2800        .(      CMP      r0,#0
        0x000046be:    d001        ..      BEQ      0x46c4 ; NINJA_API_2 + 26
        0x000046c0:    f7fff922    ..".    BL       BsrNia ; 0x3908
        0x000046c4:    6860        `h      LDR      r0,[r4,#4]
        0x000046c6:    2800        .(      CMP      r0,#0
        0x000046c8:    d001        ..      BEQ      0x46ce ; NINJA_API_2 + 36
        0x000046ca:    f7fcf9c7    ....    BL       BsrAmir ; 0xa5c
        0x000046ce:    2000        .       MOVS     r0,#0
        0x000046d0:    bd10        ..      POP      {r4,pc}
    i.NINJA_API_23
    NINJA_API_23
        0x000046d2:    b508        ..      PUSH     {r3,lr}
        0x000046d4:    2800        .(      CMP      r0,#0
        0x000046d6:    d00b        ..      BEQ      0x46f0 ; NINJA_API_23 + 30
        0x000046d8:    2900        .)      CMP      r1,#0
        0x000046da:    d001        ..      BEQ      0x46e0 ; NINJA_API_23 + 14
        0x000046dc:    6a02        .j      LDR      r2,[r0,#0x20]
        0x000046de:    600a        .`      STR      r2,[r1,#0]
        0x000046e0:    2100        .!      MOVS     r1,#0
        0x000046e2:    9100        ..      STR      r1,[sp,#0]
        0x000046e4:    68c0        .h      LDR      r0,[r0,#0xc]
        0x000046e6:    460b        .F      MOV      r3,r1
        0x000046e8:    460a        .F      MOV      r2,r1
        0x000046ea:    f7fdfced    ....    BL       BsrEli ; 0x20c8
        0x000046ee:    bd08        ..      POP      {r3,pc}
        0x000046f0:    2000        .       MOVS     r0,#0
        0x000046f2:    43c0        .C      MVNS     r0,r0
        0x000046f4:    bd08        ..      POP      {r3,pc}
    i.NINJA_API_26
    NINJA_API_26
        0x000046f6:    b510        ..      PUSH     {r4,lr}
        0x000046f8:    2800        .(      CMP      r0,#0
        0x000046fa:    d006        ..      BEQ      0x470a ; NINJA_API_26 + 20
        0x000046fc:    6840        @h      LDR      r0,[r0,#4]
        0x000046fe:    2800        .(      CMP      r0,#0
        0x00004700:    d006        ..      BEQ      0x4710 ; NINJA_API_26 + 26
        0x00004702:    2900        .)      CMP      r1,#0
        0x00004704:    da07        ..      BGE      0x4716 ; NINJA_API_26 + 32
        0x00004706:    2100        .!      MOVS     r1,#0
        0x00004708:    e008        ..      B        0x471c ; NINJA_API_26 + 38
        0x0000470a:    2000        .       MOVS     r0,#0
        0x0000470c:    43c0        .C      MVNS     r0,r0
        0x0000470e:    bd10        ..      POP      {r4,pc}
        0x00004710:    200a        .       MOVS     r0,#0xa
        0x00004712:    43c0        .C      MVNS     r0,r0
        0x00004714:    bd10        ..      POP      {r4,pc}
        0x00004716:    2908        .)      CMP      r1,#8
        0x00004718:    dd00        ..      BLE      0x471c ; NINJA_API_26 + 38
        0x0000471a:    2108        .!      MOVS     r1,#8
        0x0000471c:    f7fcfc00    ....    BL       BsrAyla ; 0xf20
        0x00004720:    2000        .       MOVS     r0,#0
        0x00004722:    bd10        ..      POP      {r4,pc}
    i.NINJA_API_3
    NINJA_API_3
        0x00004724:    b510        ..      PUSH     {r4,lr}
        0x00004726:    2800        .(      CMP      r0,#0
        0x00004728:    d009        ..      BEQ      0x473e ; NINJA_API_3 + 26
        0x0000472a:    2101        .!      MOVS     r1,#1
        0x0000472c:    6241        Ab      STR      r1,[r0,#0x24]
        0x0000472e:    2100        .!      MOVS     r1,#0
        0x00004730:    6281        .b      STR      r1,[r0,#0x28]
        0x00004732:    6581        .e      STR      r1,[r0,#0x58]
        0x00004734:    6301        .c      STR      r1,[r0,#0x30]
        0x00004736:    68c0        .h      LDR      r0,[r0,#0xc]
        0x00004738:    f7fcfb1c    ....    BL       BsrAri ; 0xd74
        0x0000473c:    bd10        ..      POP      {r4,pc}
        0x0000473e:    2000        .       MOVS     r0,#0
        0x00004740:    43c0        .C      MVNS     r0,r0
        0x00004742:    bd10        ..      POP      {r4,pc}
    i.NINJA_API_31
    NINJA_API_31
        0x00004744:    b510        ..      PUSH     {r4,lr}
        0x00004746:    2800        .(      CMP      r0,#0
        0x00004748:    d001        ..      BEQ      0x474e ; NINJA_API_31 + 10
        0x0000474a:    f7fff8ac    ....    BL       BsrMichelle ; 0x38a6
        0x0000474e:    bd10        ..      POP      {r4,pc}
    i.NINJA_API_43
    NINJA_API_43
        0x00004750:    b5f8        ..      PUSH     {r3-r7,lr}
        0x00004752:    4615        .F      MOV      r5,r2
        0x00004754:    460e        .F      MOV      r6,r1
        0x00004756:    0004        ..      MOVS     r4,r0
        0x00004758:    d00d        ..      BEQ      0x4776 ; NINJA_API_43 + 38
        0x0000475a:    2000        .       MOVS     r0,#0
        0x0000475c:    9000        ..      STR      r0,[sp,#0]
        0x0000475e:    4623        #F      MOV      r3,r4
        0x00004760:    2200        ."      MOVS     r2,#0
        0x00004762:    3340        @3      ADDS     r3,r3,#0x40
        0x00004764:    4611        .F      MOV      r1,r2
        0x00004766:    68e0        .h      LDR      r0,[r4,#0xc]
        0x00004768:    f7fdfcae    ....    BL       BsrEli ; 0x20c8
        0x0000476c:    2800        .(      CMP      r0,#0
        0x0000476e:    da05        ..      BGE      0x477c ; NINJA_API_43 + 44
        0x00004770:    2013        .       MOVS     r0,#0x13
        0x00004772:    43c0        .C      MVNS     r0,r0
        0x00004774:    bdf8        ..      POP      {r3-r7,pc}
        0x00004776:    2000        .       MOVS     r0,#0
        0x00004778:    43c0        .C      MVNS     r0,r0
        0x0000477a:    bdf8        ..      POP      {r3-r7,pc}
        0x0000477c:    6c62        bl      LDR      r2,[r4,#0x44]
        0x0000477e:    6c21        !l      LDR      r1,[r4,#0x40]
        0x00004780:    1a53        S.      SUBS     r3,r2,r1
        0x00004782:    d501        ..      BPL      0x4788 ; NINJA_API_43 + 56
        0x00004784:    6b61        ak      LDR      r1,[r4,#0x34]
        0x00004786:    18cb        ..      ADDS     r3,r1,r3
        0x00004788:    2e00        ..      CMP      r6,#0
        0x0000478a:    d000        ..      BEQ      0x478e ; NINJA_API_43 + 62
        0x0000478c:    6033        3`      STR      r3,[r6,#0]
        0x0000478e:    6c62        bl      LDR      r2,[r4,#0x44]
        0x00004790:    6be1        .k      LDR      r1,[r4,#0x3c]
        0x00004792:    1a89        ..      SUBS     r1,r1,r2
        0x00004794:    d501        ..      BPL      0x479a ; NINJA_API_43 + 74
        0x00004796:    6b62        bk      LDR      r2,[r4,#0x34]
        0x00004798:    1851        Q.      ADDS     r1,r2,r1
        0x0000479a:    2d00        .-      CMP      r5,#0
        0x0000479c:    d0ed        ..      BEQ      0x477a ; NINJA_API_43 + 42
        0x0000479e:    6029        )`      STR      r1,[r5,#0]
        0x000047a0:    bdf8        ..      POP      {r3-r7,pc}
    i.NINJA_API_47
    NINJA_API_47
        0x000047a2:    b5f3        ..      PUSH     {r0,r1,r4-r7,lr}
        0x000047a4:    b083        ..      SUB      sp,sp,#0xc
        0x000047a6:    0004        ..      MOVS     r4,r0
        0x000047a8:    d016        ..      BEQ      0x47d8 ; NINJA_API_47 + 54
        0x000047aa:    68a0        .h      LDR      r0,[r4,#8]
        0x000047ac:    2800        .(      CMP      r0,#0
        0x000047ae:    d017        ..      BEQ      0x47e0 ; NINJA_API_47 + 62
        0x000047b0:    6860        `h      LDR      r0,[r4,#4]
        0x000047b2:    f7fcfbc2    ....    BL       BsrBaby ; 0xf3a
        0x000047b6:    9000        ..      STR      r0,[sp,#0]
        0x000047b8:    68a0        .h      LDR      r0,[r4,#8]
        0x000047ba:    f7fff94f    ..O.    BL       BsrTed ; 0x3a5c
        0x000047be:    4607        .F      MOV      r7,r0
        0x000047c0:    9804        ..      LDR      r0,[sp,#0x10]
        0x000047c2:    2800        .(      CMP      r0,#0
        0x000047c4:    d00f        ..      BEQ      0x47e6 ; NINJA_API_47 + 68
        0x000047c6:    68a0        .h      LDR      r0,[r4,#8]
        0x000047c8:    f7fff9b1    ....    BL       BsrTre ; 0x3b2e
        0x000047cc:    9800        ..      LDR      r0,[sp,#0]
        0x000047ce:    2600        .&      MOVS     r6,#0
        0x000047d0:    0080        ..      LSLS     r0,r0,#2
        0x000047d2:    9d04        ..      LDR      r5,[sp,#0x10]
        0x000047d4:    9001        ..      STR      r0,[sp,#4]
        0x000047d6:    e013        ..      B        0x4800 ; NINJA_API_47 + 94
        0x000047d8:    2000        .       MOVS     r0,#0
        0x000047da:    43c0        .C      MVNS     r0,r0
        0x000047dc:    b005        ..      ADD      sp,sp,#0x14
        0x000047de:    bdf0        ..      POP      {r4-r7,pc}
        0x000047e0:    200b        .       MOVS     r0,#0xb
        0x000047e2:    43c0        .C      MVNS     r0,r0
        0x000047e4:    e7fa        ..      B        0x47dc ; NINJA_API_47 + 58
        0x000047e6:    9800        ..      LDR      r0,[sp,#0]
        0x000047e8:    0080        ..      LSLS     r0,r0,#2
        0x000047ea:    4378        xC      MULS     r0,r7,r0
        0x000047ec:    e7f6        ..      B        0x47dc ; NINJA_API_47 + 58
        0x000047ee:    68a0        .h      LDR      r0,[r4,#8]
        0x000047f0:    462a        *F      MOV      r2,r5
        0x000047f2:    4631        1F      MOV      r1,r6
        0x000047f4:    9b00        ..      LDR      r3,[sp,#0]
        0x000047f6:    f7fff939    ..9.    BL       BsrTia ; 0x3a6c
        0x000047fa:    9801        ..      LDR      r0,[sp,#4]
        0x000047fc:    1945        E.      ADDS     r5,r0,r5
        0x000047fe:    1c76        v.      ADDS     r6,r6,#1
        0x00004800:    42be        .B      CMP      r6,r7
        0x00004802:    dbf4        ..      BLT      0x47ee ; NINJA_API_47 + 76
        0x00004804:    9804        ..      LDR      r0,[sp,#0x10]
        0x00004806:    1a28        (.      SUBS     r0,r5,r0
        0x00004808:    e7e8        ..      B        0x47dc ; NINJA_API_47 + 58
    i.NINJA_API_48
    NINJA_API_48
        0x0000480a:    b5f0        ..      PUSH     {r4-r7,lr}
        0x0000480c:    b085        ..      SUB      sp,sp,#0x14
        0x0000480e:    460f        .F      MOV      r7,r1
        0x00004810:    0005        ..      MOVS     r5,r0
        0x00004812:    d012        ..      BEQ      0x483a ; NINJA_API_48 + 48
        0x00004814:    2f00        ./      CMP      r7,#0
        0x00004816:    d010        ..      BEQ      0x483a ; NINJA_API_48 + 48
        0x00004818:    68a8        .h      LDR      r0,[r5,#8]
        0x0000481a:    2800        .(      CMP      r0,#0
        0x0000481c:    d011        ..      BEQ      0x4842 ; NINJA_API_48 + 56
        0x0000481e:    6868        hh      LDR      r0,[r5,#4]
        0x00004820:    f7fcfb8b    ....    BL       BsrBaby ; 0xf3a
        0x00004824:    9001        ..      STR      r0,[sp,#4]
        0x00004826:    68a8        .h      LDR      r0,[r5,#8]
        0x00004828:    f7fff918    ....    BL       BsrTed ; 0x3a5c
        0x0000482c:    9003        ..      STR      r0,[sp,#0xc]
        0x0000482e:    9801        ..      LDR      r0,[sp,#4]
        0x00004830:    2600        .&      MOVS     r6,#0
        0x00004832:    0080        ..      LSLS     r0,r0,#2
        0x00004834:    463c        <F      MOV      r4,r7
        0x00004836:    9002        ..      STR      r0,[sp,#8]
        0x00004838:    e011        ..      B        0x485e ; NINJA_API_48 + 84
        0x0000483a:    2000        .       MOVS     r0,#0
        0x0000483c:    43c0        .C      MVNS     r0,r0
        0x0000483e:    b005        ..      ADD      sp,sp,#0x14
        0x00004840:    bdf0        ..      POP      {r4-r7,pc}
        0x00004842:    200b        .       MOVS     r0,#0xb
        0x00004844:    43c0        .C      MVNS     r0,r0
        0x00004846:    e7fa        ..      B        0x483e ; NINJA_API_48 + 52
        0x00004848:    2000        .       MOVS     r0,#0
        0x0000484a:    9000        ..      STR      r0,[sp,#0]
        0x0000484c:    68a8        .h      LDR      r0,[r5,#8]
        0x0000484e:    4622        "F      MOV      r2,r4
        0x00004850:    4631        1F      MOV      r1,r6
        0x00004852:    9b01        ..      LDR      r3,[sp,#4]
        0x00004854:    f7fff92d    ..-.    BL       BsrTom ; 0x3ab2
        0x00004858:    9802        ..      LDR      r0,[sp,#8]
        0x0000485a:    1904        ..      ADDS     r4,r0,r4
        0x0000485c:    1c76        v.      ADDS     r6,r6,#1
        0x0000485e:    9803        ..      LDR      r0,[sp,#0xc]
        0x00004860:    4286        .B      CMP      r6,r0
        0x00004862:    dbf1        ..      BLT      0x4848 ; NINJA_API_48 + 62
        0x00004864:    1be0        ..      SUBS     r0,r4,r7
        0x00004866:    e7ea        ..      B        0x483e ; NINJA_API_48 + 52
    i.NINJA_API_55
    NINJA_API_55
        0x00004868:    b570        p.      PUSH     {r4-r6,lr}
        0x0000486a:    0004        ..      MOVS     r4,r0
        0x0000486c:    d009        ..      BEQ      0x4882 ; NINJA_API_55 + 26
        0x0000486e:    2900        .)      CMP      r1,#0
        0x00004870:    d00a        ..      BEQ      0x4888 ; NINJA_API_55 + 32
        0x00004872:    6ea2        .n      LDR      r2,[r4,#0x68]
        0x00004874:    2a00        .*      CMP      r2,#0
        0x00004876:    dd02        ..      BLE      0x487e ; NINJA_API_55 + 22
        0x00004878:    6e20         n      LDR      r0,[r4,#0x60]
        0x0000487a:    2800        .(      CMP      r0,#0
        0x0000487c:    dc06        ..      BGT      0x488c ; NINJA_API_55 + 36
        0x0000487e:    2000        .       MOVS     r0,#0
        0x00004880:    bd70        p.      POP      {r4-r6,pc}
        0x00004882:    2000        .       MOVS     r0,#0
        0x00004884:    43c0        .C      MVNS     r0,r0
        0x00004886:    bd70        p.      POP      {r4-r6,pc}
        0x00004888:    200c        .       MOVS     r0,#0xc
        0x0000488a:    bd70        p.      POP      {r4-r6,pc}
        0x0000488c:    460d        .F      MOV      r5,r1
        0x0000488e:    4611        .F      MOV      r1,r2
        0x00004890:    6e60        `n      LDR      r0,[r4,#0x64]
        0x00004892:    f7fbfcc1    ....    BL       __aeabi_idiv ; 0x218
        0x00004896:    6028        (`      STR      r0,[r5,#0]
        0x00004898:    6e21        !n      LDR      r1,[r4,#0x60]
        0x0000489a:    6de0        .m      LDR      r0,[r4,#0x5c]
        0x0000489c:    f7fbfcbc    ....    BL       __aeabi_idiv ; 0x218
        0x000048a0:    6068        h`      STR      r0,[r5,#4]
        0x000048a2:    6ee0        .n      LDR      r0,[r4,#0x6c]
        0x000048a4:    60a8        .`      STR      r0,[r5,#8]
        0x000048a6:    e7ef        ..      B        0x4888 ; NINJA_API_55 + 32
    i.NINJA_API_56
    NINJA_API_56
        0x000048a8:    2800        .(      CMP      r0,#0
        0x000048aa:    d009        ..      BEQ      0x48c0 ; NINJA_API_56 + 24
        0x000048ac:    2900        .)      CMP      r1,#0
        0x000048ae:    d007        ..      BEQ      0x48c0 ; NINJA_API_56 + 24
        0x000048b0:    680a        .h      LDR      r2,[r1,#0]
        0x000048b2:    2a00        .*      CMP      r2,#0
        0x000048b4:    dd02        ..      BLE      0x48bc ; NINJA_API_56 + 20
        0x000048b6:    684a        Jh      LDR      r2,[r1,#4]
        0x000048b8:    2a00        .*      CMP      r2,#0
        0x000048ba:    dc04        ..      BGT      0x48c6 ; NINJA_API_56 + 30
        0x000048bc:    2000        .       MOVS     r0,#0
        0x000048be:    4770        pG      BX       lr
        0x000048c0:    2000        .       MOVS     r0,#0
        0x000048c2:    43c0        .C      MVNS     r0,r0
        0x000048c4:    4770        pG      BX       lr
        0x000048c6:    2201        ."      MOVS     r2,#1
        0x000048c8:    6682        .f      STR      r2,[r0,#0x68]
        0x000048ca:    680b        .h      LDR      r3,[r1,#0]
        0x000048cc:    6643        Cf      STR      r3,[r0,#0x64]
        0x000048ce:    6602        .f      STR      r2,[r0,#0x60]
        0x000048d0:    684a        Jh      LDR      r2,[r1,#4]
        0x000048d2:    65c2        .e      STR      r2,[r0,#0x5c]
        0x000048d4:    688a        .h      LDR      r2,[r1,#8]
        0x000048d6:    6cc1        .l      LDR      r1,[r0,#0x4c]
        0x000048d8:    428a        .B      CMP      r2,r1
        0x000048da:    dd00        ..      BLE      0x48de ; NINJA_API_56 + 54
        0x000048dc:    4611        .F      MOV      r1,r2
        0x000048de:    66c1        .f      STR      r1,[r0,#0x6c]
        0x000048e0:    200c        .       MOVS     r0,#0xc
        0x000048e2:    4770        pG      BX       lr
    i.NINJA_API_57
    NINJA_API_57
        0x000048e4:    2800        .(      CMP      r0,#0
        0x000048e6:    d004        ..      BEQ      0x48f2 ; NINJA_API_57 + 14
        0x000048e8:    2114        .!      MOVS     r1,#0x14
        0x000048ea:    5e41        A^      LDRSH    r1,[r0,r1]
        0x000048ec:    2907        .)      CMP      r1,#7
        0x000048ee:    da01        ..      BGE      0x48f4 ; NINJA_API_57 + 16
        0x000048f0:    2000        .       MOVS     r0,#0
        0x000048f2:    4770        pG      BX       lr
        0x000048f4:    4601        .F      MOV      r1,r0
        0x000048f6:    3120         1      ADDS     r1,r1,#0x20
        0x000048f8:    2014        .       MOVS     r0,#0x14
        0x000048fa:    5e08        .^      LDRSH    r0,[r1,r0]
        0x000048fc:    4770        pG      BX       lr
        0x000048fe:    0000        ..      MOVS     r0,r0
    i.NINJA_API_8
    NINJA_API_8
        0x00004900:    b5ff        ..      PUSH     {r0-r7,lr}
        0x00004902:    b08f        ..      SUB      sp,sp,#0x3c
        0x00004904:    24ff        .$      MOVS     r4,#0xff
        0x00004906:    2100        .!      MOVS     r1,#0
        0x00004908:    3401        .4      ADDS     r4,#1
        0x0000490a:    9d18        ..      LDR      r5,[sp,#0x60]
        0x0000490c:    461e        .F      MOV      r6,r3
        0x0000490e:    9106        ..      STR      r1,[sp,#0x18]
        0x00004910:    2800        .(      CMP      r0,#0
        0x00004912:    d00c        ..      BEQ      0x492e ; NINJA_API_8 + 46
        0x00004914:    9811        ..      LDR      r0,[sp,#0x44]
        0x00004916:    2800        .(      CMP      r0,#0
        0x00004918:    dd09        ..      BLE      0x492e ; NINJA_API_8 + 46
        0x0000491a:    9810        ..      LDR      r0,[sp,#0x40]
        0x0000491c:    6807        .h      LDR      r7,[r0,#0]
        0x0000491e:    2f00        ./      CMP      r7,#0
        0x00004920:    d005        ..      BEQ      0x492e ; NINJA_API_8 + 46
        0x00004922:    2e00        ..      CMP      r6,#0
        0x00004924:    dd03        ..      BLE      0x492e ; NINJA_API_8 + 46
        0x00004926:    07f0        ..      LSLS     r0,r6,#31
        0x00004928:    d101        ..      BNE      0x492e ; NINJA_API_8 + 46
        0x0000492a:    2d00        .-      CMP      r5,#0
        0x0000492c:    dc03        ..      BGT      0x4936 ; NINJA_API_8 + 54
        0x0000492e:    2000        .       MOVS     r0,#0
        0x00004930:    43c0        .C      MVNS     r0,r0
        0x00004932:    b013        ..      ADD      sp,sp,#0x4c
        0x00004934:    bdf0        ..      POP      {r4-r7,pc}
        0x00004936:    20e1        .       MOVS     r0,#0xe1
        0x00004938:    0080        ..      LSLS     r0,r0,#2
        0x0000493a:    4285        .B      CMP      r5,r0
        0x0000493c:    dd00        ..      BLE      0x4940 ; NINJA_API_8 + 64
        0x0000493e:    4605        .F      MOV      r5,r0
        0x00004940:    ab06        ..      ADD      r3,sp,#0x18
        0x00004942:    9305        ..      STR      r3,[sp,#0x14]
        0x00004944:    aa0e        ..      ADD      r2,sp,#0x38
        0x00004946:    a90d        ..      ADD      r1,sp,#0x34
        0x00004948:    a80c        ..      ADD      r0,sp,#0x30
        0x0000494a:    ab02        ..      ADD      r3,sp,#8
        0x0000494c:    c307        ..      STM      r3!,{r0-r2}
        0x0000494e:    a90b        ..      ADD      r1,sp,#0x2c
        0x00004950:    a80a        ..      ADD      r0,sp,#0x28
        0x00004952:    9101        ..      STR      r1,[sp,#4]
        0x00004954:    9000        ..      STR      r0,[sp,#0]
        0x00004956:    ab07        ..      ADD      r3,sp,#0x1c
        0x00004958:    aa09        ..      ADD      r2,sp,#0x24
        0x0000495a:    a908        ..      ADD      r1,sp,#0x20
        0x0000495c:    4638        8F      MOV      r0,r7
        0x0000495e:    f7fffd19    ....    BL       NINJA_API_1 ; 0x4394
        0x00004962:    2800        .(      CMP      r0,#0
        0x00004964:    d103        ..      BNE      0x496e ; NINJA_API_8 + 110
        0x00004966:    9807        ..      LDR      r0,[sp,#0x1c]
        0x00004968:    2800        .(      CMP      r0,#0
        0x0000496a:    dd00        ..      BLE      0x496e ; NINJA_API_8 + 110
        0x0000496c:    4604        .F      MOV      r4,r0
        0x0000496e:    4814        .H      LDR      r0,[pc,#80] ; [0x49c0] = 0x548c
        0x00004970:    9000        ..      STR      r0,[sp,#0]
        0x00004972:    0060        `.      LSLS     r0,r4,#1
        0x00004974:    2104        .!      MOVS     r1,#4
        0x00004976:    3070        p0      ADDS     r0,r0,#0x70
        0x00004978:    1a0a        ..      SUBS     r2,r1,r0
        0x0000497a:    0792        ..      LSLS     r2,r2,#30
        0x0000497c:    0f92        ..      LSRS     r2,r2,#30
        0x0000497e:    1817        ..      ADDS     r7,r2,r0
        0x00004980:    9806        ..      LDR      r0,[sp,#0x18]
        0x00004982:    2800        .(      CMP      r0,#0
        0x00004984:    dd06        ..      BLE      0x4994 ; NINJA_API_8 + 148
        0x00004986:    0870        p.      LSRS     r0,r6,#1
        0x00004988:    0040        @.      LSLS     r0,r0,#1
        0x0000498a:    19c0        ..      ADDS     r0,r0,r7
        0x0000498c:    1a09        ..      SUBS     r1,r1,r0
        0x0000498e:    0789        ..      LSLS     r1,r1,#30
        0x00004990:    0f89        ..      LSRS     r1,r1,#30
        0x00004992:    180f        ..      ADDS     r7,r1,r0
        0x00004994:    4620         F      MOV      r0,r4
        0x00004996:    f7fcf9d3    ....    BL       BsrAnne ; 0xd40
        0x0000499a:    19c7        ..      ADDS     r7,r0,r7
        0x0000499c:    9800        ..      LDR      r0,[sp,#0]
        0x0000499e:    f7fff849    ..I.    BL       BsrRoy ; 0x3a34
        0x000049a2:    19c7        ..      ADDS     r7,r0,r7
        0x000049a4:    462b        +F      MOV      r3,r5
        0x000049a6:    4632        2F      MOV      r2,r6
        0x000049a8:    9911        ..      LDR      r1,[sp,#0x44]
        0x000049aa:    9810        ..      LDR      r0,[sp,#0x40]
        0x000049ac:    f7fcfa84    ....    BL       BsrAve ; 0xeb8
        0x000049b0:    19c5        ..      ADDS     r5,r0,r7
        0x000049b2:    4620         F      MOV      r0,r4
        0x000049b4:    351c        .5      ADDS     r5,r5,#0x1c
        0x000049b6:    f7fcf9cf    ....    BL       BsrAnnie ; 0xd58
        0x000049ba:    1940        @.      ADDS     r0,r0,r5
        0x000049bc:    e7b9        ..      B        0x4932 ; NINJA_API_8 + 50
    $d
        0x000049be:    0000        ..      DCW    0
        0x000049c0:    0000548c    .T..    DCD    21644
    $t
    i.NINJA_API_9
    NINJA_API_9
        0x000049c4:    b5ff        ..      PUSH     {r0-r7,lr}
        0x000049c6:    2400        .$      MOVS     r4,#0
        0x000049c8:    b099        ..      SUB      sp,sp,#0x64
        0x000049ca:    1ee0        ..      SUBS     r0,r4,#3
        0x000049cc:    9d25        %.      LDR      r5,[sp,#0x94]
        0x000049ce:    940a        ..      STR      r4,[sp,#0x28]
        0x000049d0:    900c        ..      STR      r0,[sp,#0x30]
        0x000049d2:    9819        ..      LDR      r0,[sp,#0x64]
        0x000049d4:    1e67        g.      SUBS     r7,r4,#1
        0x000049d6:    940e        ..      STR      r4,[sp,#0x38]
        0x000049d8:    940b        ..      STR      r4,[sp,#0x2c]
        0x000049da:    2800        .(      CMP      r0,#0
        0x000049dc:    d03f        ?.      BEQ      0x4a5e ; NINJA_API_9 + 154
        0x000049de:    981b        ..      LDR      r0,[sp,#0x6c]
        0x000049e0:    2800        .(      CMP      r0,#0
        0x000049e2:    dd3c        <.      BLE      0x4a5e ; NINJA_API_9 + 154
        0x000049e4:    981a        ..      LDR      r0,[sp,#0x68]
        0x000049e6:    6806        .h      LDR      r6,[r0,#0]
        0x000049e8:    2e00        ..      CMP      r6,#0
        0x000049ea:    d038        8.      BEQ      0x4a5e ; NINJA_API_9 + 154
        0x000049ec:    981c        ..      LDR      r0,[sp,#0x70]
        0x000049ee:    2800        .(      CMP      r0,#0
        0x000049f0:    dd35        5.      BLE      0x4a5e ; NINJA_API_9 + 154
        0x000049f2:    07c0        ..      LSLS     r0,r0,#31
        0x000049f4:    d133        3.      BNE      0x4a5e ; NINJA_API_9 + 154
        0x000049f6:    9822        ".      LDR      r0,[sp,#0x88]
        0x000049f8:    2800        .(      CMP      r0,#0
        0x000049fa:    dd30        0.      BLE      0x4a5e ; NINJA_API_9 + 154
        0x000049fc:    4601        .F      MOV      r1,r0
        0x000049fe:    20e1        .       MOVS     r0,#0xe1
        0x00004a00:    0080        ..      LSLS     r0,r0,#2
        0x00004a02:    4281        .B      CMP      r1,r0
        0x00004a04:    dd00        ..      BLE      0x4a08 ; NINJA_API_9 + 68
        0x00004a06:    9022        ".      STR      r0,[sp,#0x88]
        0x00004a08:    7b30        0{      LDRB     r0,[r6,#0xc]
        0x00004a0a:    284e        N(      CMP      r0,#0x4e
        0x00004a0c:    d114        ..      BNE      0x4a38 ; NINJA_API_9 + 116
        0x00004a0e:    7b70        p{      LDRB     r0,[r6,#0xd]
        0x00004a10:    2849        I(      CMP      r0,#0x49
        0x00004a12:    d111        ..      BNE      0x4a38 ; NINJA_API_9 + 116
        0x00004a14:    7bb0        .{      LDRB     r0,[r6,#0xe]
        0x00004a16:    284e        N(      CMP      r0,#0x4e
        0x00004a18:    d10e        ..      BNE      0x4a38 ; NINJA_API_9 + 116
        0x00004a1a:    7bf0        .{      LDRB     r0,[r6,#0xf]
        0x00004a1c:    284a        J(      CMP      r0,#0x4a
        0x00004a1e:    d10b        ..      BNE      0x4a38 ; NINJA_API_9 + 116
        0x00004a20:    7c30        0|      LDRB     r0,[r6,#0x10]
        0x00004a22:    2841        A(      CMP      r0,#0x41
        0x00004a24:    d108        ..      BNE      0x4a38 ; NINJA_API_9 + 116
        0x00004a26:    7c70        p|      LDRB     r0,[r6,#0x11]
        0x00004a28:    285f        _(      CMP      r0,#0x5f
        0x00004a2a:    d105        ..      BNE      0x4a38 ; NINJA_API_9 + 116
        0x00004a2c:    7cb0        .|      LDRB     r0,[r6,#0x12]
        0x00004a2e:    2842        B(      CMP      r0,#0x42
        0x00004a30:    d102        ..      BNE      0x4a38 ; NINJA_API_9 + 116
        0x00004a32:    7cf0        .|      LDRB     r0,[r6,#0x13]
        0x00004a34:    2853        S(      CMP      r0,#0x53
        0x00004a36:    d002        ..      BEQ      0x4a3e ; NINJA_API_9 + 122
        0x00004a38:    2003        .       MOVS     r0,#3
        0x00004a3a:    43c0        .C      MVNS     r0,r0
        0x00004a3c:    e10a        ..      B        0x4c54 ; NINJA_API_9 + 656
        0x00004a3e:    2014        .       MOVS     r0,#0x14
        0x00004a40:    5e30        0^      LDRSH    r0,[r6,r0]
        0x00004a42:    2807        .(      CMP      r0,#7
        0x00004a44:    dbf8        ..      BLT      0x4a38 ; NINJA_API_9 + 116
        0x00004a46:    b2c0        ..      UXTB     r0,r0
        0x00004a48:    2808        .(      CMP      r0,#8
        0x00004a4a:    d8f5        ..      BHI      0x4a38 ; NINJA_API_9 + 116
        0x00004a4c:    9822        ".      LDR      r0,[sp,#0x88]
        0x00004a4e:    9000        ..      STR      r0,[sp,#0]
        0x00004a50:    a819        ..      ADD      r0,sp,#0x64
        0x00004a52:    c80f        ..      LDM      r0,{r0-r3}
        0x00004a54:    f7ffff54    ..T.    BL       NINJA_API_8 ; 0x4900
        0x00004a58:    9007        ..      STR      r0,[sp,#0x1c]
        0x00004a5a:    2800        .(      CMP      r0,#0
        0x00004a5c:    dc01        ..      BGT      0x4a62 ; NINJA_API_9 + 158
        0x00004a5e:    602f        /`      STR      r7,[r5,#0]
        0x00004a60:    e0f9        ..      B        0x4c56 ; NINJA_API_9 + 658
        0x00004a62:    9823        #.      LDR      r0,[sp,#0x8c]
        0x00004a64:    2800        .(      CMP      r0,#0
        0x00004a66:    d003        ..      BEQ      0x4a70 ; NINJA_API_9 + 172
        0x00004a68:    9907        ..      LDR      r1,[sp,#0x1c]
        0x00004a6a:    9824        $.      LDR      r0,[sp,#0x90]
        0x00004a6c:    4288        .B      CMP      r0,r1
        0x00004a6e:    da02        ..      BGE      0x4a76 ; NINJA_API_9 + 178
        0x00004a70:    2001        .       MOVS     r0,#1
        0x00004a72:    43c0        .C      MVNS     r0,r0
        0x00004a74:    e0ee        ..      B        0x4c54 ; NINJA_API_9 + 656
        0x00004a76:    9c23        #.      LDR      r4,[sp,#0x8c]
        0x00004a78:    2270        p"      MOVS     r2,#0x70
        0x00004a7a:    2100        .!      MOVS     r1,#0
        0x00004a7c:    4620         F      MOV      r0,r4
        0x00004a7e:    f7fefc2e    ....    BL       BsrJohn ; 0x32de
        0x00004a82:    207d        }       MOVS     r0,#0x7d
        0x00004a84:    01c0        ..      LSLS     r0,r0,#7
        0x00004a86:    6120         a      STR      r0,[r4,#0x10]
        0x00004a88:    20ff        .       MOVS     r0,#0xff
        0x00004a8a:    3001        .0      ADDS     r0,#1
        0x00004a8c:    6160        `a      STR      r0,[r4,#0x14]
        0x00004a8e:    20a0        .       MOVS     r0,#0xa0
        0x00004a90:    61a0        .a      STR      r0,[r4,#0x18]
        0x00004a92:    2008        .       MOVS     r0,#8
        0x00004a94:    9009        ..      STR      r0,[sp,#0x24]
        0x00004a96:    20fa        .       MOVS     r0,#0xfa
        0x00004a98:    900d        ..      STR      r0,[sp,#0x34]
        0x00004a9a:    2032        2       MOVS     r0,#0x32
        0x00004a9c:    ab0e        ..      ADD      r3,sp,#0x38
        0x00004a9e:    9017        ..      STR      r0,[sp,#0x5c]
        0x00004aa0:    9305        ..      STR      r3,[sp,#0x14]
        0x00004aa2:    aa16        ..      ADD      r2,sp,#0x58
        0x00004aa4:    a915        ..      ADD      r1,sp,#0x54
        0x00004aa6:    a814        ..      ADD      r0,sp,#0x50
        0x00004aa8:    ab02        ..      ADD      r3,sp,#8
        0x00004aaa:    c307        ..      STM      r3!,{r0-r2}
        0x00004aac:    a913        ..      ADD      r1,sp,#0x4c
        0x00004aae:    a812        ..      ADD      r0,sp,#0x48
        0x00004ab0:    9101        ..      STR      r1,[sp,#4]
        0x00004ab2:    9000        ..      STR      r0,[sp,#0]
        0x00004ab4:    2718        .'      MOVS     r7,#0x18
        0x00004ab6:    ab11        ..      ADD      r3,sp,#0x44
        0x00004ab8:    aa10        ..      ADD      r2,sp,#0x40
        0x00004aba:    a90f        ..      ADD      r1,sp,#0x3c
        0x00004abc:    4630        0F      MOV      r0,r6
        0x00004abe:    f7fffc69    ..i.    BL       NINJA_API_1 ; 0x4394
        0x00004ac2:    2800        .(      CMP      r0,#0
        0x00004ac4:    d124        $.      BNE      0x4b10 ; NINJA_API_9 + 332
        0x00004ac6:    980f        ..      LDR      r0,[sp,#0x3c]
        0x00004ac8:    2800        .(      CMP      r0,#0
        0x00004aca:    dd01        ..      BLE      0x4ad0 ; NINJA_API_9 + 268
        0x00004acc:    2820         (      CMP      r0,#0x20
        0x00004ace:    d1b3        ..      BNE      0x4a38 ; NINJA_API_9 + 116
        0x00004ad0:    9810        ..      LDR      r0,[sp,#0x40]
        0x00004ad2:    2800        .(      CMP      r0,#0
        0x00004ad4:    dd00        ..      BLE      0x4ad8 ; NINJA_API_9 + 276
        0x00004ad6:    6120         a      STR      r0,[r4,#0x10]
        0x00004ad8:    9811        ..      LDR      r0,[sp,#0x44]
        0x00004ada:    2800        .(      CMP      r0,#0
        0x00004adc:    dd00        ..      BLE      0x4ae0 ; NINJA_API_9 + 284
        0x00004ade:    6160        `a      STR      r0,[r4,#0x14]
        0x00004ae0:    9812        ..      LDR      r0,[sp,#0x48]
        0x00004ae2:    2800        .(      CMP      r0,#0
        0x00004ae4:    dd00        ..      BLE      0x4ae8 ; NINJA_API_9 + 292
        0x00004ae6:    61a0        .a      STR      r0,[r4,#0x18]
        0x00004ae8:    9813        ..      LDR      r0,[sp,#0x4c]
        0x00004aea:    2800        .(      CMP      r0,#0
        0x00004aec:    dd00        ..      BLE      0x4af0 ; NINJA_API_9 + 300
        0x00004aee:    4607        .F      MOV      r7,r0
        0x00004af0:    9814        ..      LDR      r0,[sp,#0x50]
        0x00004af2:    2800        .(      CMP      r0,#0
        0x00004af4:    d000        ..      BEQ      0x4af8 ; NINJA_API_9 + 308
        0x00004af6:    900b        ..      STR      r0,[sp,#0x2c]
        0x00004af8:    9815        ..      LDR      r0,[sp,#0x54]
        0x00004afa:    2800        .(      CMP      r0,#0
        0x00004afc:    d000        ..      BEQ      0x4b00 ; NINJA_API_9 + 316
        0x00004afe:    900a        ..      STR      r0,[sp,#0x28]
        0x00004b00:    9816        ..      LDR      r0,[sp,#0x58]
        0x00004b02:    2800        .(      CMP      r0,#0
        0x00004b04:    dd00        ..      BLE      0x4b08 ; NINJA_API_9 + 324
        0x00004b06:    900d        ..      STR      r0,[sp,#0x34]
        0x00004b08:    980e        ..      LDR      r0,[sp,#0x38]
        0x00004b0a:    2800        .(      CMP      r0,#0
        0x00004b0c:    dd00        ..      BLE      0x4b10 ; NINJA_API_9 + 332
        0x00004b0e:    9017        ..      STR      r0,[sp,#0x5c]
        0x00004b10:    227d        }"      MOVS     r2,#0x7d
        0x00004b12:    01d2        ..      LSLS     r2,r2,#7
        0x00004b14:    6921        !i      LDR      r1,[r4,#0x10]
        0x00004b16:    1053        S.      ASRS     r3,r2,#1
        0x00004b18:    4291        .B      CMP      r1,r2
        0x00004b1a:    d001        ..      BEQ      0x4b20 ; NINJA_API_9 + 348
        0x00004b1c:    4299        .B      CMP      r1,r3
        0x00004b1e:    d18b        ..      BNE      0x4a38 ; NINJA_API_9 + 116
        0x00004b20:    69a0        .i      LDR      r0,[r4,#0x18]
        0x00004b22:    28a0        .(      CMP      r0,#0xa0
        0x00004b24:    d006        ..      BEQ      0x4b34 ; NINJA_API_9 + 368
        0x00004b26:    2850        P(      CMP      r0,#0x50
        0x00004b28:    d004        ..      BEQ      0x4b34 ; NINJA_API_9 + 368
        0x00004b2a:    1fc6        ..      SUBS     r6,r0,#7
        0x00004b2c:    3ef9        .>      SUBS     r6,r6,#0xf9
        0x00004b2e:    d001        ..      BEQ      0x4b34 ; NINJA_API_9 + 368
        0x00004b30:    2880        .(      CMP      r0,#0x80
        0x00004b32:    d181        ..      BNE      0x4a38 ; NINJA_API_9 + 116
        0x00004b34:    2f24        $/      CMP      r7,#0x24
        0x00004b36:    d003        ..      BEQ      0x4b40 ; NINJA_API_9 + 380
        0x00004b38:    2f18        ./      CMP      r7,#0x18
        0x00004b3a:    d001        ..      BEQ      0x4b40 ; NINJA_API_9 + 380
        0x00004b3c:    2f10        ./      CMP      r7,#0x10
        0x00004b3e:    d1c6        ..      BNE      0x4ace ; NINJA_API_9 + 266
        0x00004b40:    4291        .B      CMP      r1,r2
        0x00004b42:    d1c4        ..      BNE      0x4ace ; NINJA_API_9 + 266
        0x00004b44:    6961        ai      LDR      r1,[r4,#0x14]
        0x00004b46:    1fc8        ..      SUBS     r0,r1,#7
        0x00004b48:    38f9        .8      SUBS     r0,r0,#0xf9
        0x00004b4a:    d1c0        ..      BNE      0x4ace ; NINJA_API_9 + 266
        0x00004b4c:    2f18        ./      CMP      r7,#0x18
        0x00004b4e:    d1be        ..      BNE      0x4ace ; NINJA_API_9 + 266
        0x00004b50:    9823        #.      LDR      r0,[sp,#0x8c]
        0x00004b52:    2104        .!      MOVS     r1,#4
        0x00004b54:    3070        p0      ADDS     r0,r0,#0x70
        0x00004b56:    62e0        .b      STR      r0,[r4,#0x2c]
        0x00004b58:    6960        `i      LDR      r0,[r4,#0x14]
        0x00004b5a:    4f50        PO      LDR      r7,[pc,#320] ; [0x4c9c] = 0x548c
        0x00004b5c:    0040        @.      LSLS     r0,r0,#1
        0x00004b5e:    3070        p0      ADDS     r0,r0,#0x70
        0x00004b60:    1a0a        ..      SUBS     r2,r1,r0
        0x00004b62:    0792        ..      LSLS     r2,r2,#30
        0x00004b64:    0f92        ..      LSRS     r2,r2,#30
        0x00004b66:    1810        ..      ADDS     r0,r2,r0
        0x00004b68:    9a0e        ..      LDR      r2,[sp,#0x38]
        0x00004b6a:    2600        .&      MOVS     r6,#0
        0x00004b6c:    2a00        .*      CMP      r2,#0
        0x00004b6e:    dd0a        ..      BLE      0x4b86 ; NINJA_API_9 + 450
        0x00004b70:    9a23        #.      LDR      r2,[sp,#0x8c]
        0x00004b72:    1812        ..      ADDS     r2,r2,r0
        0x00004b74:    64a2        .d      STR      r2,[r4,#0x48]
        0x00004b76:    9a1c        ..      LDR      r2,[sp,#0x70]
        0x00004b78:    0852        R.      LSRS     r2,r2,#1
        0x00004b7a:    0052        R.      LSLS     r2,r2,#1
        0x00004b7c:    1810        ..      ADDS     r0,r2,r0
        0x00004b7e:    1a09        ..      SUBS     r1,r1,r0
        0x00004b80:    0789        ..      LSLS     r1,r1,#30
        0x00004b82:    0f89        ..      LSRS     r1,r1,#30
        0x00004b84:    1808        ..      ADDS     r0,r1,r0
        0x00004b86:    9907        ..      LDR      r1,[sp,#0x1c]
        0x00004b88:    9a23        #.      LDR      r2,[sp,#0x8c]
        0x00004b8a:    1a09        ..      SUBS     r1,r1,r0
        0x00004b8c:    1810        ..      ADDS     r0,r2,r0
        0x00004b8e:    f7fbfe43    ..C.    BL       BsrAbby ; 0x818
        0x00004b92:    2800        .(      CMP      r0,#0
        0x00004b94:    d053        S.      BEQ      0x4c3e ; NINJA_API_9 + 634
        0x00004b96:    6020         `      STR      r0,[r4,#0]
        0x00004b98:    69a2        .i      LDR      r2,[r4,#0x18]
        0x00004b9a:    6961        ai      LDR      r1,[r4,#0x14]
        0x00004b9c:    9b09        ..      LDR      r3,[sp,#0x24]
        0x00004b9e:    f7fbfeed    ....    BL       BsrAlma ; 0x97c
        0x00004ba2:    6060        ``      STR      r0,[r4,#4]
        0x00004ba4:    2800        .(      CMP      r0,#0
        0x00004ba6:    d04d        M.      BEQ      0x4c44 ; NINJA_API_9 + 640
        0x00004ba8:    990d        ..      LDR      r1,[sp,#0x34]
        0x00004baa:    2900        .)      CMP      r1,#0
        0x00004bac:    d001        ..      BEQ      0x4bb2 ; NINJA_API_9 + 494
        0x00004bae:    f7fcf8b4    ....    BL       BsrAnna ; 0xd1a
        0x00004bb2:    2301        .#      MOVS     r3,#1
        0x00004bb4:    461a        .F      MOV      r2,r3
        0x00004bb6:    6820         h      LDR      r0,[r4,#0]
        0x00004bb8:    9909        ..      LDR      r1,[sp,#0x24]
        0x00004bba:    f7fefe78    ..x.    BL       BsrMya ; 0x38ae
        0x00004bbe:    60a0        .`      STR      r0,[r4,#8]
        0x00004bc0:    2800        .(      CMP      r0,#0
        0x00004bc2:    d042        B.      BEQ      0x4c4a ; NINJA_API_9 + 646
        0x00004bc4:    4639        9F      MOV      r1,r7
        0x00004bc6:    f7fefeae    ....    BL       BsrRay ; 0x3926
        0x00004bca:    68a0        .h      LDR      r0,[r4,#8]
        0x00004bcc:    990c        ..      LDR      r1,[sp,#0x30]
        0x00004bce:    f7fefeee    ....    BL       BsrRex ; 0x39ae
        0x00004bd2:    981c        ..      LDR      r0,[sp,#0x70]
        0x00004bd4:    466a        jF      MOV      r2,sp
        0x00004bd6:    9922        ".      LDR      r1,[sp,#0x88]
        0x00004bd8:    c223        #.      STM      r2!,{r0,r1,r5}
        0x00004bda:    a919        ..      ADD      r1,sp,#0x64
        0x00004bdc:    c90e        ..      LDM      r1,{r1-r3}
        0x00004bde:    6820         h      LDR      r0,[r4,#0]
        0x00004be0:    f7fefdb8    ....    BL       BsrMichael ; 0x3754
        0x00004be4:    60e0        .`      STR      r0,[r4,#0xc]
        0x00004be6:    2800        .(      CMP      r0,#0
        0x00004be8:    d032        2.      BEQ      0x4c50 ; NINJA_API_9 + 652
        0x00004bea:    990b        ..      LDR      r1,[sp,#0x2c]
        0x00004bec:    2900        .)      CMP      r1,#0
        0x00004bee:    d001        ..      BEQ      0x4bf4 ; NINJA_API_9 + 560
        0x00004bf0:    f7fdf80a    ....    BL       BsrDan ; 0x1c08
        0x00004bf4:    980a        ..      LDR      r0,[sp,#0x28]
        0x00004bf6:    2800        .(      CMP      r0,#0
        0x00004bf8:    d003        ..      BEQ      0x4c02 ; NINJA_API_9 + 574
        0x00004bfa:    68e0        .h      LDR      r0,[r4,#0xc]
        0x00004bfc:    990a        ..      LDR      r1,[sp,#0x28]
        0x00004bfe:    f7fdfdd1    ....    BL       BsrGuy ; 0x27a4
        0x00004c02:    981a        ..      LDR      r0,[sp,#0x68]
        0x00004c04:    6800        .h      LDR      r0,[r0,#0]
        0x00004c06:    f7fffe6d    ..m.    BL       NINJA_API_57 ; 0x48e4
        0x00004c0a:    2800        .(      CMP      r0,#0
        0x00004c0c:    d004        ..      BEQ      0x4c18 ; NINJA_API_9 + 596
        0x00004c0e:    4620         F      MOV      r0,r4
        0x00004c10:    9a1b        ..      LDR      r2,[sp,#0x6c]
        0x00004c12:    991a        ..      LDR      r1,[sp,#0x68]
        0x00004c14:    f7fefc04    ....    BL       BsrMabel ; 0x3420
        0x00004c18:    62a6        .b      STR      r6,[r4,#0x28]
        0x00004c1a:    65a6        .e      STR      r6,[r4,#0x58]
        0x00004c1c:    6326        &c      STR      r6,[r4,#0x30]
        0x00004c1e:    2001        .       MOVS     r0,#1
        0x00004c20:    61e6        .a      STR      r6,[r4,#0x1c]
        0x00004c22:    6260        `b      STR      r0,[r4,#0x24]
        0x00004c24:    981c        ..      LDR      r0,[sp,#0x70]
        0x00004c26:    6360        `c      STR      r0,[r4,#0x34]
        0x00004c28:    9817        ..      LDR      r0,[sp,#0x5c]
        0x00004c2a:    2801        .(      CMP      r0,#1
        0x00004c2c:    dd19        ..      BLE      0x4c62 ; NINJA_API_9 + 670
        0x00004c2e:    f7fcf9d1    ....    BL       BsrBrad ; 0xfd4
        0x00004c32:    214d        M!      MOVS     r1,#0x4d
        0x00004c34:    4348        HC      MULS     r0,r1,r0
        0x00004c36:    1200        ..      ASRS     r0,r0,#8
        0x00004c38:    2114        .!      MOVS     r1,#0x14
        0x00004c3a:    4348        HC      MULS     r0,r1,r0
        0x00004c3c:    e012        ..      B        0x4c64 ; NINJA_API_9 + 672
        0x00004c3e:    2009        .       MOVS     r0,#9
        0x00004c40:    43c0        .C      MVNS     r0,r0
        0x00004c42:    e007        ..      B        0x4c54 ; NINJA_API_9 + 656
        0x00004c44:    200a        .       MOVS     r0,#0xa
        0x00004c46:    43c0        .C      MVNS     r0,r0
        0x00004c48:    e004        ..      B        0x4c54 ; NINJA_API_9 + 656
        0x00004c4a:    200b        .       MOVS     r0,#0xb
        0x00004c4c:    43c0        .C      MVNS     r0,r0
        0x00004c4e:    e001        ..      B        0x4c54 ; NINJA_API_9 + 656
        0x00004c50:    200c        .       MOVS     r0,#0xc
        0x00004c52:    43c0        .C      MVNS     r0,r0
        0x00004c54:    6028        (`      STR      r0,[r5,#0]
        0x00004c56:    4620         F      MOV      r0,r4
        0x00004c58:    f7fffd27    ..'.    BL       NINJA_API_2 ; 0x46aa
        0x00004c5c:    2000        .       MOVS     r0,#0
        0x00004c5e:    b01d        ..      ADD      sp,sp,#0x74
        0x00004c60:    bdf0        ..      POP      {r4-r7,pc}
        0x00004c62:    2000        .       MOVS     r0,#0
        0x00004c64:    64e0        .d      STR      r0,[r4,#0x4c]
        0x00004c66:    20ff        .       MOVS     r0,#0xff
        0x00004c68:    30f5        .0      ADDS     r0,r0,#0xf5
        0x00004c6a:    f7fcf9b3    ....    BL       BsrBrad ; 0xfd4
        0x00004c6e:    214d        M!      MOVS     r1,#0x4d
        0x00004c70:    4348        HC      MULS     r0,r1,r0
        0x00004c72:    1200        ..      ASRS     r0,r0,#8
        0x00004c74:    2114        .!      MOVS     r1,#0x14
        0x00004c76:    4348        HC      MULS     r0,r1,r0
        0x00004c78:    6520         e      STR      r0,[r4,#0x50]
        0x00004c7a:    4608        .F      MOV      r0,r1
        0x00004c7c:    f7fcf9aa    ....    BL       BsrBrad ; 0xfd4
        0x00004c80:    214d        M!      MOVS     r1,#0x4d
        0x00004c82:    4348        HC      MULS     r0,r1,r0
        0x00004c84:    1200        ..      ASRS     r0,r0,#8
        0x00004c86:    2114        .!      MOVS     r1,#0x14
        0x00004c88:    4348        HC      MULS     r0,r1,r0
        0x00004c8a:    6560        `e      STR      r0,[r4,#0x54]
        0x00004c8c:    6ce0        .l      LDR      r0,[r4,#0x4c]
        0x00004c8e:    66e0        .f      STR      r0,[r4,#0x6c]
        0x00004c90:    4620         F      MOV      r0,r4
        0x00004c92:    f7fffd47    ..G.    BL       NINJA_API_3 ; 0x4724
        0x00004c96:    4620         F      MOV      r0,r4
        0x00004c98:    e7e1        ..      B        0x4c5e ; NINJA_API_9 + 666
    $d
        0x00004c9a:    0000        ..      DCW    0
        0x00004c9c:    0000548c    .T..    DCD    21644
    $t
    i.PDMA_EnableInt
    PDMA_EnableInt
        0x00004ca0:    4a03        .J      LDR      r2,[pc,#12] ; [0x4cb0] = 0x50008000
        0x00004ca2:    0200        ..      LSLS     r0,r0,#8
        0x00004ca4:    1880        ..      ADDS     r0,r0,r2
        0x00004ca6:    6a02        .j      LDR      r2,[r0,#0x20]
        0x00004ca8:    430a        .C      ORRS     r2,r2,r1
        0x00004caa:    6202        .b      STR      r2,[r0,#0x20]
        0x00004cac:    4770        pG      BX       lr
    $d
        0x00004cae:    0000        ..      DCW    0
        0x00004cb0:    50008000    ...P    DCD    1342210048
    $t
    i.PDMA_IRQHandler
    PDMA_IRQHandler
        0x00004cb4:    b510        ..      PUSH     {r4,lr}
        0x00004cb6:    481c        .H      LDR      r0,[pc,#112] ; [0x4d28] = 0x50008100
        0x00004cb8:    6a41        Aj      LDR      r1,[r0,#0x24]
        0x00004cba:    2201        ."      MOVS     r2,#1
        0x00004cbc:    0509        ..      LSLS     r1,r1,#20
        0x00004cbe:    0f09        ..      LSRS     r1,r1,#28
        0x00004cc0:    2900        .)      CMP      r1,#0
        0x00004cc2:    d008        ..      BEQ      0x4cd6 ; PDMA_IRQHandler + 34
        0x00004cc4:    210f        .!      MOVS     r1,#0xf
        0x00004cc6:    0209        ..      LSLS     r1,r1,#8
        0x00004cc8:    6241        Ab      STR      r1,[r0,#0x24]
        0x00004cca:    4818        .H      LDR      r0,[pc,#96] ; [0x4d2c] = 0x20000041
        0x00004ccc:    7002        .p      STRB     r2,[r0,#0]
        0x00004cce:    4818        .H      LDR      r0,[pc,#96] ; [0x4d30] = 0x20000048
        0x00004cd0:    6801        .h      LDR      r1,[r0,#0]
        0x00004cd2:    1c49        I.      ADDS     r1,r1,#1
        0x00004cd4:    6001        .`      STR      r1,[r0,#0]
        0x00004cd6:    4817        .H      LDR      r0,[pc,#92] ; [0x4d34] = 0x50008000
        0x00004cd8:    6a41        Aj      LDR      r1,[r0,#0x24]
        0x00004cda:    0789        ..      LSLS     r1,r1,#30
        0x00004cdc:    d518        ..      BPL      0x4d10 ; PDMA_IRQHandler + 92
        0x00004cde:    2102        .!      MOVS     r1,#2
        0x00004ce0:    6241        Ab      STR      r1,[r0,#0x24]
        0x00004ce2:    4915        .I      LDR      r1,[pc,#84] ; [0x4d38] = 0x20000028
        0x00004ce4:    6808        .h      LDR      r0,[r1,#0]
        0x00004ce6:    1c40        @.      ADDS     r0,r0,#1
        0x00004ce8:    6008        .`      STR      r0,[r1,#0]
        0x00004cea:    4914        .I      LDR      r1,[pc,#80] ; [0x4d3c] = 0x20000030
        0x00004cec:    6809        .h      LDR      r1,[r1,#0]
        0x00004cee:    2900        .)      CMP      r1,#0
        0x00004cf0:    d00e        ..      BEQ      0x4d10 ; PDMA_IRQHandler + 92
        0x00004cf2:    07c4        ..      LSLS     r4,r0,#31
        0x00004cf4:    4812        .H      LDR      r0,[pc,#72] ; [0x4d40] = 0x20000034
        0x00004cf6:    4b13        .K      LDR      r3,[pc,#76] ; [0x4d44] = 0x2000002c
        0x00004cf8:    4913        .I      LDR      r1,[pc,#76] ; [0x4d48] = 0x400e0000
        0x00004cfa:    d00a        ..      BEQ      0x4d12 ; PDMA_IRQHandler + 94
        0x00004cfc:    6002        .`      STR      r2,[r0,#0]
        0x00004cfe:    6840        @h      LDR      r0,[r0,#4]
        0x00004d00:    2800        .(      CMP      r0,#0
        0x00004d02:    d000        ..      BEQ      0x4d06 ; PDMA_IRQHandler + 82
        0x00004d04:    601a        .`      STR      r2,[r3,#0]
        0x00004d06:    23a0        .#      MOVS     r3,#0xa0
        0x00004d08:    4a10        .J      LDR      r2,[pc,#64] ; [0x4d4c] = 0x20002714
        0x00004d0a:    2000        .       MOVS     r0,#0
        0x00004d0c:    f000f934    ..4.    BL       PdmaCtrl_Start ; 0x4f78
        0x00004d10:    bd10        ..      POP      {r4,pc}
        0x00004d12:    6042        B`      STR      r2,[r0,#4]
        0x00004d14:    6800        .h      LDR      r0,[r0,#0]
        0x00004d16:    2800        .(      CMP      r0,#0
        0x00004d18:    d000        ..      BEQ      0x4d1c ; PDMA_IRQHandler + 104
        0x00004d1a:    601a        .`      STR      r2,[r3,#0]
        0x00004d1c:    23a0        .#      MOVS     r3,#0xa0
        0x00004d1e:    4a0c        .J      LDR      r2,[pc,#48] ; [0x4d50] = 0x200025d4
        0x00004d20:    2000        .       MOVS     r0,#0
        0x00004d22:    f000f929    ..).    BL       PdmaCtrl_Start ; 0x4f78
        0x00004d26:    bd10        ..      POP      {r4,pc}
    $d
        0x00004d28:    50008100    ...P    DCD    1342210304
        0x00004d2c:    20000041    A..     DCD    536870977
        0x00004d30:    20000048    H..     DCD    536870984
        0x00004d34:    50008000    ...P    DCD    1342210048
        0x00004d38:    20000028    (..     DCD    536870952
        0x00004d3c:    20000030    0..     DCD    536870960
        0x00004d40:    20000034    4..     DCD    536870964
        0x00004d44:    2000002c    ,..     DCD    536870956
        0x00004d48:    400e0000    ...@    DCD    1074659328
        0x00004d4c:    20002714    .'.     DCD    536880916
        0x00004d50:    200025d4    .%.     DCD    536880596
    $t
    i.PDMA_Open
    PDMA_Open
        0x00004d54:    4902        .I      LDR      r1,[pc,#8] ; [0x4d60] = 0x50008f00
        0x00004d56:    680a        .h      LDR      r2,[r1,#0]
        0x00004d58:    0200        ..      LSLS     r0,r0,#8
        0x00004d5a:    4302        .C      ORRS     r2,r2,r0
        0x00004d5c:    600a        .`      STR      r2,[r1,#0]
        0x00004d5e:    4770        pG      BX       lr
    $d
        0x00004d60:    50008f00    ...P    DCD    1342213888
    $t
    i.PDMA_SetTransferAddr
    PDMA_SetTransferAddr
        0x00004d64:    b530        0.      PUSH     {r4,r5,lr}
        0x00004d66:    9c03        ..      LDR      r4,[sp,#0xc]
        0x00004d68:    4d05        .M      LDR      r5,[pc,#20] ; [0x4d80] = 0x50008000
        0x00004d6a:    0200        ..      LSLS     r0,r0,#8
        0x00004d6c:    1940        @.      ADDS     r0,r0,r5
        0x00004d6e:    6041        A`      STR      r1,[r0,#4]
        0x00004d70:    6083        .`      STR      r3,[r0,#8]
        0x00004d72:    6801        .h      LDR      r1,[r0,#0]
        0x00004d74:    23f0        .#      MOVS     r3,#0xf0
        0x00004d76:    4399        .C      BICS     r1,r1,r3
        0x00004d78:    4322        "C      ORRS     r2,r2,r4
        0x00004d7a:    4311        .C      ORRS     r1,r1,r2
        0x00004d7c:    6001        .`      STR      r1,[r0,#0]
        0x00004d7e:    bd30        0.      POP      {r4,r5,pc}
    $d
        0x00004d80:    50008000    ...P    DCD    1342210048
    $t
    i.PDMA_SetTransferCnt
    PDMA_SetTransferCnt
        0x00004d84:    b510        ..      PUSH     {r4,lr}
        0x00004d86:    4b0c        .K      LDR      r3,[pc,#48] ; [0x4db8] = 0x50008000
        0x00004d88:    0200        ..      LSLS     r0,r0,#8
        0x00004d8a:    18c0        ..      ADDS     r0,r0,r3
        0x00004d8c:    6803        .h      LDR      r3,[r0,#0]
        0x00004d8e:    2403        .$      MOVS     r4,#3
        0x00004d90:    04e4        ..      LSLS     r4,r4,#19
        0x00004d92:    43a3        .C      BICS     r3,r3,r4
        0x00004d94:    430b        .C      ORRS     r3,r3,r1
        0x00004d96:    6003        .`      STR      r3,[r0,#0]
        0x00004d98:    2900        .)      CMP      r1,#0
        0x00004d9a:    d008        ..      BEQ      0x4dae ; PDMA_SetTransferCnt + 42
        0x00004d9c:    2301        .#      MOVS     r3,#1
        0x00004d9e:    04db        ..      LSLS     r3,r3,#19
        0x00004da0:    1ac9        ..      SUBS     r1,r1,r3
        0x00004da2:    d007        ..      BEQ      0x4db4 ; PDMA_SetTransferCnt + 48
        0x00004da4:    4299        .B      CMP      r1,r3
        0x00004da6:    d101        ..      BNE      0x4dac ; PDMA_SetTransferCnt + 40
        0x00004da8:    0051        Q.      LSLS     r1,r2,#1
        0x00004daa:    60c1        .`      STR      r1,[r0,#0xc]
        0x00004dac:    bd10        ..      POP      {r4,pc}
        0x00004dae:    0091        ..      LSLS     r1,r2,#2
        0x00004db0:    60c1        .`      STR      r1,[r0,#0xc]
        0x00004db2:    bd10        ..      POP      {r4,pc}
        0x00004db4:    60c2        .`      STR      r2,[r0,#0xc]
        0x00004db6:    bd10        ..      POP      {r4,pc}
    $d
        0x00004db8:    50008000    ...P    DCD    1342210048
    $t
    i.PDMA_SetTransferDirection
    PDMA_SetTransferDirection
        0x00004dbc:    4a04        .J      LDR      r2,[pc,#16] ; [0x4dd0] = 0x50008000
        0x00004dbe:    0200        ..      LSLS     r0,r0,#8
        0x00004dc0:    1880        ..      ADDS     r0,r0,r2
        0x00004dc2:    6802        .h      LDR      r2,[r0,#0]
        0x00004dc4:    230c        .#      MOVS     r3,#0xc
        0x00004dc6:    439a        .C      BICS     r2,r2,r3
        0x00004dc8:    430a        .C      ORRS     r2,r2,r1
        0x00004dca:    6002        .`      STR      r2,[r0,#0]
        0x00004dcc:    4770        pG      BX       lr
    $d
        0x00004dce:    0000        ..      DCW    0
        0x00004dd0:    50008000    ...P    DCD    1342210048
    $t
    i.PDMA_SetTransferMode
    PDMA_SetTransferMode
        0x00004dd4:    b5f0        ..      PUSH     {r4-r7,lr}
        0x00004dd6:    2200        ."      MOVS     r2,#0
        0x00004dd8:    4d2a        *M      LDR      r5,[pc,#168] ; [0x4e84] = 0x50008f00
        0x00004dda:    000b        ..      MOVS     r3,r1
        0x00004ddc:    f000fad0    ....    BL       __ARM_common_switch8 ; 0x5380
    $d
        0x00004de0:    2a050b08    ...*    DCD    704973576
        0x00004de4:    31121a22    "..1    DCD    823269922
        0x00004de8:    4139        9A      DCW    16697
    $t
        0x00004dea:    6869        ih      LDR      r1,[r5,#4]
        0x00004dec:    0909        ..      LSRS     r1,r1,#4
        0x00004dee:    0109        ..      LSLS     r1,r1,#4
        0x00004df0:    4301        .C      ORRS     r1,r1,r0
        0x00004df2:    6069        i`      STR      r1,[r5,#4]
        0x00004df4:    bdf0        ..      POP      {r4-r7,pc}
        0x00004df6:    6869        ih      LDR      r1,[r5,#4]
        0x00004df8:    22f0        ."      MOVS     r2,#0xf0
        0x00004dfa:    4391        .C      BICS     r1,r1,r2
        0x00004dfc:    0100        ..      LSLS     r0,r0,#4
        0x00004dfe:    4301        .C      ORRS     r1,r1,r0
        0x00004e00:    6069        i`      STR      r1,[r5,#4]
        0x00004e02:    bdf0        ..      POP      {r4-r7,pc}
        0x00004e04:    6869        ih      LDR      r1,[r5,#4]
        0x00004e06:    220f        ."      MOVS     r2,#0xf
        0x00004e08:    0412        ..      LSLS     r2,r2,#16
        0x00004e0a:    4391        .C      BICS     r1,r1,r2
        0x00004e0c:    0400        ..      LSLS     r0,r0,#16
        0x00004e0e:    4301        .C      ORRS     r1,r1,r0
        0x00004e10:    6069        i`      STR      r1,[r5,#4]
        0x00004e12:    bdf0        ..      POP      {r4-r7,pc}
        0x00004e14:    6869        ih      LDR      r1,[r5,#4]
        0x00004e16:    220f        ."      MOVS     r2,#0xf
        0x00004e18:    0512        ..      LSLS     r2,r2,#20
        0x00004e1a:    4391        .C      BICS     r1,r1,r2
        0x00004e1c:    0500        ..      LSLS     r0,r0,#20
        0x00004e1e:    4301        .C      ORRS     r1,r1,r0
        0x00004e20:    6069        i`      STR      r1,[r5,#4]
        0x00004e22:    bdf0        ..      POP      {r4-r7,pc}
        0x00004e24:    6869        ih      LDR      r1,[r5,#4]
        0x00004e26:    220f        ."      MOVS     r2,#0xf
        0x00004e28:    0612        ..      LSLS     r2,r2,#24
        0x00004e2a:    4391        .C      BICS     r1,r1,r2
        0x00004e2c:    0600        ..      LSLS     r0,r0,#24
        0x00004e2e:    4301        .C      ORRS     r1,r1,r0
        0x00004e30:    6069        i`      STR      r1,[r5,#4]
        0x00004e32:    bdf0        ..      POP      {r4-r7,pc}
        0x00004e34:    6869        ih      LDR      r1,[r5,#4]
        0x00004e36:    0109        ..      LSLS     r1,r1,#4
        0x00004e38:    0909        ..      LSRS     r1,r1,#4
        0x00004e3a:    0700        ..      LSLS     r0,r0,#28
        0x00004e3c:    4301        .C      ORRS     r1,r1,r0
        0x00004e3e:    6069        i`      STR      r1,[r5,#4]
        0x00004e40:    bdf0        ..      POP      {r4-r7,pc}
        0x00004e42:    6869        ih      LDR      r1,[r5,#4]
        0x00004e44:    220f        ."      MOVS     r2,#0xf
        0x00004e46:    0212        ..      LSLS     r2,r2,#8
        0x00004e48:    4391        .C      BICS     r1,r1,r2
        0x00004e4a:    0200        ..      LSLS     r0,r0,#8
        0x00004e4c:    4301        .C      ORRS     r1,r1,r0
        0x00004e4e:    6069        i`      STR      r1,[r5,#4]
        0x00004e50:    bdf0        ..      POP      {r4-r7,pc}
        0x00004e52:    6869        ih      LDR      r1,[r5,#4]
        0x00004e54:    220f        ."      MOVS     r2,#0xf
        0x00004e56:    0312        ..      LSLS     r2,r2,#12
        0x00004e58:    4391        .C      BICS     r1,r1,r2
        0x00004e5a:    0300        ..      LSLS     r0,r0,#12
        0x00004e5c:    4301        .C      ORRS     r1,r1,r0
        0x00004e5e:    6069        i`      STR      r1,[r5,#4]
        0x00004e60:    bdf0        ..      POP      {r4-r7,pc}
        0x00004e62:    270f        .'      MOVS     r7,#0xf
        0x00004e64:    686e        nh      LDR      r6,[r5,#4]
        0x00004e66:    0093        ..      LSLS     r3,r2,#2
        0x00004e68:    4639        9F      MOV      r1,r7
        0x00004e6a:    4099        .@      LSLS     r1,r1,r3
        0x00004e6c:    4604        .F      MOV      r4,r0
        0x00004e6e:    400e        .@      ANDS     r6,r6,r1
        0x00004e70:    409c        .@      LSLS     r4,r4,r3
        0x00004e72:    42a6        .B      CMP      r6,r4
        0x00004e74:    d102        ..      BNE      0x4e7c ; PDMA_SetTransferMode + 168
        0x00004e76:    686b        kh      LDR      r3,[r5,#4]
        0x00004e78:    430b        .C      ORRS     r3,r3,r1
        0x00004e7a:    606b        k`      STR      r3,[r5,#4]
        0x00004e7c:    1c52        R.      ADDS     r2,r2,#1
        0x00004e7e:    2a08        .*      CMP      r2,#8
        0x00004e80:    d3f0        ..      BCC      0x4e64 ; PDMA_SetTransferMode + 144
        0x00004e82:    bdf0        ..      POP      {r4-r7,pc}
    $d
        0x00004e84:    50008f00    ...P    DCD    1342213888
    $t
    i.PDMA_Trigger
    PDMA_Trigger
        0x00004e88:    4903        .I      LDR      r1,[pc,#12] ; [0x4e98] = 0x50008000
        0x00004e8a:    0200        ..      LSLS     r0,r0,#8
        0x00004e8c:    1840        @.      ADDS     r0,r0,r1
        0x00004e8e:    6801        .h      LDR      r1,[r0,#0]
        0x00004e90:    4a02        .J      LDR      r2,[pc,#8] ; [0x4e9c] = 0x800001
        0x00004e92:    4311        .C      ORRS     r1,r1,r2
        0x00004e94:    6001        .`      STR      r1,[r0,#0]
        0x00004e96:    4770        pG      BX       lr
    $d
        0x00004e98:    50008000    ...P    DCD    1342210048
        0x00004e9c:    00800001    ....    DCD    8388609
    $t
    i.PdmaCtrl_Close
    PdmaCtrl_Close
        0x00004ea0:    4907        .I      LDR      r1,[pc,#28] ; [0x4ec0] = 0x50008000
        0x00004ea2:    0202        ..      LSLS     r2,r0,#8
        0x00004ea4:    1851        Q.      ADDS     r1,r2,r1
        0x00004ea6:    680a        .h      LDR      r2,[r1,#0]
        0x00004ea8:    0852        R.      LSRS     r2,r2,#1
        0x00004eaa:    0052        R.      LSLS     r2,r2,#1
        0x00004eac:    600a        .`      STR      r2,[r1,#0]
        0x00004eae:    4905        .I      LDR      r1,[pc,#20] ; [0x4ec4] = 0x50008f00
        0x00004eb0:    680a        .h      LDR      r2,[r1,#0]
        0x00004eb2:    2301        .#      MOVS     r3,#1
        0x00004eb4:    4083        .@      LSLS     r3,r3,r0
        0x00004eb6:    0218        ..      LSLS     r0,r3,#8
        0x00004eb8:    4382        .C      BICS     r2,r2,r0
        0x00004eba:    600a        .`      STR      r2,[r1,#0]
        0x00004ebc:    4770        pG      BX       lr
    $d
        0x00004ebe:    0000        ..      DCW    0
        0x00004ec0:    50008000    ...P    DCD    1342210048
        0x00004ec4:    50008f00    ...P    DCD    1342213888
    $t
    i.PdmaCtrl_Init
    PdmaCtrl_Init
        0x00004ec8:    b510        ..      PUSH     {r4,lr}
        0x00004eca:    2001        .       MOVS     r0,#1
        0x00004ecc:    f7fefe64    ..d.    BL       CLK_EnableModuleClock ; 0x3b98
        0x00004ed0:    2002        .       MOVS     r0,#2
        0x00004ed2:    f000f889    ....    BL       SYS_ResetModule ; 0x4fe8
        0x00004ed6:    2001        .       MOVS     r0,#1
        0x00004ed8:    4902        .I      LDR      r1,[pc,#8] ; [0x4ee4] = 0xe000e280
        0x00004eda:    0680        ..      LSLS     r0,r0,#26
        0x00004edc:    6008        .`      STR      r0,[r1,#0]
        0x00004ede:    4902        .I      LDR      r1,[pc,#8] ; [0x4ee8] = 0xe000e100
        0x00004ee0:    6008        .`      STR      r0,[r1,#0]
        0x00004ee2:    bd10        ..      POP      {r4,pc}
    $d
        0x00004ee4:    e000e280    ....    DCD    3758154368
        0x00004ee8:    e000e100    ....    DCD    3758153984
    $t
    i.PdmaCtrl_Open
    PdmaCtrl_Open
        0x00004eec:    b57c        |.      PUSH     {r2-r6,lr}
        0x00004eee:    4606        .F      MOV      r6,r0
        0x00004ef0:    460c        .F      MOV      r4,r1
        0x00004ef2:    481f        .H      LDR      r0,[pc,#124] ; [0x4f70] = 0x50008000
        0x00004ef4:    0231        1.      LSLS     r1,r6,#8
        0x00004ef6:    180d        ..      ADDS     r5,r1,r0
        0x00004ef8:    200a        .       MOVS     r0,#0xa
        0x00004efa:    9001        ..      STR      r0,[sp,#4]
        0x00004efc:    2001        .       MOVS     r0,#1
        0x00004efe:    40b0        .@      LSLS     r0,r0,r6
        0x00004f00:    f7ffff28    ..(.    BL       PDMA_Open ; 0x4d54
        0x00004f04:    6828        (h      LDR      r0,[r5,#0]
        0x00004f06:    2102        .!      MOVS     r1,#2
        0x00004f08:    4308        .C      ORRS     r0,r0,r1
        0x00004f0a:    6028        (`      STR      r0,[r5,#0]
        0x00004f0c:    9901        ..      LDR      r1,[sp,#4]
        0x00004f0e:    1e48        H.      SUBS     r0,r1,#1
        0x00004f10:    9001        ..      STR      r0,[sp,#4]
        0x00004f12:    d2fb        ..      BCS      0x4f0c ; PdmaCtrl_Open + 32
        0x00004f14:    2300        .#      MOVS     r3,#0
        0x00004f16:    0e21        !.      LSRS     r1,r4,#24
        0x00004f18:    461a        .F      MOV      r2,r3
        0x00004f1a:    4630        0F      MOV      r0,r6
        0x00004f1c:    f7ffff5a    ..Z.    BL       PDMA_SetTransferMode ; 0x4dd4
        0x00004f20:    4620         F      MOV      r0,r4
        0x00004f22:    21c0        .!      MOVS     r1,#0xc0
        0x00004f24:    4008        .@      ANDS     r0,r0,r1
        0x00004f26:    9000        ..      STR      r0,[sp,#0]
        0x00004f28:    4622        "F      MOV      r2,r4
        0x00004f2a:    2030        0       MOVS     r0,#0x30
        0x00004f2c:    4002        .@      ANDS     r2,r2,r0
        0x00004f2e:    2300        .#      MOVS     r3,#0
        0x00004f30:    4619        .F      MOV      r1,r3
        0x00004f32:    4630        0F      MOV      r0,r6
        0x00004f34:    f7ffff16    ....    BL       PDMA_SetTransferAddr ; 0x4d64
        0x00004f38:    2003        .       MOVS     r0,#3
        0x00004f3a:    4621        !F      MOV      r1,r4
        0x00004f3c:    04c0        ..      LSLS     r0,r0,#19
        0x00004f3e:    4001        .@      ANDS     r1,r1,r0
        0x00004f40:    2200        ."      MOVS     r2,#0
        0x00004f42:    4630        0F      MOV      r0,r6
        0x00004f44:    f7ffff1e    ....    BL       PDMA_SetTransferCnt ; 0x4d84
        0x00004f48:    4621        !F      MOV      r1,r4
        0x00004f4a:    200c        .       MOVS     r0,#0xc
        0x00004f4c:    4001        .@      ANDS     r1,r1,r0
        0x00004f4e:    4630        0F      MOV      r0,r6
        0x00004f50:    f7ffff34    ..4.    BL       PDMA_SetTransferDirection ; 0x4dbc
        0x00004f54:    6828        (h      LDR      r0,[r5,#0]
        0x00004f56:    210f        .!      MOVS     r1,#0xf
        0x00004f58:    0309        ..      LSLS     r1,r1,#12
        0x00004f5a:    4021        !@      ANDS     r1,r1,r4
        0x00004f5c:    4308        .C      ORRS     r0,r0,r1
        0x00004f5e:    6028        (`      STR      r0,[r5,#0]
        0x00004f60:    4804        .H      LDR      r0,[pc,#16] ; [0x4f74] = 0x503
        0x00004f62:    6268        hb      STR      r0,[r5,#0x24]
        0x00004f64:    0520         .      LSLS     r0,r4,#20
        0x00004f66:    0f01        ..      LSRS     r1,r0,#28
        0x00004f68:    4630        0F      MOV      r0,r6
        0x00004f6a:    f7fffe99    ....    BL       PDMA_EnableInt ; 0x4ca0
        0x00004f6e:    bd7c        |.      POP      {r2-r6,pc}
    $d
        0x00004f70:    50008000    ...P    DCD    1342210048
        0x00004f74:    00000503    ....    DCD    1283
    $t
    i.PdmaCtrl_Start
    PdmaCtrl_Start
        0x00004f78:    b570        p.      PUSH     {r4-r6,lr}
        0x00004f7a:    4604        .F      MOV      r4,r0
        0x00004f7c:    4610        .F      MOV      r0,r2
        0x00004f7e:    4a07        .J      LDR      r2,[pc,#28] ; [0x4f9c] = 0x50008000
        0x00004f80:    0225        %.      LSLS     r5,r4,#8
        0x00004f82:    18aa        ..      ADDS     r2,r5,r2
        0x00004f84:    6051        Q`      STR      r1,[r2,#4]
        0x00004f86:    6090        .`      STR      r0,[r2,#8]
        0x00004f88:    2101        .!      MOVS     r1,#1
        0x00004f8a:    461a        .F      MOV      r2,r3
        0x00004f8c:    0509        ..      LSLS     r1,r1,#20
        0x00004f8e:    4620         F      MOV      r0,r4
        0x00004f90:    f7fffef8    ....    BL       PDMA_SetTransferCnt ; 0x4d84
        0x00004f94:    4620         F      MOV      r0,r4
        0x00004f96:    f7ffff77    ..w.    BL       PDMA_Trigger ; 0x4e88
        0x00004f9a:    bd70        p.      POP      {r4-r6,pc}
    $d
        0x00004f9c:    50008000    ...P    DCD    1342210048
    $t
    i.PdmaCtrl_Stop
    PdmaCtrl_Stop
        0x00004fa0:    0201        ..      LSLS     r1,r0,#8
        0x00004fa2:    4803        .H      LDR      r0,[pc,#12] ; [0x4fb0] = 0x50008000
        0x00004fa4:    1808        ..      ADDS     r0,r1,r0
        0x00004fa6:    6801        .h      LDR      r1,[r0,#0]
        0x00004fa8:    0849        I.      LSRS     r1,r1,#1
        0x00004faa:    0049        I.      LSLS     r1,r1,#1
        0x00004fac:    6001        .`      STR      r1,[r0,#0]
        0x00004fae:    4770        pG      BX       lr
    $d
        0x00004fb0:    50008000    ...P    DCD    1342210048
    $t
    i.SYS_Init
    SYS_Init
        0x00004fb4:    b510        ..      PUSH     {r4,lr}
        0x00004fb6:    2004        .       MOVS     r0,#4
        0x00004fb8:    f7fefdfc    ....    BL       CLK_EnableXtalRC ; 0x3bb4
        0x00004fbc:    2000        .       MOVS     r0,#0
        0x00004fbe:    f7fefdd1    ....    BL       CLK_EnableLDO ; 0x3b64
        0x00004fc2:    4803        .H      LDR      r0,[pc,#12] ; [0x4fd0] = 0x5e800006
        0x00004fc4:    f7fefde8    ....    BL       CLK_EnableModuleClock ; 0x3b98
        0x00004fc8:    4802        .H      LDR      r0,[pc,#8] ; [0x4fd4] = 0x5ec00007
        0x00004fca:    f7fefde5    ....    BL       CLK_EnableModuleClock ; 0x3b98
        0x00004fce:    bd10        ..      POP      {r4,pc}
    $d
        0x00004fd0:    5e800006    ...^    DCD    1585446918
        0x00004fd4:    5ec00007    ...^    DCD    1589641223
    $t
    i.SYS_Lock
    SYS_Lock
        0x00004fd8:    2800        .(      CMP      r0,#0
        0x00004fda:    d002        ..      BEQ      0x4fe2 ; SYS_Lock + 10
        0x00004fdc:    4901        .I      LDR      r1,[pc,#4] ; [0x4fe4] = 0x50000100
        0x00004fde:    2000        .       MOVS     r0,#0
        0x00004fe0:    6008        .`      STR      r0,[r1,#0]
        0x00004fe2:    4770        pG      BX       lr
    $d
        0x00004fe4:    50000100    ...P    DCD    1342177536
    $t
    i.SYS_ResetModule
    SYS_ResetModule
        0x00004fe8:    2105        .!      MOVS     r1,#5
        0x00004fea:    0e02        ..      LSRS     r2,r0,#24
        0x00004fec:    0709        ..      LSLS     r1,r1,#28
        0x00004fee:    1851        Q.      ADDS     r1,r2,r1
        0x00004ff0:    688b        .h      LDR      r3,[r1,#8]
        0x00004ff2:    2201        ."      MOVS     r2,#1
        0x00004ff4:    4082        .@      LSLS     r2,r2,r0
        0x00004ff6:    4313        .C      ORRS     r3,r3,r2
        0x00004ff8:    608b        .`      STR      r3,[r1,#8]
        0x00004ffa:    6888        .h      LDR      r0,[r1,#8]
        0x00004ffc:    4390        .C      BICS     r0,r0,r2
        0x00004ffe:    6088        .`      STR      r0,[r1,#8]
        0x00005000:    4770        pG      BX       lr
        0x00005002:    0000        ..      MOVS     r0,r0
    i.SYS_Unlock
    SYS_Unlock
        0x00005004:    b510        ..      PUSH     {r4,lr}
        0x00005006:    4809        .H      LDR      r0,[pc,#36] ; [0x502c] = 0x50000100
        0x00005008:    6801        .h      LDR      r1,[r0,#0]
        0x0000500a:    07c9        ..      LSLS     r1,r1,#31
        0x0000500c:    d001        ..      BEQ      0x5012 ; SYS_Unlock + 14
        0x0000500e:    2000        .       MOVS     r0,#0
        0x00005010:    bd10        ..      POP      {r4,pc}
        0x00005012:    2159        Y!      MOVS     r1,#0x59
        0x00005014:    2216        ."      MOVS     r2,#0x16
        0x00005016:    2388        .#      MOVS     r3,#0x88
        0x00005018:    e002        ..      B        0x5020 ; SYS_Unlock + 28
        0x0000501a:    6001        .`      STR      r1,[r0,#0]
        0x0000501c:    6002        .`      STR      r2,[r0,#0]
        0x0000501e:    6003        .`      STR      r3,[r0,#0]
        0x00005020:    6804        .h      LDR      r4,[r0,#0]
        0x00005022:    2c01        .,      CMP      r4,#1
        0x00005024:    d1f9        ..      BNE      0x501a ; SYS_Unlock + 22
        0x00005026:    2001        .       MOVS     r0,#1
        0x00005028:    bd10        ..      POP      {r4,pc}
    $d
        0x0000502a:    0000        ..      DCW    0
        0x0000502c:    50000100    ...P    DCD    1342177536
    $t
    i.SetOutputPin
    SetOutputPin
        0x00005030:    2a01        .*      CMP      r2,#1
        0x00005032:    d003        ..      BEQ      0x503c ; SetOutputPin + 12
        0x00005034:    6882        .h      LDR      r2,[r0,#8]
        0x00005036:    438a        .C      BICS     r2,r2,r1
        0x00005038:    6082        .`      STR      r2,[r0,#8]
        0x0000503a:    4770        pG      BX       lr
        0x0000503c:    6882        .h      LDR      r2,[r0,#8]
        0x0000503e:    430a        .C      ORRS     r2,r2,r1
        0x00005040:    6082        .`      STR      r2,[r0,#8]
        0x00005042:    4770        pG      BX       lr
    i.SetOutputPin_0
    SetOutputPin_0
        0x00005044:    2a01        .*      CMP      r2,#1
        0x00005046:    d003        ..      BEQ      0x5050 ; SetOutputPin_0 + 12
        0x00005048:    6882        .h      LDR      r2,[r0,#8]
        0x0000504a:    438a        .C      BICS     r2,r2,r1
        0x0000504c:    6082        .`      STR      r2,[r0,#8]
        0x0000504e:    4770        pG      BX       lr
        0x00005050:    6882        .h      LDR      r2,[r0,#8]
        0x00005052:    430a        .C      ORRS     r2,r2,r1
        0x00005054:    6082        .`      STR      r2,[r0,#8]
        0x00005056:    4770        pG      BX       lr
    i.TIMER_Close
    TIMER_Close
        0x00005058:    2100        .!      MOVS     r1,#0
        0x0000505a:    6001        .`      STR      r1,[r0,#0]
        0x0000505c:    4770        pG      BX       lr
        0x0000505e:    0000        ..      MOVS     r0,r0
    i.TIMER_GetModuleClock
    TIMER_GetModuleClock
        0x00005060:    b510        ..      PUSH     {r4,lr}
        0x00005062:    b086        ..      SUB      sp,sp,#0x18
        0x00005064:    4604        .F      MOV      r4,r0
        0x00005066:    2214        ."      MOVS     r2,#0x14
        0x00005068:    490f        .I      LDR      r1,[pc,#60] ; [0x50a8] = 0x53e4
        0x0000506a:    a801        ..      ADD      r0,sp,#4
        0x0000506c:    f7fbf87a    ..z.    BL       __aeabi_memcpy4 ; 0x164
        0x00005070:    490e        .I      LDR      r1,[pc,#56] ; [0x50ac] = 0x40010000
        0x00005072:    480f        .H      LDR      r0,[pc,#60] ; [0x50b0] = 0x50000200
        0x00005074:    428c        .B      CMP      r4,r1
        0x00005076:    d103        ..      BNE      0x5080 ; TIMER_GetModuleClock + 32
        0x00005078:    6940        @i      LDR      r0,[r0,#0x14]
        0x0000507a:    0540        @.      LSLS     r0,r0,#21
        0x0000507c:    0f40        @.      LSRS     r0,r0,#29
        0x0000507e:    e006        ..      B        0x508e ; TIMER_GetModuleClock + 46
        0x00005080:    490a        .I      LDR      r1,[pc,#40] ; [0x50ac] = 0x40010000
        0x00005082:    3120         1      ADDS     r1,r1,#0x20
        0x00005084:    428c        .B      CMP      r4,r1
        0x00005086:    d109        ..      BNE      0x509c ; TIMER_GetModuleClock + 60
        0x00005088:    6940        @i      LDR      r0,[r0,#0x14]
        0x0000508a:    0440        @.      LSLS     r0,r0,#17
        0x0000508c:    0f40        @.      LSRS     r0,r0,#29
        0x0000508e:    2802        .(      CMP      r0,#2
        0x00005090:    d006        ..      BEQ      0x50a0 ; TIMER_GetModuleClock + 64
        0x00005092:    0080        ..      LSLS     r0,r0,#2
        0x00005094:    a901        ..      ADD      r1,sp,#4
        0x00005096:    5808        .X      LDR      r0,[r1,r0]
        0x00005098:    b006        ..      ADD      sp,sp,#0x18
        0x0000509a:    bd10        ..      POP      {r4,pc}
        0x0000509c:    2000        .       MOVS     r0,#0
        0x0000509e:    e7fb        ..      B        0x5098 ; TIMER_GetModuleClock + 56
        0x000050a0:    4804        .H      LDR      r0,[pc,#16] ; [0x50b4] = 0x20000000
        0x000050a2:    6800        .h      LDR      r0,[r0,#0]
        0x000050a4:    e7f8        ..      B        0x5098 ; TIMER_GetModuleClock + 56
    $d
        0x000050a6:    0000        ..      DCW    0
        0x000050a8:    000053e4    .S..    DCD    21476
        0x000050ac:    40010000    ...@    DCD    1073807360
        0x000050b0:    50000200    ...P    DCD    1342177792
        0x000050b4:    20000000    ...     DCD    536870912
    $t
    i.TIMER_Open
    TIMER_Open
        0x000050b8:    b5f7        ..      PUSH     {r0-r2,r4-r7,lr}
        0x000050ba:    4606        .F      MOV      r6,r0
        0x000050bc:    4617        .F      MOV      r7,r2
        0x000050be:    4630        0F      MOV      r0,r6
        0x000050c0:    f7ffffce    ....    BL       TIMER_GetModuleClock ; 0x5060
        0x000050c4:    4604        .F      MOV      r4,r0
        0x000050c6:    2500        .%      MOVS     r5,#0
        0x000050c8:    0860        `.      LSRS     r0,r4,#1
        0x000050ca:    42b8        .B      CMP      r0,r7
        0x000050cc:    d201        ..      BCS      0x50d2 ; TIMER_Open + 26
        0x000050ce:    2002        .       MOVS     r0,#2
        0x000050d0:    e017        ..      B        0x5102 ; TIMER_Open + 74
        0x000050d2:    2101        .!      MOVS     r1,#1
        0x000050d4:    0689        ..      LSLS     r1,r1,#26
        0x000050d6:    428c        .B      CMP      r4,r1
        0x000050d8:    d302        ..      BCC      0x50e0 ; TIMER_Open + 40
        0x000050da:    2507        .%      MOVS     r5,#7
        0x000050dc:    08e4        ..      LSRS     r4,r4,#3
        0x000050de:    e00c        ..      B        0x50fa ; TIMER_Open + 66
        0x000050e0:    2101        .!      MOVS     r1,#1
        0x000050e2:    0649        I.      LSLS     r1,r1,#25
        0x000050e4:    428c        .B      CMP      r4,r1
        0x000050e6:    d302        ..      BCC      0x50ee ; TIMER_Open + 54
        0x000050e8:    2503        .%      MOVS     r5,#3
        0x000050ea:    08a4        ..      LSRS     r4,r4,#2
        0x000050ec:    e005        ..      B        0x50fa ; TIMER_Open + 66
        0x000050ee:    2101        .!      MOVS     r1,#1
        0x000050f0:    0609        ..      LSLS     r1,r1,#24
        0x000050f2:    428c        .B      CMP      r4,r1
        0x000050f4:    d301        ..      BCC      0x50fa ; TIMER_Open + 66
        0x000050f6:    2501        .%      MOVS     r5,#1
        0x000050f8:    4604        .F      MOV      r4,r0
        0x000050fa:    4639        9F      MOV      r1,r7
        0x000050fc:    4620         F      MOV      r0,r4
        0x000050fe:    f7fbf87d    ..}.    BL       __aeabi_uidiv ; 0x1fc
        0x00005102:    9901        ..      LDR      r1,[sp,#4]
        0x00005104:    4329        )C      ORRS     r1,r1,r5
        0x00005106:    6031        1`      STR      r1,[r6,#0]
        0x00005108:    6070        p`      STR      r0,[r6,#4]
        0x0000510a:    1c6d        m.      ADDS     r5,r5,#1
        0x0000510c:    4368        hC      MULS     r0,r5,r0
        0x0000510e:    4601        .F      MOV      r1,r0
        0x00005110:    4620         F      MOV      r0,r4
        0x00005112:    f7fbf873    ..s.    BL       __aeabi_uidiv ; 0x1fc
        0x00005116:    bdfe        ..      POP      {r1-r7,pc}
    i.TMR0_IRQHandler
    TMR0_IRQHandler
        0x00005118:    b570        p.      PUSH     {r4-r6,lr}
        0x0000511a:    4c0f        .L      LDR      r4,[pc,#60] ; [0x5158] = 0x2000001c
        0x0000511c:    7820         x      LDRB     r0,[r4,#0]
        0x0000511e:    4d0f        .M      LDR      r5,[pc,#60] ; [0x515c] = 0x40010000
        0x00005120:    2800        .(      CMP      r0,#0
        0x00005122:    d009        ..      BEQ      0x5138 ; TMR0_IRQHandler + 32
        0x00005124:    8920         .      LDRH     r0,[r4,#8]
        0x00005126:    2800        .(      CMP      r0,#0
        0x00005128:    d013        ..      BEQ      0x5152 ; TMR0_IRQHandler + 58
        0x0000512a:    8920         .      LDRH     r0,[r4,#8]
        0x0000512c:    1e40        @.      SUBS     r0,r0,#1
        0x0000512e:    0400        ..      LSLS     r0,r0,#16
        0x00005130:    0c00        ..      LSRS     r0,r0,#16
        0x00005132:    8120         .      STRH     r0,[r4,#8]
        0x00005134:    d00b        ..      BEQ      0x514e ; TMR0_IRQHandler + 54
        0x00005136:    e00c        ..      B        0x5152 ; TMR0_IRQHandler + 58
        0x00005138:    6829        )h      LDR      r1,[r5,#0]
        0x0000513a:    4628        (F      MOV      r0,r5
        0x0000513c:    2201        ."      MOVS     r2,#1
        0x0000513e:    0792        ..      LSLS     r2,r2,#30
        0x00005140:    4391        .C      BICS     r1,r1,r2
        0x00005142:    6029        )`      STR      r1,[r5,#0]
        0x00005144:    f7ffff88    ....    BL       TIMER_Close ; 0x5058
        0x00005148:    2000        .       MOVS     r0,#0
        0x0000514a:    70a0        .p      STRB     r0,[r4,#2]
        0x0000514c:    e001        ..      B        0x5152 ; TMR0_IRQHandler + 58
        0x0000514e:    f000f861    ..a.    BL       Vibrate_SmartGlove ; 0x5214
        0x00005152:    2001        .       MOVS     r0,#1
        0x00005154:    60a8        .`      STR      r0,[r5,#8]
        0x00005156:    bd70        p.      POP      {r4-r6,pc}
    $d
        0x00005158:    2000001c    ...     DCD    536870940
        0x0000515c:    40010000    ...@    DCD    1073807360
    $t
    i.TMR1_IRQHandler
    TMR1_IRQHandler
        0x00005160:    b500        ..      PUSH     {lr}
        0x00005162:    4908        .I      LDR      r1,[pc,#32] ; [0x5184] = 0x2000001c
        0x00005164:    8948        H.      LDRH     r0,[r1,#0xa]
        0x00005166:    2800        .(      CMP      r0,#0
        0x00005168:    d007        ..      BEQ      0x517a ; TMR1_IRQHandler + 26
        0x0000516a:    8948        H.      LDRH     r0,[r1,#0xa]
        0x0000516c:    1e40        @.      SUBS     r0,r0,#1
        0x0000516e:    0400        ..      LSLS     r0,r0,#16
        0x00005170:    0c00        ..      LSRS     r0,r0,#16
        0x00005172:    8148        H.      STRH     r0,[r1,#0xa]
        0x00005174:    d101        ..      BNE      0x517a ; TMR1_IRQHandler + 26
        0x00005176:    f000f809    ....    BL       Toggle_Bit ; 0x518c
        0x0000517a:    4903        .I      LDR      r1,[pc,#12] ; [0x5188] = 0x40010020
        0x0000517c:    2001        .       MOVS     r0,#1
        0x0000517e:    6088        .`      STR      r0,[r1,#8]
        0x00005180:    bd00        ..      POP      {pc}
    $d
        0x00005182:    0000        ..      DCW    0
        0x00005184:    2000001c    ...     DCD    536870940
        0x00005188:    40010020     ..@    DCD    1073807392
    $t
    i.Toggle_Bit
    Toggle_Bit
        0x0000518c:    b510        ..      PUSH     {r4,lr}
        0x0000518e:    4b0c        .K      LDR      r3,[pc,#48] ; [0x51c0] = 0x2000001c
        0x00005190:    8958        X.      LDRH     r0,[r3,#0xa]
        0x00005192:    2800        .(      CMP      r0,#0
        0x00005194:    d10b        ..      BNE      0x51ae ; Toggle_Bit + 34
        0x00005196:    78d9        .x      LDRB     r1,[r3,#3]
        0x00005198:    480a        .H      LDR      r0,[pc,#40] ; [0x51c4] = 0x50004040
        0x0000519a:    240a        .$      MOVS     r4,#0xa
        0x0000519c:    2901        .)      CMP      r1,#1
        0x0000519e:    d007        ..      BEQ      0x51b0 ; Toggle_Bit + 36
        0x000051a0:    2101        .!      MOVS     r1,#1
        0x000051a2:    70d9        .p      STRB     r1,[r3,#3]
        0x000051a4:    2201        ."      MOVS     r2,#1
        0x000051a6:    4611        .F      MOV      r1,r2
        0x000051a8:    f7ffff42    ..B.    BL       SetOutputPin ; 0x5030
        0x000051ac:    815c        \.      STRH     r4,[r3,#0xa]
        0x000051ae:    bd10        ..      POP      {r4,pc}
        0x000051b0:    2100        .!      MOVS     r1,#0
        0x000051b2:    70d9        .p      STRB     r1,[r3,#3]
        0x000051b4:    2200        ."      MOVS     r2,#0
        0x000051b6:    2101        .!      MOVS     r1,#1
        0x000051b8:    f7ffff3a    ..:.    BL       SetOutputPin ; 0x5030
        0x000051bc:    815c        \.      STRH     r4,[r3,#0xa]
        0x000051be:    bd10        ..      POP      {r4,pc}
    $d
        0x000051c0:    2000001c    ...     DCD    536870940
        0x000051c4:    50004040    @@.P    DCD    1342193728
    $t
    i.UnpackBin
    UnpackBin
        0x000051c8:    b5f0        ..      PUSH     {r4-r7,lr}
        0x000051ca:    4606        .F      MOV      r6,r0
        0x000051cc:    469c        .F      MOV      r12,r3
        0x000051ce:    4634        4F      MOV      r4,r6
        0x000051d0:    cc20         .      LDM      r4!,{r5}
        0x000051d2:    00a8        ..      LSLS     r0,r5,#2
        0x000051d4:    1900        ..      ADDS     r0,r0,r4
        0x000051d6:    6008        .`      STR      r0,[r1,#0]
        0x000051d8:    2001        .       MOVS     r0,#1
        0x000051da:    e009        ..      B        0x51f0 ; UnpackBin + 40
        0x000051dc:    4290        .B      CMP      r0,r2
        0x000051de:    da09        ..      BGE      0x51f4 ; UnpackBin + 44
        0x000051e0:    1e43        C.      SUBS     r3,r0,#1
        0x000051e2:    009f        ..      LSLS     r7,r3,#2
        0x000051e4:    59cb        .Y      LDR      r3,[r1,r7]
        0x000051e6:    59e7        .Y      LDR      r7,[r4,r7]
        0x000051e8:    19df        ..      ADDS     r7,r3,r7
        0x000051ea:    0083        ..      LSLS     r3,r0,#2
        0x000051ec:    50cf        .P      STR      r7,[r1,r3]
        0x000051ee:    1c40        @.      ADDS     r0,r0,#1
        0x000051f0:    42a8        .B      CMP      r0,r5
        0x000051f2:    dbf3        ..      BLT      0x51dc ; UnpackBin + 20
        0x000051f4:    1e42        B.      SUBS     r2,r0,#1
        0x000051f6:    0092        ..      LSLS     r2,r2,#2
        0x000051f8:    5889        .X      LDR      r1,[r1,r2]
        0x000051fa:    58a2        .X      LDR      r2,[r4,r2]
        0x000051fc:    1889        ..      ADDS     r1,r1,r2
        0x000051fe:    1b89        ..      SUBS     r1,r1,r6
        0x00005200:    4a03        .J      LDR      r2,[pc,#12] ; [0x5210] = 0xfff
        0x00005202:    1889        ..      ADDS     r1,r1,r2
        0x00005204:    0b0a        ..      LSRS     r2,r1,#12
        0x00005206:    0312        ..      LSLS     r2,r2,#12
        0x00005208:    4661        aF      MOV      r1,r12
        0x0000520a:    600a        .`      STR      r2,[r1,#0]
        0x0000520c:    bdf0        ..      POP      {r4-r7,pc}
    $d
        0x0000520e:    0000        ..      DCW    0
        0x00005210:    00000fff    ....    DCD    4095
    $t
    i.Vibrate_SmartGlove
    Vibrate_SmartGlove
        0x00005214:    b510        ..      PUSH     {r4,lr}
        0x00005216:    4912        .I      LDR      r1,[pc,#72] ; [0x5260] = 0x2000001c
        0x00005218:    7808        .x      LDRB     r0,[r1,#0]
        0x0000521a:    2800        .(      CMP      r0,#0
        0x0000521c:    d012        ..      BEQ      0x5244 ; Vibrate_SmartGlove + 48
        0x0000521e:    7888        .x      LDRB     r0,[r1,#2]
        0x00005220:    22ff        ."      MOVS     r2,#0xff
        0x00005222:    32f5        .2      ADDS     r2,r2,#0xf5
        0x00005224:    2800        .(      CMP      r0,#0
        0x00005226:    d00e        ..      BEQ      0x5246 ; Vibrate_SmartGlove + 50
        0x00005228:    8908        ..      LDRH     r0,[r1,#8]
        0x0000522a:    2800        .(      CMP      r0,#0
        0x0000522c:    d10a        ..      BNE      0x5244 ; Vibrate_SmartGlove + 48
        0x0000522e:    784b        Kx      LDRB     r3,[r1,#1]
        0x00005230:    480c        .H      LDR      r0,[pc,#48] ; [0x5264] = 0x50004040
        0x00005232:    2b01        .+      CMP      r3,#1
        0x00005234:    d00b        ..      BEQ      0x524e ; Vibrate_SmartGlove + 58
        0x00005236:    2301        .#      MOVS     r3,#1
        0x00005238:    704b        Kp      STRB     r3,[r1,#1]
        0x0000523a:    810a        ..      STRH     r2,[r1,#8]
        0x0000523c:    2201        ."      MOVS     r2,#1
        0x0000523e:    2120         !      MOVS     r1,#0x20
        0x00005240:    f7fffef6    ....    BL       SetOutputPin ; 0x5030
        0x00005244:    bd10        ..      POP      {r4,pc}
        0x00005246:    4610        .F      MOV      r0,r2
        0x00005248:    f7fbf9a4    ....    BL       ActiveVibrator ; 0x594
        0x0000524c:    bd10        ..      POP      {r4,pc}
        0x0000524e:    4a06        .J      LDR      r2,[pc,#24] ; [0x5268] = 0xbb8
        0x00005250:    810a        ..      STRH     r2,[r1,#8]
        0x00005252:    2200        ."      MOVS     r2,#0
        0x00005254:    704a        Jp      STRB     r2,[r1,#1]
        0x00005256:    2120         !      MOVS     r1,#0x20
        0x00005258:    f7fffeea    ....    BL       SetOutputPin ; 0x5030
        0x0000525c:    bd10        ..      POP      {r4,pc}
    $d
        0x0000525e:    0000        ..      DCW    0
        0x00005260:    2000001c    ...     DCD    536870940
        0x00005264:    50004040    @@.P    DCD    1342193728
        0x00005268:    00000bb8    ....    DCD    3000
    $t
    i.Wave_CheckCpuOverload
    Wave_CheckCpuOverload
        0x0000526c:    4801        .H      LDR      r0,[pc,#4] ; [0x5274] = 0x20000028
        0x0000526e:    6840        @h      LDR      r0,[r0,#4]
        0x00005270:    4770        pG      BX       lr
    $d
        0x00005272:    0000        ..      DCW    0
        0x00005274:    20000028    (..     DCD    536870952
    $t
    i.Wave_ClearCpuOverload
    Wave_ClearCpuOverload
        0x00005278:    4901        .I      LDR      r1,[pc,#4] ; [0x5280] = 0x20000028
        0x0000527a:    2000        .       MOVS     r0,#0
        0x0000527c:    6048        H`      STR      r0,[r1,#4]
        0x0000527e:    4770        pG      BX       lr
    $d
        0x00005280:    20000028    (..     DCD    536870952
    $t
    i.Wave_GetSample
    Wave_GetSample
        0x00005284:    490c        .I      LDR      r1,[pc,#48] ; [0x52b8] = 0x20000028
        0x00005286:    6889        .h      LDR      r1,[r1,#8]
        0x00005288:    2900        .)      CMP      r1,#0
        0x0000528a:    d011        ..      BEQ      0x52b0 ; Wave_GetSample + 44
        0x0000528c:    490a        .I      LDR      r1,[pc,#40] ; [0x52b8] = 0x20000028
        0x0000528e:    310c        .1      ADDS     r1,r1,#0xc
        0x00005290:    680a        .h      LDR      r2,[r1,#0]
        0x00005292:    2a00        .*      CMP      r2,#0
        0x00005294:    d003        ..      BEQ      0x529e ; Wave_GetSample + 26
        0x00005296:    4909        .I      LDR      r1,[pc,#36] ; [0x52bc] = 0x200025d4
        0x00005298:    6001        .`      STR      r1,[r0,#0]
        0x0000529a:    20a0        .       MOVS     r0,#0xa0
        0x0000529c:    4770        pG      BX       lr
        0x0000529e:    6849        Ih      LDR      r1,[r1,#4]
        0x000052a0:    2900        .)      CMP      r1,#0
        0x000052a2:    d003        ..      BEQ      0x52ac ; Wave_GetSample + 40
        0x000052a4:    4906        .I      LDR      r1,[pc,#24] ; [0x52c0] = 0x20002714
        0x000052a6:    6001        .`      STR      r1,[r0,#0]
        0x000052a8:    20a0        .       MOVS     r0,#0xa0
        0x000052aa:    4770        pG      BX       lr
        0x000052ac:    2000        .       MOVS     r0,#0
        0x000052ae:    4770        pG      BX       lr
        0x000052b0:    2000        .       MOVS     r0,#0
        0x000052b2:    43c0        .C      MVNS     r0,r0
        0x000052b4:    4770        pG      BX       lr
    $d
        0x000052b6:    0000        ..      DCW    0
        0x000052b8:    20000028    (..     DCD    536870952
        0x000052bc:    200025d4    .%.     DCD    536880596
        0x000052c0:    20002714    .'.     DCD    536880916
    $t
    i.Wave_StartRecord
    Wave_StartRecord
        0x000052c4:    b510        ..      PUSH     {r4,lr}
        0x000052c6:    f7fffdff    ....    BL       PdmaCtrl_Init ; 0x4ec8
        0x000052ca:    f7fff807    ....    BL       MIC_Open ; 0x42dc
        0x000052ce:    4814        .H      LDR      r0,[pc,#80] ; [0x5320] = 0x40080040
        0x000052d0:    6a01        .j      LDR      r1,[r0,#0x20]
        0x000052d2:    0909        ..      LSRS     r1,r1,#4
        0x000052d4:    0109        ..      LSLS     r1,r1,#4
        0x000052d6:    1d89        ..      ADDS     r1,r1,#6
        0x000052d8:    6201        .b      STR      r1,[r0,#0x20]
        0x000052da:    6a41        Aj      LDR      r1,[r0,#0x24]
        0x000052dc:    221f        ."      MOVS     r2,#0x1f
        0x000052de:    4311        .C      ORRS     r1,r1,r2
        0x000052e0:    6241        Ab      STR      r1,[r0,#0x24]
        0x000052e2:    4911        .I      LDR      r1,[pc,#68] ; [0x5328] = 0x400b0040
        0x000052e4:    480f        .H      LDR      r0,[pc,#60] ; [0x5324] = 0x1e01c32f
        0x000052e6:    6088        .`      STR      r0,[r1,#8]
        0x000052e8:    4c10        .L      LDR      r4,[pc,#64] ; [0x532c] = 0x400e0000
        0x000052ea:    68e0        .h      LDR      r0,[r4,#0xc]
        0x000052ec:    0900        ..      LSRS     r0,r0,#4
        0x000052ee:    0100        ..      LSLS     r0,r0,#4
        0x000052f0:    1c80        ..      ADDS     r0,r0,#2
        0x000052f2:    60e0        .`      STR      r0,[r4,#0xc]
        0x000052f4:    2010        .       MOVS     r0,#0x10
        0x000052f6:    60a0        .`      STR      r0,[r4,#8]
        0x000052f8:    490d        .I      LDR      r1,[pc,#52] ; [0x5330] = 0x20000028
        0x000052fa:    2000        .       MOVS     r0,#0
        0x000052fc:    6008        .`      STR      r0,[r1,#0]
        0x000052fe:    460a        .F      MOV      r2,r1
        0x00005300:    320c        .2      ADDS     r2,r2,#0xc
        0x00005302:    6050        P`      STR      r0,[r2,#4]
        0x00005304:    6010        .`      STR      r0,[r2,#0]
        0x00005306:    6048        H`      STR      r0,[r1,#4]
        0x00005308:    2001        .       MOVS     r0,#1
        0x0000530a:    6088        .`      STR      r0,[r1,#8]
        0x0000530c:    f7fff83c    ..<.    BL       MIC_Start ; 0x4388
        0x00005310:    23a0        .#      MOVS     r3,#0xa0
        0x00005312:    4a08        .J      LDR      r2,[pc,#32] ; [0x5334] = 0x200025d4
        0x00005314:    4621        !F      MOV      r1,r4
        0x00005316:    2000        .       MOVS     r0,#0
        0x00005318:    f7fffe2e    ....    BL       PdmaCtrl_Start ; 0x4f78
        0x0000531c:    bd10        ..      POP      {r4,pc}
    $d
        0x0000531e:    0000        ..      DCW    0
        0x00005320:    40080040    @..@    DCD    1074266176
        0x00005324:    1e01c32f    /...    DCD    503431983
        0x00005328:    400b0040    @..@    DCD    1074462784
        0x0000532c:    400e0000    ...@    DCD    1074659328
        0x00005330:    20000028    (..     DCD    536870952
        0x00005334:    200025d4    .%.     DCD    536880596
    $t
    i.Wave_StopRecord
    Wave_StopRecord
        0x00005338:    b510        ..      PUSH     {r4,lr}
        0x0000533a:    4905        .I      LDR      r1,[pc,#20] ; [0x5350] = 0x20000028
        0x0000533c:    2000        .       MOVS     r0,#0
        0x0000533e:    6088        .`      STR      r0,[r1,#8]
        0x00005340:    f7fffe2e    ....    BL       PdmaCtrl_Stop ; 0x4fa0
        0x00005344:    2000        .       MOVS     r0,#0
        0x00005346:    f7fffdab    ....    BL       PdmaCtrl_Close ; 0x4ea0
        0x0000534a:    f7feffa3    ....    BL       MIC_Close ; 0x4294
        0x0000534e:    bd10        ..      POP      {r4,pc}
    $d
        0x00005350:    20000028    (..     DCD    536870952
    $t
    i.Wave_UnlockSample
    Wave_UnlockSample
        0x00005354:    b530        0.      PUSH     {r4,r5,lr}
        0x00005356:    4c07        .L      LDR      r4,[pc,#28] ; [0x5374] = 0x200025d4
        0x00005358:    6803        .h      LDR      r3,[r0,#0]
        0x0000535a:    4a07        .J      LDR      r2,[pc,#28] ; [0x5378] = 0x20000034
        0x0000535c:    2100        .!      MOVS     r1,#0
        0x0000535e:    42a3        .B      CMP      r3,r4
        0x00005360:    d100        ..      BNE      0x5364 ; Wave_UnlockSample + 16
        0x00005362:    6011        .`      STR      r1,[r2,#0]
        0x00005364:    4c05        .L      LDR      r4,[pc,#20] ; [0x537c] = 0x20002714
        0x00005366:    6803        .h      LDR      r3,[r0,#0]
        0x00005368:    42a3        .B      CMP      r3,r4
        0x0000536a:    d100        ..      BNE      0x536e ; Wave_UnlockSample + 26
        0x0000536c:    6051        Q`      STR      r1,[r2,#4]
        0x0000536e:    6001        .`      STR      r1,[r0,#0]
        0x00005370:    2000        .       MOVS     r0,#0
        0x00005372:    bd30        0.      POP      {r4,r5,pc}
    $d
        0x00005374:    200025d4    .%.     DCD    536880596
        0x00005378:    20000034    4..     DCD    536870964
        0x0000537c:    20002714    .'.     DCD    536880916
    $t
    i.__ARM_common_switch8
    __ARM_common_switch8
        0x00005380:    b430        0.      PUSH     {r4,r5}
        0x00005382:    4674        tF      MOV      r4,lr
        0x00005384:    1e64        d.      SUBS     r4,r4,#1
        0x00005386:    7825        %x      LDRB     r5,[r4,#0]
        0x00005388:    1c64        d.      ADDS     r4,r4,#1
        0x0000538a:    42ab        .B      CMP      r3,r5
        0x0000538c:    d200        ..      BCS      0x5390 ; __ARM_common_switch8 + 16
        0x0000538e:    461d        .F      MOV      r5,r3
        0x00005390:    5d63        c]      LDRB     r3,[r4,r5]
        0x00005392:    005b        [.      LSLS     r3,r3,#1
        0x00005394:    18e3        ..      ADDS     r3,r4,r3
        0x00005396:    bc30        0.      POP      {r4,r5}
        0x00005398:    4718        .G      BX       r3
    i.main
    main
        0x0000539a:    b086        ..      SUB      sp,sp,#0x18
        0x0000539c:    f7fffe32    ..2.    BL       SYS_Unlock ; 0x5004
        0x000053a0:    f7fffe08    ....    BL       SYS_Init ; 0x4fb4
        0x000053a4:    f7feff36    ..6.    BL       InitialGPIO ; 0x4214
        0x000053a8:    200b        .       MOVS     r0,#0xb
        0x000053aa:    ab03        ..      ADD      r3,sp,#0xc
        0x000053ac:    2203        ."      MOVS     r2,#3
        0x000053ae:    a904        ..      ADD      r1,sp,#0x10
        0x000053b0:    0300        ..      LSLS     r0,r0,#12
        0x000053b2:    f7ffff09    ....    BL       UnpackBin ; 0x51c8
        0x000053b6:    2803        .(      CMP      r0,#3
        0x000053b8:    db13        ..      BLT      0x53e2 ; main + 72
        0x000053ba:    200a        .       MOVS     r0,#0xa
        0x000053bc:    f7fbf8c0    ....    BL       ActiveTimer ; 0x540
        0x000053c0:    2400        .$      MOVS     r4,#0
        0x000053c2:    ad04        ..      ADD      r5,sp,#0x10
        0x000053c4:    9400        ..      STR      r4,[sp,#0]
        0x000053c6:    9401        ..      STR      r4,[sp,#4]
        0x000053c8:    9402        ..      STR      r4,[sp,#8]
        0x000053ca:    2300        .#      MOVS     r3,#0
        0x000053cc:    2202        ."      MOVS     r2,#2
        0x000053ce:    1d29        ).      ADDS     r1,r5,#4
        0x000053d0:    9804        ..      LDR      r0,[sp,#0x10]
        0x000053d2:    f7fefe8b    ....    BL       DoVR_two_as_one ; 0x40ec
        0x000053d6:    2800        .(      CMP      r0,#0
        0x000053d8:    dd03        ..      BLE      0x53e2 ; main + 72
        0x000053da:    1f00        ..      SUBS     r0,r0,#4
        0x000053dc:    f7fbf94e    ..N.    BL       BioworldEncodeOutput ; 0x67c
        0x000053e0:    e7f0        ..      B        0x53c4 ; main + 42
        0x000053e2:    e7fe        ..      B        0x53e2 ; main + 72
    $d.realdata
    .constdata
        0x000053e4:    00003e80    .>..    DCD    16000
        0x000053e8:    00008000    ....    DCD    32768
        0x000053ec:    00000000    ....    DCD    0
        0x000053f0:    00000000    ....    DCD    0
        0x000053f4:    02ee0000    ....    DCD    49152000
    .constdata
        0x000053f8:    00800040    @...    DCD    8388672
        0x000053fc:    018000c0    ....    DCD    25166016
    g_u32BiqCoeff
        0x00005400:    00008676    v...    DCD    34422
        0x00005404:    00010cec    ....    DCD    68844
        0x00005408:    00008676    v...    DCD    34422
        0x0000540c:    00007ef6    .~..    DCD    32502
        0x00005410:    00009ade    ....    DCD    39646
        0x00005414:    0000642e    .d..    DCD    25646
        0x00005418:    0000c85c    \...    DCD    51292
        0x0000541c:    0000642e    .d..    DCD    25646
        0x00005420:    00005e9a    .^..    DCD    24218
        0x00005424:    00003220     2..    DCD    12832
        0x00005428:    00005754    TW..    DCD    22356
        0x0000542c:    0000aea8    ....    DCD    44712
        0x00005430:    00005754    TW..    DCD    22356
        0x00005434:    00005276    vR..    DCD    21110
        0x00005438:    00000ada    ....    DCD    2778
    .constdata
    BSR_1
        0x0000543c:    49455b24    $[EI    DCD    1229282084
        0x00005440:    08555557    WUU.    DCD    139810135
        0x00005444:    5c5d592c    ,Y]\    DCD    1549621548
        0x00005448:    55450e1b    ..EU    DCD    1430588955
        0x0000544c:    635c6563    ce\c    DCD    1666999651
        0x00005450:    2e173063    c0..    DCD    773271651
        0x00005454:    2c292a27    '*),    DCD    740895271
        0x00005458:    374d2238    8"M7    DCD    927801912
        0x0000545c:    2109302f    /0.!    DCD    554250287
        0x00005460:    362e2d28    (-.6    DCD    908995880
        0x00005464:    4436233c    <#6D    DCD    1144398652
        0x00005468:    3d3c333b    ;3<=    DCD    1027355451
        0x0000546c:    31363725    %761    DCD    825636645
        0x00005470:    69694b3a    :Kii    DCD    1768508218
        0x00005474:    7062706f    opbp    DCD    1885499503
        0x00005478:    1f2e2652    R&..    DCD    523118162
        0x0000547c:    212b392e    .9+!    DCD    556480814
        0x00005480:    002e6261    ab..    DCD    3039841
        0x00005484:    4d690000    ..iM    DCD    1298726912
        0x00005488:    7eba6b75    uk.~    DCD    2126146421
    BsrLori
        0x0000548c:    53786946    FixS    DCD    1400400198
        0x00005490:    31566d69    imV1    DCD    827747689
        0x00005494:    00000001    ....    DCD    1
        0x00005498:    00000018    ....    DCD    24
        0x0000549c:    00000008    ....    DCD    8
        0x000054a0:    0000000c    ....    DCD    12
        0x000054a4:    0000000a    ....    DCD    10
        0x000054a8:    00000008    ....    DCD    8
        0x000054ac:    00000007    ....    DCD    7
        0x000054b0:    00000007    ....    DCD    7
        0x000054b4:    00000007    ....    DCD    7
        0x000054b8:    00000007    ....    DCD    7
        0x000054bc:    00000007    ....    DCD    7
        0x000054c0:    00000007    ....    DCD    7
        0x000054c4:    00000007    ....    DCD    7
        0x000054c8:    00000007    ....    DCD    7
        0x000054cc:    00000005    ....    DCD    5
        0x000054d0:    00000005    ....    DCD    5
        0x000054d4:    00000005    ....    DCD    5
        0x000054d8:    00000005    ....    DCD    5
        0x000054dc:    00000005    ....    DCD    5
        0x000054e0:    00000005    ....    DCD    5
        0x000054e4:    00000005    ....    DCD    5
        0x000054e8:    00000005    ....    DCD    5
        0x000054ec:    00000004    ....    DCD    4
        0x000054f0:    00000004    ....    DCD    4
        0x000054f4:    00000004    ....    DCD    4
        0x000054f8:    00000004    ....    DCD    4
        0x000054fc:    00000004    ....    DCD    4
        0x00005500:    00000004    ....    DCD    4
        0x00005504:    00000007    ....    DCD    7
        0x00005508:    00000005    ....    DCD    5
        0x0000550c:    00000006    ....    DCD    6
        0x00005510:    0032a28b    ..2.    DCD    3318411
        0x00005514:    003b219a    .!;.    DCD    3875226
        0x00005518:    007c028d    ..|.    DCD    8127117
        0x0000551c:    00449c74    t.D.    DCD    4496500
        0x00005520:    0044c1a8    ..D.    DCD    4506024
        0x00005524:    00503c7a    z<P.    DCD    5258362
        0x00005528:    000008bf    ....    DCD    2239
        0x0000552c:    00000820     ...    DCD    2080
        0x00005530:    0000052a    *...    DCD    1322
        0x00005534:    00000788    ....    DCD    1928
        0x00005538:    00000786    ....    DCD    1926
        0x0000553c:    000006e8    ....    DCD    1768
        0x00005540:    000050da    .P..    DCD    20698
        0x00005544:    000043b8    .C..    DCD    17336
        0x00005548:    00003641    A6..    DCD    13889
        0x0000554c:    00003826    &8..    DCD    14374
        0x00005550:    0000356f    o5..    DCD    13679
        0x00005554:    0000426a    jB..    DCD    17002
        0x00005558:    fffffc69    i...    DCD    4294966377
        0x0000555c:    00000626    &...    DCD    1574
        0x00005560:    00000565    e...    DCD    1381
        0x00005564:    00000144    D...    DCD    324
        0x00005568:    00000143    C...    DCD    323
        0x0000556c:    00000219    ....    DCD    537
        0x00005570:    ffffffd5    ....    DCD    4294967253
        0x00005574:    0000003c    <...    DCD    60
        0x00005578:    fffffa0c    ....    DCD    4294965772
        0x0000557c:    fffffeb1    ....    DCD    4294966961
        0x00005580:    fffffee6    ....    DCD    4294967014
        0x00005584:    000000b2    ....    DCD    178
        0x00005588:    00000075    u...    DCD    117
        0x0000558c:    ffffff98    ....    DCD    4294967192
        0x00005590:    ffffffbb    ....    DCD    4294967227
        0x00005594:    fffffff8    ....    DCD    4294967288
        0x00005598:    000001c9    ....    DCD    457
        0x0000559c:    00000019    ....    DCD    25
        0x000055a0:    fffffff9    ....    DCD    4294967289
        0x000055a4:    fffffed8    ....    DCD    4294967000
        0x000055a8:    ffffff18    ....    DCD    4294967064
        0x000055ac:    ffffff02    ....    DCD    4294967042
        0x000055b0:    fffffd94    ....    DCD    4294966676
        0x000055b4:    0000018f    ....    DCD    399
        0x000055b8:    00000003    ....    DCD    3
        0x000055bc:    00000007    ....    DCD    7
        0x000055c0:    0000000b    ....    DCD    11
        0x000055c4:    00000012    ....    DCD    18
        0x000055c8:    0000001a    ....    DCD    26
        0x000055cc:    00000022    "...    DCD    34
        0x000055d0:    00000029    )...    DCD    41
        0x000055d4:    00000032    2...    DCD    50
        0x000055d8:    00000007    ....    DCD    7
        0x000055dc:    0000000f    ....    DCD    15
        0x000055e0:    00000019    ....    DCD    25
        0x000055e4:    00000023    #...    DCD    35
        0x000055e8:    00000033    3...    DCD    51
        0x000055ec:    00000040    @...    DCD    64
        0x000055f0:    00000049    I...    DCD    73
        0x000055f4:    0000005c    \...    DCD    92
        0x000055f8:    00000014    ....    DCD    20
        0x000055fc:    00000032    2...    DCD    50
        0x00005600:    0000004d    M...    DCD    77
        0x00005604:    00000069    i...    DCD    105
        0x00005608:    00000092    ....    DCD    146
        0x0000560c:    000000ba    ....    DCD    186
        0x00005610:    0000000c    ....    DCD    12
        0x00005614:    0000000a    ....    DCD    10
        0x00005618:    fffffd79    y...    DCD    4294966649
        0x0000561c:    fffffc4c    L...    DCD    4294966348
        0x00005620:    000005b8    ....    DCD    1464
        0x00005624:    0000037b    {...    DCD    891
        0x00005628:    00000537    7...    DCD    1335
        0x0000562c:    000000c1    ....    DCD    193
        0x00005630:    fffffd86    ....    DCD    4294966662
        0x00005634:    0000010a    ....    DCD    266
        0x00005638:    ffffffa3    ....    DCD    4294967203
        0x0000563c:    0000002c    ,...    DCD    44
        0x00005640:    ffffff0a    ....    DCD    4294967050
        0x00005644:    ffffffc9    ....    DCD    4294967241
        0x00005648:    ffffff91    ....    DCD    4294967185
        0x0000564c:    ffffffa4    ....    DCD    4294967204
        0x00005650:    ffffffcd    ....    DCD    4294967245
        0x00005654:    ffffff8c    ....    DCD    4294967180
        0x00005658:    0000006a    j...    DCD    106
        0x0000565c:    00000141    A...    DCD    321
        0x00005660:    ffffff56    V...    DCD    4294967126
        0x00005664:    ffffff75    u...    DCD    4294967157
        0x00005668:    ffffff11    ....    DCD    4294967057
        0x0000566c:    ffffffb8    ....    DCD    4294967224
        0x00005670:    fffffdc7    ....    DCD    4294966727
        0x00005674:    fffffd83    ....    DCD    4294966659
        0x00005678:    00000006    ....    DCD    6
        0x0000567c:    00000009    ....    DCD    9
        0x00005680:    00000011    ....    DCD    17
        0x00005684:    0000001f    ....    DCD    31
        0x00005688:    00000025    %...    DCD    37
        0x0000568c:    0000002e    ....    DCD    46
        0x00005690:    00000032    2...    DCD    50
        0x00005694:    00000038    8...    DCD    56
        0x00005698:    0000003e    >...    DCD    62
        0x0000569c:    00000042    B...    DCD    66
        0x000056a0:    0000006c    l...    DCD    108
        0x000056a4:    00000081    ....    DCD    129
        0x000056a8:    00000092    ....    DCD    146
        0x000056ac:    000000a1    ....    DCD    161
        0x000056b0:    000000a8    ....    DCD    168
        0x000056b4:    000000c1    ....    DCD    193
        0x000056b8:    000000cb    ....    DCD    203
        0x000056bc:    000000f5    ....    DCD    245
        0x000056c0:    00000141    A...    DCD    321
        0x000056c4:    00000169    i...    DCD    361
        0x000056c8:    00000194    ....    DCD    404
        0x000056cc:    000001ab    ....    DCD    427
        0x000056d0:    0000007d    }...    DCD    125
        0x000056d4:    00000092    ....    DCD    146
        0x000056d8:    fffffb2a    *...    DCD    4294966058
        0x000056dc:    00000ee2    ....    DCD    3810
        0x000056e0:    000003da    ....    DCD    986
        0x000056e4:    00000905    ....    DCD    2309
        0x000056e8:    000002e5    ....    DCD    741
        0x000056ec:    00000072    r...    DCD    114
        0x000056f0:    000000b5    ....    DCD    181
        0x000056f4:    ffffff9b    ....    DCD    4294967195
        0x000056f8:    ffffff70    p...    DCD    4294967152
        0x000056fc:    ffffff87    ....    DCD    4294967175
        0x00005700:    ffffff83    ....    DCD    4294967171
        0x00005704:    ffffff82    ....    DCD    4294967170
        0x00005708:    ffffff85    ....    DCD    4294967173
        0x0000570c:    ffffff7d    }...    DCD    4294967165
        0x00005710:    ffffff85    ....    DCD    4294967173
        0x00005714:    ffffff7c    |...    DCD    4294967164
        0x00005718:    ffffffc6    ....    DCD    4294967238
        0x0000571c:    ffffffd2    ....    DCD    4294967250
        0x00005720:    ffffff63    c...    DCD    4294967139
        0x00005724:    fffffe43    C...    DCD    4294966851
        0x00005728:    ffffff32    2...    DCD    4294967090
        0x0000572c:    0000003b    ;...    DCD    59
        0x00005730:    ffffff6b    k...    DCD    4294967147
        0x00005734:    fffffff6    ....    DCD    4294967286
        0x00005738:    00000015    ....    DCD    21
        0x0000573c:    00000023    #...    DCD    35
        0x00005740:    0000004c    L...    DCD    76
        0x00005744:    000000b4    ....    DCD    180
        0x00005748:    00000093    ....    DCD    147
        0x0000574c:    000000a5    ....    DCD    165
        0x00005750:    0000009b    ....    DCD    155
        0x00005754:    000000a1    ....    DCD    161
        0x00005758:    00000103    ....    DCD    259
        0x0000575c:    000000e9    ....    DCD    233
        0x00005760:    00000104    ....    DCD    260
        0x00005764:    00000108    ....    DCD    264
        0x00005768:    0000011e    ....    DCD    286
        0x0000576c:    0000011e    ....    DCD    286
        0x00005770:    0000012b    +...    DCD    299
        0x00005774:    00000143    C...    DCD    323
        0x00005778:    000002a9    ....    DCD    681
        0x0000577c:    0000029e    ....    DCD    670
        0x00005780:    000002ea    ....    DCD    746
        0x00005784:    000003e1    ....    DCD    993
        0x00005788:    00000355    U...    DCD    853
        0x0000578c:    00000364    d...    DCD    868
        0x00005790:    0000050a    ....    DCD    1290
        0x00005794:    00000339    9...    DCD    825
        0x00005798:    000005a4    ....    DCD    1444
        0x0000579c:    000008f6    ....    DCD    2294
        0x000057a0:    fffffe91    ....    DCD    4294966929
        0x000057a4:    00000234    4...    DCD    564
        0x000057a8:    00000373    s...    DCD    883
        0x000057ac:    00000410    ....    DCD    1040
        0x000057b0:    00000219    ....    DCD    537
        0x000057b4:    00000001    ....    DCD    1
        0x000057b8:    ffffff5f    _...    DCD    4294967135
        0x000057bc:    ffffffaa    ....    DCD    4294967210
        0x000057c0:    ffffff87    ....    DCD    4294967175
        0x000057c4:    ffffff85    ....    DCD    4294967173
        0x000057c8:    ffffff79    y...    DCD    4294967161
        0x000057cc:    ffffff70    p...    DCD    4294967152
        0x000057d0:    ffffff91    ....    DCD    4294967185
        0x000057d4:    ffffff7c    |...    DCD    4294967164
        0x000057d8:    fffffe8c    ....    DCD    4294966924
        0x000057dc:    ffffffdf    ....    DCD    4294967263
        0x000057e0:    0000011f    ....    DCD    287
        0x000057e4:    000000ba    ....    DCD    186
        0x000057e8:    fffffeef    ....    DCD    4294967023
        0x000057ec:    fffffe93    ....    DCD    4294966931
        0x000057f0:    ffffff45    E...    DCD    4294967109
        0x000057f4:    ffffffdf    ....    DCD    4294967263
        0x000057f8:    00000021    !...    DCD    33
        0x000057fc:    0000002f    /...    DCD    47
        0x00005800:    00000044    D...    DCD    68
        0x00005804:    0000008e    ....    DCD    142
        0x00005808:    0000007a    z...    DCD    122
        0x0000580c:    0000008f    ....    DCD    143
        0x00005810:    00000086    ....    DCD    134
        0x00005814:    0000008d    ....    DCD    141
        0x00005818:    000000b8    ....    DCD    184
        0x0000581c:    000000ac    ....    DCD    172
        0x00005820:    000000cb    ....    DCD    203
        0x00005824:    000000d5    ....    DCD    213
        0x00005828:    000000e9    ....    DCD    233
        0x0000582c:    000000ef    ....    DCD    239
        0x00005830:    000000fa    ....    DCD    250
        0x00005834:    0000010f    ....    DCD    271
        0x00005838:    00000211    ....    DCD    529
        0x0000583c:    0000022d    -...    DCD    557
        0x00005840:    00000311    ....    DCD    785
        0x00005844:    00000321    !...    DCD    801
        0x00005848:    000002e5    ....    DCD    741
        0x0000584c:    00000307    ....    DCD    775
        0x00005850:    00000307    ....    DCD    775
        0x00005854:    00000239    9...    DCD    569
        0x00005858:    fffffdc3    ....    DCD    4294966723
        0x0000585c:    0000106f    o...    DCD    4207
        0x00005860:    000006e9    ....    DCD    1769
        0x00005864:    000002a2    ....    DCD    674
        0x00005868:    ffffffa2    ....    DCD    4294967202
        0x0000586c:    000002af    ....    DCD    687
        0x00005870:    00000227    '...    DCD    551
        0x00005874:    ffffffe0    ....    DCD    4294967264
        0x00005878:    ffffff66    f...    DCD    4294967142
        0x0000587c:    ffffff94    ....    DCD    4294967188
        0x00005880:    ffffff91    ....    DCD    4294967185
        0x00005884:    ffffff85    ....    DCD    4294967173
        0x00005888:    ffffff7e    ~...    DCD    4294967166
        0x0000588c:    ffffff7a    z...    DCD    4294967162
        0x00005890:    ffffff8a    ....    DCD    4294967178
        0x00005894:    ffffff7e    ~...    DCD    4294967166
        0x00005898:    ffffff98    ....    DCD    4294967192
        0x0000589c:    fffffe85    ....    DCD    4294966917
        0x000058a0:    fffffe8d    ....    DCD    4294966925
        0x000058a4:    000000dd    ....    DCD    221
        0x000058a8:    000000bc    ....    DCD    188
        0x000058ac:    ffffff3b    ;...    DCD    4294967099
        0x000058b0:    ffffff63    c...    DCD    4294967139
        0x000058b4:    00000033    3...    DCD    51
        0x000058b8:    00000013    ....    DCD    19
        0x000058bc:    0000002e    ....    DCD    46
        0x000058c0:    0000004c    L...    DCD    76
        0x000058c4:    000000d1    ....    DCD    209
        0x000058c8:    000000a4    ....    DCD    164
        0x000058cc:    000000af    ....    DCD    175
        0x000058d0:    000000b4    ....    DCD    180
        0x000058d4:    000000b8    ....    DCD    184
        0x000058d8:    0000010c    ....    DCD    268
        0x000058dc:    00000102    ....    DCD    258
        0x000058e0:    00000111    ....    DCD    273
        0x000058e4:    0000011c    ....    DCD    284
        0x000058e8:    00000131    1...    DCD    305
        0x000058ec:    00000134    4...    DCD    308
        0x000058f0:    00000143    C...    DCD    323
        0x000058f4:    0000015e    ^...    DCD    350
        0x000058f8:    00000294    ....    DCD    660
        0x000058fc:    000002a3    ....    DCD    675
        0x00005900:    0000035b    [...    DCD    859
        0x00005904:    00000451    Q...    DCD    1105
        0x00005908:    000003c4    ....    DCD    964
        0x0000590c:    0000037d    }...    DCD    893
        0x00005910:    00000567    g...    DCD    1383
        0x00005914:    000002d0    ....    DCD    720
        0x00005918:    fffffdc0    ....    DCD    4294966720
        0x0000591c:    00000ed6    ....    DCD    3798
        0x00005920:    00000449    I...    DCD    1097
        0x00005924:    000005fc    ....    DCD    1532
        0x00005928:    0000018b    ....    DCD    395
        0x0000592c:    00000245    E...    DCD    581
        0x00005930:    0000014d    M...    DCD    333
        0x00005934:    ffffffef    ....    DCD    4294967279
        0x00005938:    fffffd38    8...    DCD    4294966584
        0x0000593c:    ffffff9b    ....    DCD    4294967195
        0x00005940:    ffffff69    i...    DCD    4294967145
        0x00005944:    ffffffa4    ....    DCD    4294967204
        0x00005948:    ffffff9d    ....    DCD    4294967197
        0x0000594c:    ffffff8a    ....    DCD    4294967178
        0x00005950:    ffffffaa    ....    DCD    4294967210
        0x00005954:    ffffff9b    ....    DCD    4294967195
        0x00005958:    ffffff07    ....    DCD    4294967047
        0x0000595c:    fffffe28    (...    DCD    4294966824
        0x00005960:    ffffffff    ....    DCD    4294967295
        0x00005964:    fffffec0    ....    DCD    4294966976
        0x00005968:    ffffff6f    o...    DCD    4294967151
        0x0000596c:    ffffff5f    _...    DCD    4294967135
        0x00005970:    fffffeaa    ....    DCD    4294966954
        0x00005974:    00000664    d...    DCD    1636
        0x00005978:    0000000e    ....    DCD    14
        0x0000597c:    00000023    #...    DCD    35
        0x00005980:    00000036    6...    DCD    54
        0x00005984:    00000069    i...    DCD    105
        0x00005988:    00000074    t...    DCD    116
        0x0000598c:    00000085    ....    DCD    133
        0x00005990:    0000008f    ....    DCD    143
        0x00005994:    00000097    ....    DCD    151
        0x00005998:    0000001c    ....    DCD    28
        0x0000599c:    00000031    1...    DCD    49
        0x000059a0:    0000004f    O...    DCD    79
        0x000059a4:    0000006f    o...    DCD    111
        0x000059a8:    0000007e    ~...    DCD    126
        0x000059ac:    00000095    ....    DCD    149
        0x000059b0:    000000a8    ....    DCD    168
        0x000059b4:    000000be    ....    DCD    190
        0x000059b8:    0000003c    <...    DCD    60
        0x000059bc:    0000008f    ....    DCD    143
        0x000059c0:    000000c1    ....    DCD    193
        0x000059c4:    00000120     ...    DCD    288
        0x000059c8:    0000015a    Z...    DCD    346
        0x000059cc:    000001a0    ....    DCD    416
        0x000059d0:    0000004d    M...    DCD    77
        0x000059d4:    00000028    (...    DCD    40
        0x000059d8:    00000001    ....    DCD    1
        0x000059dc:    00000004    ....    DCD    4
        0x000059e0:    015ecc62    b.^.    DCD    22989922
        0x000059e4:    00e8bc2b    +...    DCD    15252523
        0x000059e8:    00b1d65a    Z...    DCD    11654746
        0x000059ec:    00c8d081    ....    DCD    13160577
        0x000059f0:    00000408    ....    DCD    1032
        0x000059f4:    000005ac    ....    DCD    1452
        0x000059f8:    000006c0    ....    DCD    1728
        0x000059fc:    00000643    C...    DCD    1603
        0x00005a00:    00005afd    .Z..    DCD    23293
        0x00005a04:    000056b7    .V..    DCD    22199
        0x00005a08:    000057d8    .W..    DCD    22488
        0x00005a0c:    000056f3    .V..    DCD    22259
        0x00005a10:    00000a73    s...    DCD    2675
        0x00005a14:    00000224    $...    DCD    548
        0x00005a18:    000018e3    ....    DCD    6371
        0x00005a1c:    fffff7ee    ....    DCD    4294965230
        0x00005a20:    fffff962    b...    DCD    4294965602
        0x00005a24:    fffffd6f    o...    DCD    4294966639
        0x00005a28:    fffff84c    L...    DCD    4294965324
        0x00005a2c:    fffffbd3    ....    DCD    4294966227
        0x00005a30:    00001a1d    ....    DCD    6685
        0x00005a34:    fffff8c1    ....    DCD    4294965441
        0x00005a38:    000000ec    ....    DCD    236
        0x00005a3c:    fffff825    %...    DCD    4294965285
        0x00005a40:    fffffbaa    ....    DCD    4294966186
        0x00005a44:    fffffe7d    }...    DCD    4294966909
        0x00005a48:    fffffca0    ....    DCD    4294966432
        0x00005a4c:    fffffe84    ....    DCD    4294966916
        0x00005a50:    fffffd2d    -...    DCD    4294966573
        0x00005a54:    0000012a    *...    DCD    298
        0x00005a58:    fffffcef    ....    DCD    4294966511
        0x00005a5c:    ffffff7f    ....    DCD    4294967167
        0x00005a60:    0000002f    /...    DCD    47
        0x00005a64:    00000059    Y...    DCD    89
        0x00005a68:    00000bad    ....    DCD    2989
        0x00005a6c:    fffff8a1    ....    DCD    4294965409
        0x00005a70:    00000002    ....    DCD    2
        0x00005a74:    00000004    ....    DCD    4
        0x00005a78:    00000003    ....    DCD    3
        0x00005a7c:    00000007    ....    DCD    7
        0x00005a80:    0000000d    ....    DCD    13
        0x00005a84:    00000010    ....    DCD    16
        0x00005a88:    00000013    ....    DCD    19
        0x00005a8c:    0000001a    ....    DCD    26
        0x00005a90:    00000002    ....    DCD    2
        0x00005a94:    00000007    ....    DCD    7
        0x00005a98:    00000008    ....    DCD    8
        0x00005a9c:    0000000d    ....    DCD    13
        0x00005aa0:    00000017    ....    DCD    23
        0x00005aa4:    0000001c    ....    DCD    28
        0x00005aa8:    00000020     ...    DCD    32
        0x00005aac:    0000002c    ,...    DCD    44
        0x00005ab0:    00000007    ....    DCD    7
        0x00005ab4:    00000018    ....    DCD    24
        0x00005ab8:    0000001a    ....    DCD    26
        0x00005abc:    0000002a    *...    DCD    42
        0x00005ac0:    00000045    E...    DCD    69
        0x00005ac4:    00000053    S...    DCD    83
        0x00005ac8:    00000006    ....    DCD    6
        0x00005acc:    00000006    ....    DCD    6
        0x00005ad0:    00003456    V4..    DCD    13398
        0x00005ad4:    fffff681    ....    DCD    4294964865
        0x00005ad8:    00000335    5...    DCD    821
        0x00005adc:    ffffe509    ....    DCD    4294960393
        0x00005ae0:    fffff4ed    ....    DCD    4294964461
        0x00005ae4:    fffffd75    u...    DCD    4294966645
        0x00005ae8:    fffff6d6    ....    DCD    4294964950
        0x00005aec:    fffffc0c    ....    DCD    4294966284
        0x00005af0:    fffffd4a    J...    DCD    4294966602
        0x00005af4:    00000750    P...    DCD    1872
        0x00005af8:    0000027b    {...    DCD    635
        0x00005afc:    000004b1    ....    DCD    1201
        0x00005b00:    00000160    `...    DCD    352
        0x00005b04:    ffffffee    ....    DCD    4294967278
        0x00005b08:    000000f9    ....    DCD    249
        0x00005b0c:    ffffffd2    ....    DCD    4294967250
        0x00005b10:    fffff768    h...    DCD    4294965096
        0x00005b14:    00000453    S...    DCD    1107
        0x00005b18:    0000020e    ....    DCD    526
        0x00005b1c:    00000587    ....    DCD    1415
        0x00005b20:    000001a0    ....    DCD    416
        0x00005b24:    ffffffe7    ....    DCD    4294967271
        0x00005b28:    fffff3e3    ....    DCD    4294964195
        0x00005b2c:    fffff073    s...    DCD    4294963315
        0x00005b30:    00000003    ....    DCD    3
        0x00005b34:    00000003    ....    DCD    3
        0x00005b38:    00000005    ....    DCD    5
        0x00005b3c:    00000006    ....    DCD    6
        0x00005b40:    0000000a    ....    DCD    10
        0x00005b44:    0000000c    ....    DCD    12
        0x00005b48:    00000010    ....    DCD    16
        0x00005b4c:    00000016    ....    DCD    22
        0x00005b50:    0000000e    ....    DCD    14
        0x00005b54:    0000000b    ....    DCD    11
        0x00005b58:    00000012    ....    DCD    18
        0x00005b5c:    00000011    ....    DCD    17
        0x00005b60:    0000001f    ....    DCD    31
        0x00005b64:    00000024    $...    DCD    36
        0x00005b68:    0000002a    *...    DCD    42
        0x00005b6c:    00000038    8...    DCD    56
        0x00005b70:    00000015    ....    DCD    21
        0x00005b74:    00000020     ...    DCD    32
        0x00005b78:    00000032    2...    DCD    50
        0x00005b7c:    00000036    6...    DCD    54
        0x00005b80:    00000053    S...    DCD    83
        0x00005b84:    00000058    X...    DCD    88
        0x00005b88:    0000000e    ....    DCD    14
        0x00005b8c:    0000000b    ....    DCD    11
        0x00005b90:    0000235a    Z#..    DCD    9050
        0x00005b94:    00000d5d    ]...    DCD    3421
        0x00005b98:    0000125d    ]...    DCD    4701
        0x00005b9c:    ffffffee    ....    DCD    4294967278
        0x00005ba0:    fffffdb0    ....    DCD    4294966704
        0x00005ba4:    fffffeea    ....    DCD    4294967018
        0x00005ba8:    fffffb23    #...    DCD    4294966051
        0x00005bac:    fffffae6    ....    DCD    4294965990
        0x00005bb0:    ffffef6e    n...    DCD    4294963054
        0x00005bb4:    00000829    )...    DCD    2089
        0x00005bb8:    fffffce9    ....    DCD    4294966505
        0x00005bbc:    00000a34    4...    DCD    2612
        0x00005bc0:    00000567    g...    DCD    1383
        0x00005bc4:    000001e1    ....    DCD    481
        0x00005bc8:    00000372    r...    DCD    882
        0x00005bcc:    00000069    i...    DCD    105
        0x00005bd0:    fffff58c    ....    DCD    4294964620
        0x00005bd4:    fffffb3a    :...    DCD    4294966074
        0x00005bd8:    fffffdc5    ....    DCD    4294966725
        0x00005bdc:    fffffb5c    \...    DCD    4294966108
        0x00005be0:    fffffe24    $...    DCD    4294966820
        0x00005be4:    ffffff7d    }...    DCD    4294967165
        0x00005be8:    ffffea53    S...    DCD    4294961747
        0x00005bec:    00000add    ....    DCD    2781
        0x00005bf0:    00000003    ....    DCD    3
        0x00005bf4:    00000006    ....    DCD    6
        0x00005bf8:    00000007    ....    DCD    7
        0x00005bfc:    00000008    ....    DCD    8
        0x00005c00:    00000010    ....    DCD    16
        0x00005c04:    00000013    ....    DCD    19
        0x00005c08:    00000015    ....    DCD    21
        0x00005c0c:    0000001d    ....    DCD    29
        0x00005c10:    00000004    ....    DCD    4
        0x00005c14:    00000009    ....    DCD    9
        0x00005c18:    0000000a    ....    DCD    10
        0x00005c1c:    0000000e    ....    DCD    14
        0x00005c20:    0000001a    ....    DCD    26
        0x00005c24:    0000001f    ....    DCD    31
        0x00005c28:    00000024    $...    DCD    36
        0x00005c2c:    0000002f    /...    DCD    47
        0x00005c30:    0000000d    ....    DCD    13
        0x00005c34:    00000020     ...    DCD    32
        0x00005c38:    00000028    (...    DCD    40
        0x00005c3c:    0000002f    /...    DCD    47
        0x00005c40:    0000004d    M...    DCD    77
        0x00005c44:    00000061    a...    DCD    97
        0x00005c48:    00000008    ....    DCD    8
        0x00005c4c:    00000006    ....    DCD    6
        0x00005c50:    ffffc526    &...    DCD    4294952230
        0x00005c54:    000013d8    ....    DCD    5080
        0x00005c58:    00000b94    ....    DCD    2964
        0x00005c5c:    000000a6    ....    DCD    166
        0x00005c60:    0000021a    ....    DCD    538
        0x00005c64:    0000017c    |...    DCD    380
        0x00005c68:    ffffff4e    N...    DCD    4294967118
        0x00005c6c:    ffffffb8    ....    DCD    4294967224
        0x00005c70:    ffffe3eb    ....    DCD    4294960107
        0x00005c74:    fffffaa3    ....    DCD    4294965923
        0x00005c78:    fffffc3a    :...    DCD    4294966330
        0x00005c7c:    fffffc81    ....    DCD    4294966401
        0x00005c80:    fffffe91    ....    DCD    4294966929
        0x00005c84:    fffffec1    ....    DCD    4294966977
        0x00005c88:    ffffff38    8...    DCD    4294967096
        0x00005c8c:    fffffffd    ....    DCD    4294967293
        0x00005c90:    0000158e    ....    DCD    5518
        0x00005c94:    fffffaf4    ....    DCD    4294966004
        0x00005c98:    0000025f    _...    DCD    607
        0x00005c9c:    fffffcd3    ....    DCD    4294966483
        0x00005ca0:    fffffd87    ....    DCD    4294966663
        0x00005ca4:    fffffde6    ....    DCD    4294966758
        0x00005ca8:    00000bcf    ....    DCD    3023
        0x00005cac:    00000f90    ....    DCD    3984
        0x00005cb0:    00000001    ....    DCD    1
        0x00005cb4:    00000007    ....    DCD    7
        0x00005cb8:    0000000a    ....    DCD    10
        0x00005cbc:    00000012    ....    DCD    18
        0x00005cc0:    00000019    ....    DCD    25
        0x00005cc4:    00000022    "...    DCD    34
        0x00005cc8:    00000028    (...    DCD    40
        0x00005ccc:    00000037    7...    DCD    55
        0x00005cd0:    00000001    ....    DCD    1
        0x00005cd4:    0000000b    ....    DCD    11
        0x00005cd8:    0000000d    ....    DCD    13
        0x00005cdc:    00000018    ....    DCD    24
        0x00005ce0:    00000027    '...    DCD    39
        0x00005ce4:    0000002b    +...    DCD    43
        0x00005ce8:    00000031    1...    DCD    49
        0x00005cec:    00000042    B...    DCD    66
        0x00005cf0:    00000004    ....    DCD    4
        0x00005cf4:    00000019    ....    DCD    25
        0x00005cf8:    00000024    $...    DCD    36
        0x00005cfc:    0000002f    /...    DCD    47
        0x00005d00:    0000005e    ^...    DCD    94
        0x00005d04:    00000070    p...    DCD    112
        0x00005d08:    00000007    ....    DCD    7
        0x00005d0c:    00000003    ....    DCD    3
    .constdata
    BsrKade
        0x00005d10:    00000000    ....    DCD    0
        0x00005d14:    00020001    ....    DCD    131073
        0x00005d18:    00030002    ....    DCD    196610
        0x00005d1c:    00050004    ....    DCD    327684
        0x00005d20:    00060005    ....    DCD    393221
        0x00005d24:    00070007    ....    DCD    458759
        0x00005d28:    00090008    ....    DCD    589832
        0x00005d2c:    000a000a    ....    DCD    655370
        0x00005d30:    000c000b    ....    DCD    786443
        0x00005d34:    000d000c    ....    DCD    851980
        0x00005d38:    000e000e    ....    DCD    917518
        0x00005d3c:    0010000f    ....    DCD    1048591
        0x00005d40:    00110011    ....    DCD    1114129
        0x00005d44:    00130012    ....    DCD    1245202
        0x00005d48:    00140013    ....    DCD    1310739
        0x00005d4c:    00160015    ....    DCD    1441813
        0x00005d50:    00170016    ....    DCD    1507350
        0x00005d54:    00180018    ....    DCD    1572888
        0x00005d58:    001a0019    ....    DCD    1703961
        0x00005d5c:    001b001a    ....    DCD    1769498
        0x00005d60:    001c001c    ....    DCD    1835036
        0x00005d64:    001e001d    ....    DCD    1966109
        0x00005d68:    001f001f    ....    DCD    2031647
        0x00005d6c:    00210020     .!.    DCD    2162720
        0x00005d70:    00220021    !.".    DCD    2228257
        0x00005d74:    00230023    #.#.    DCD    2293795
        0x00005d78:    00250024    $.%.    DCD    2424868
        0x00005d7c:    00260025    %.&.    DCD    2490405
        0x00005d80:    00280027    '.(.    DCD    2621479
        0x00005d84:    00290028    (.).    DCD    2687016
        0x00005d88:    002a002a    *.*.    DCD    2752554
        0x00005d8c:    002c002b    +.,.    DCD    2883627
        0x00005d90:    002d002c    ,.-.    DCD    2949164
        0x00005d94:    002e002e    ....    DCD    3014702
        0x00005d98:    0030002f    /.0.    DCD    3145775
        0x00005d9c:    00310030    0.1.    DCD    3211312
        0x00005da0:    00320032    2.2.    DCD    3276850
        0x00005da4:    00340033    3.4.    DCD    3407923
        0x00005da8:    00350034    4.5.    DCD    3473460
        0x00005dac:    00360036    6.6.    DCD    3538998
        0x00005db0:    00380037    7.8.    DCD    3670071
        0x00005db4:    00390038    8.9.    DCD    3735608
        0x00005db8:    003a003a    :.:.    DCD    3801146
        0x00005dbc:    003c003b    ;.<.    DCD    3932219
        0x00005dc0:    003d003c    <.=.    DCD    3997756
        0x00005dc4:    003e003e    >.>.    DCD    4063294
        0x00005dc8:    0040003f    ?.@.    DCD    4194367
        0x00005dcc:    00410040    @.A.    DCD    4259904
        0x00005dd0:    00420042    B.B.    DCD    4325442
        0x00005dd4:    00440043    C.D.    DCD    4456515
        0x00005dd8:    00450044    D.E.    DCD    4522052
        0x00005ddc:    00460046    F.F.    DCD    4587590
        0x00005de0:    00480047    G.H.    DCD    4718663
        0x00005de4:    00490048    H.I.    DCD    4784200
        0x00005de8:    004a004a    J.J.    DCD    4849738
        0x00005dec:    004c004b    K.L.    DCD    4980811
        0x00005df0:    004d004c    L.M.    DCD    5046348
        0x00005df4:    004e004d    M.N.    DCD    5111885
        0x00005df8:    004f004f    O.O.    DCD    5177423
        0x00005dfc:    00510050    P.Q.    DCD    5308496
        0x00005e00:    00520051    Q.R.    DCD    5374033
        0x00005e04:    00530053    S.S.    DCD    5439571
        0x00005e08:    00550054    T.U.    DCD    5570644
        0x00005e0c:    00560055    U.V.    DCD    5636181
        0x00005e10:    00570057    W.W.    DCD    5701719
        0x00005e14:    00580058    X.X.    DCD    5767256
        0x00005e18:    005a0059    Y.Z.    DCD    5898329
        0x00005e1c:    005b005a    Z.[.    DCD    5963866
        0x00005e20:    005c005c    \.\.    DCD    6029404
        0x00005e24:    005e005d    ].^.    DCD    6160477
        0x00005e28:    005f005e    ^._.    DCD    6226014
        0x00005e2c:    0060005f    _.`.    DCD    6291551
        0x00005e30:    00610061    a.a.    DCD    6357089
        0x00005e34:    00630062    b.c.    DCD    6488162
        0x00005e38:    00640063    c.d.    DCD    6553699
        0x00005e3c:    00650064    d.e.    DCD    6619236
        0x00005e40:    00660066    f.f.    DCD    6684774
        0x00005e44:    00680067    g.h.    DCD    6815847
        0x00005e48:    00690068    h.i.    DCD    6881384
        0x00005e4c:    006a0069    i.j.    DCD    6946921
        0x00005e50:    006b006b    k.k.    DCD    7012459
        0x00005e54:    006d006c    l.m.    DCD    7143532
        0x00005e58:    006e006d    m.n.    DCD    7209069
        0x00005e5c:    006f006e    n.o.    DCD    7274606
        0x00005e60:    00700070    p.p.    DCD    7340144
        0x00005e64:    00720071    q.r.    DCD    7471217
        0x00005e68:    00730072    r.s.    DCD    7536754
        0x00005e6c:    00740073    s.t.    DCD    7602291
        0x00005e70:    00750075    u.u.    DCD    7667829
        0x00005e74:    00760076    v.v.    DCD    7733366
        0x00005e78:    00780077    w.x.    DCD    7864439
        0x00005e7c:    00790078    x.y.    DCD    7929976
        0x00005e80:    007a007a    z.z.    DCD    7995514
        0x00005e84:    007b007b    {.{.    DCD    8061051
        0x00005e88:    007d007c    |.}.    DCD    8192124
        0x00005e8c:    007e007d    }.~.    DCD    8257661
        0x00005e90:    007f007e    ~...    DCD    8323198
        0x00005e94:    00800080    ....    DCD    8388736
        0x00005e98:    00810081    ....    DCD    8454273
        0x00005e9c:    00830082    ....    DCD    8585346
        0x00005ea0:    00840083    ....    DCD    8650883
        0x00005ea4:    00850084    ....    DCD    8716420
        0x00005ea8:    00860086    ....    DCD    8781958
        0x00005eac:    00870087    ....    DCD    8847495
        0x00005eb0:    00890088    ....    DCD    8978568
        0x00005eb4:    008a0089    ....    DCD    9044105
        0x00005eb8:    008b008a    ....    DCD    9109642
        0x00005ebc:    008c008c    ....    DCD    9175180
        0x00005ec0:    008d008d    ....    DCD    9240717
        0x00005ec4:    008f008e    ....    DCD    9371790
        0x00005ec8:    0090008f    ....    DCD    9437327
        0x00005ecc:    00910090    ....    DCD    9502864
        0x00005ed0:    00920092    ....    DCD    9568402
        0x00005ed4:    00930093    ....    DCD    9633939
        0x00005ed8:    00950094    ....    DCD    9765012
        0x00005edc:    00960095    ....    DCD    9830549
        0x00005ee0:    00970096    ....    DCD    9896086
        0x00005ee4:    00980098    ....    DCD    9961624
        0x00005ee8:    00990099    ....    DCD    10027161
        0x00005eec:    009a009a    ....    DCD    10092698
        0x00005ef0:    009c009b    ....    DCD    10223771
        0x00005ef4:    009d009c    ....    DCD    10289308
        0x00005ef8:    009e009d    ....    DCD    10354845
        0x00005efc:    009f009f    ....    DCD    10420383
        0x00005f00:    00a000a0    ....    DCD    10485920
        0x00005f04:    00a100a1    ....    DCD    10551457
        0x00005f08:    00a300a2    ....    DCD    10682530
        0x00005f0c:    00a400a3    ....    DCD    10748067
        0x00005f10:    00a500a4    ....    DCD    10813604
        0x00005f14:    00a600a5    ....    DCD    10879141
        0x00005f18:    00a700a7    ....    DCD    10944679
        0x00005f1c:    00a800a8    ....    DCD    11010216
        0x00005f20:    00aa00a9    ....    DCD    11141289
        0x00005f24:    00ab00aa    ....    DCD    11206826
        0x00005f28:    00ac00ab    ....    DCD    11272363
        0x00005f2c:    00ad00ac    ....    DCD    11337900
        0x00005f30:    00ae00ae    ....    DCD    11403438
        0x00005f34:    00af00af    ....    DCD    11468975
        0x00005f38:    00b000b0    ....    DCD    11534512
        0x00005f3c:    00b100b1    ....    DCD    11600049
        0x00005f40:    00b300b2    ....    DCD    11731122
        0x00005f44:    00b400b3    ....    DCD    11796659
        0x00005f48:    00b500b4    ....    DCD    11862196
        0x00005f4c:    00b600b5    ....    DCD    11927733
        0x00005f50:    00b700b7    ....    DCD    11993271
        0x00005f54:    00b800b8    ....    DCD    12058808
        0x00005f58:    00b900b9    ....    DCD    12124345
        0x00005f5c:    00ba00ba    ....    DCD    12189882
        0x00005f60:    00bc00bb    ....    DCD    12320955
        0x00005f64:    00bd00bc    ....    DCD    12386492
        0x00005f68:    00be00bd    ....    DCD    12452029
        0x00005f6c:    00bf00be    ....    DCD    12517566
        0x00005f70:    00c000c0    ....    DCD    12583104
        0x00005f74:    00c100c1    ....    DCD    12648641
        0x00005f78:    00c200c2    ....    DCD    12714178
        0x00005f7c:    00c300c3    ....    DCD    12779715
        0x00005f80:    00c500c4    ....    DCD    12910788
        0x00005f84:    00c600c5    ....    DCD    12976325
        0x00005f88:    00c700c6    ....    DCD    13041862
        0x00005f8c:    00c800c7    ....    DCD    13107399
        0x00005f90:    00c900c8    ....    DCD    13172936
        0x00005f94:    00ca00c9    ....    DCD    13238473
        0x00005f98:    00cb00cb    ....    DCD    13304011
        0x00005f9c:    00cc00cc    ....    DCD    13369548
        0x00005fa0:    00cd00cd    ....    DCD    13435085
        0x00005fa4:    00ce00ce    ....    DCD    13500622
        0x00005fa8:    00cf00cf    ....    DCD    13566159
        0x00005fac:    00d100d0    ....    DCD    13697232
        0x00005fb0:    00d200d1    ....    DCD    13762769
        0x00005fb4:    00d300d2    ....    DCD    13828306
        0x00005fb8:    00d400d3    ....    DCD    13893843
        0x00005fbc:    00d500d4    ....    DCD    13959380
        0x00005fc0:    00d600d5    ....    DCD    14024917
        0x00005fc4:    00d700d7    ....    DCD    14090455
        0x00005fc8:    00d800d8    ....    DCD    14155992
        0x00005fcc:    00d900d9    ....    DCD    14221529
        0x00005fd0:    00da00da    ....    DCD    14287066
        0x00005fd4:    00db00db    ....    DCD    14352603
        0x00005fd8:    00dc00dc    ....    DCD    14418140
        0x00005fdc:    00dd00dd    ....    DCD    14483677
        0x00005fe0:    00df00de    ....    DCD    14614750
        0x00005fe4:    00e000df    ....    DCD    14680287
        0x00005fe8:    00e100e0    ....    DCD    14745824
        0x00005fec:    00e200e1    ....    DCD    14811361
        0x00005ff0:    00e300e2    ....    DCD    14876898
        0x00005ff4:    00e400e3    ....    DCD    14942435
        0x00005ff8:    00e500e4    ....    DCD    15007972
        0x00005ffc:    00e600e5    ....    DCD    15073509
        0x00006000:    00e700e7    ....    DCD    15139047
        0x00006004:    00e800e8    ....    DCD    15204584
        0x00006008:    00e900e9    ....    DCD    15270121
        0x0000600c:    00ea00ea    ....    DCD    15335658
        0x00006010:    00eb00eb    ....    DCD    15401195
        0x00006014:    00ec00ec    ....    DCD    15466732
        0x00006018:    00ed00ed    ....    DCD    15532269
        0x0000601c:    00ee00ee    ....    DCD    15597806
        0x00006020:    00ef00ef    ....    DCD    15663343
        0x00006024:    00f000f0    ....    DCD    15728880
        0x00006028:    00f200f1    ....    DCD    15859953
        0x0000602c:    00f300f2    ....    DCD    15925490
        0x00006030:    00f400f3    ....    DCD    15991027
        0x00006034:    00f500f4    ....    DCD    16056564
        0x00006038:    00f600f5    ....    DCD    16122101
        0x0000603c:    00f700f6    ....    DCD    16187638
        0x00006040:    00f800f7    ....    DCD    16253175
        0x00006044:    00f900f8    ....    DCD    16318712
        0x00006048:    00fa00f9    ....    DCD    16384249
        0x0000604c:    00fb00fa    ....    DCD    16449786
        0x00006050:    00fc00fb    ....    DCD    16515323
        0x00006054:    00fd00fc    ....    DCD    16580860
        0x00006058:    00fe00fd    ....    DCD    16646397
        0x0000605c:    00ff00fe    ....    DCD    16711934
        0x00006060:    010000ff    ....    DCD    16777471
        0x00006064:    01010100    ....    DCD    16843008
        0x00006068:    01020101    ....    DCD    16908545
        0x0000606c:    01030102    ....    DCD    16974082
        0x00006070:    01040103    ....    DCD    17039619
        0x00006074:    01050105    ....    DCD    17105157
        0x00006078:    01060106    ....    DCD    17170694
        0x0000607c:    01070107    ....    DCD    17236231
        0x00006080:    01080108    ....    DCD    17301768
        0x00006084:    01090109    ....    DCD    17367305
        0x00006088:    010a010a    ....    DCD    17432842
        0x0000608c:    010b010b    ....    DCD    17498379
        0x00006090:    010c010c    ....    DCD    17563916
        0x00006094:    010d010d    ....    DCD    17629453
        0x00006098:    010e010e    ....    DCD    17694990
        0x0000609c:    010f010f    ....    DCD    17760527
        0x000060a0:    01100110    ....    DCD    17826064
        0x000060a4:    01110111    ....    DCD    17891601
        0x000060a8:    01120112    ....    DCD    17957138
        0x000060ac:    01130113    ....    DCD    18022675
        0x000060b0:    01140114    ....    DCD    18088212
        0x000060b4:    01150115    ....    DCD    18153749
        0x000060b8:    01160116    ....    DCD    18219286
        0x000060bc:    01170117    ....    DCD    18284823
        0x000060c0:    01180118    ....    DCD    18350360
        0x000060c4:    01190118    ....    DCD    18415896
        0x000060c8:    011a0119    ....    DCD    18481433
        0x000060cc:    011b011a    ....    DCD    18546970
        0x000060d0:    011c011b    ....    DCD    18612507
        0x000060d4:    011d011c    ....    DCD    18678044
        0x000060d8:    011e011d    ....    DCD    18743581
        0x000060dc:    011f011e    ....    DCD    18809118
        0x000060e0:    0120011f    .. .    DCD    18874655
        0x000060e4:    01210120     .!.    DCD    18940192
        0x000060e8:    01220121    !.".    DCD    19005729
        0x000060ec:    01230122    ".#.    DCD    19071266
        0x000060f0:    01240123    #.$.    DCD    19136803
        0x000060f4:    01250124    $.%.    DCD    19202340
        0x000060f8:    01260125    %.&.    DCD    19267877
        0x000060fc:    01270126    &.'.    DCD    19333414
        0x00006100:    01280127    '.(.    DCD    19398951
        0x00006104:    01290128    (.).    DCD    19464488
        0x00006108:    012a0129    ).*.    DCD    19530025
        0x0000610c:    012b012a    *.+.    DCD    19595562
        0x00006110:    012b012b    +.+.    DCD    19595563
        0x00006114:    012c012c    ,.,.    DCD    19661100
        0x00006118:    012d012d    -.-.    DCD    19726637
        0x0000611c:    012e012e    ....    DCD    19792174
        0x00006120:    012f012f    /./.    DCD    19857711
        0x00006124:    01300130    0.0.    DCD    19923248
        0x00006128:    01310131    1.1.    DCD    19988785
        0x0000612c:    01320132    2.2.    DCD    20054322
        0x00006130:    01330133    3.3.    DCD    20119859
        0x00006134:    01340134    4.4.    DCD    20185396
        0x00006138:    01350135    5.5.    DCD    20250933
        0x0000613c:    01360136    6.6.    DCD    20316470
        0x00006140:    01370136    6.7.    DCD    20382006
        0x00006144:    01380137    7.8.    DCD    20447543
        0x00006148:    01390138    8.9.    DCD    20513080
        0x0000614c:    013a0139    9.:.    DCD    20578617
        0x00006150:    013b013a    :.;.    DCD    20644154
        0x00006154:    013c013b    ;.<.    DCD    20709691
        0x00006158:    013d013c    <.=.    DCD    20775228
        0x0000615c:    013e013d    =.>.    DCD    20840765
        0x00006160:    013e013e    >.>.    DCD    20840766
        0x00006164:    013f013f    ?.?.    DCD    20906303
        0x00006168:    01400140    @.@.    DCD    20971840
        0x0000616c:    01410141    A.A.    DCD    21037377
        0x00006170:    01420142    B.B.    DCD    21102914
        0x00006174:    01430143    C.C.    DCD    21168451
        0x00006178:    01440144    D.D.    DCD    21233988
        0x0000617c:    01450145    E.E.    DCD    21299525
        0x00006180:    01460145    E.F.    DCD    21365061
        0x00006184:    01470146    F.G.    DCD    21430598
        0x00006188:    01480147    G.H.    DCD    21496135
        0x0000618c:    01490148    H.I.    DCD    21561672
        0x00006190:    014a0149    I.J.    DCD    21627209
        0x00006194:    014b014a    J.K.    DCD    21692746
        0x00006198:    014b014b    K.K.    DCD    21692747
        0x0000619c:    014c014c    L.L.    DCD    21758284
        0x000061a0:    014d014d    M.M.    DCD    21823821
        0x000061a4:    014e014e    N.N.    DCD    21889358
        0x000061a8:    014f014f    O.O.    DCD    21954895
        0x000061ac:    01500150    P.P.    DCD    22020432
        0x000061b0:    01510151    Q.Q.    DCD    22085969
        0x000061b4:    01520151    Q.R.    DCD    22151505
        0x000061b8:    01530152    R.S.    DCD    22217042
        0x000061bc:    01540153    S.T.    DCD    22282579
        0x000061c0:    01550154    T.U.    DCD    22348116
        0x000061c4:    01560155    U.V.    DCD    22413653
        0x000061c8:    01560156    V.V.    DCD    22413654
        0x000061cc:    01570157    W.W.    DCD    22479191
        0x000061d0:    01580158    X.X.    DCD    22544728
        0x000061d4:    01590159    Y.Y.    DCD    22610265
        0x000061d8:    015a015a    Z.Z.    DCD    22675802
        0x000061dc:    015b015a    Z.[.    DCD    22741338
        0x000061e0:    015c015b    [.\.    DCD    22806875
        0x000061e4:    015d015c    \.].    DCD    22872412
        0x000061e8:    015e015d    ].^.    DCD    22937949
        0x000061ec:    015f015e    ^._.    DCD    23003486
        0x000061f0:    015f015f    _._.    DCD    23003487
        0x000061f4:    01600160    `.`.    DCD    23069024
        0x000061f8:    01610161    a.a.    DCD    23134561
        0x000061fc:    01620162    b.b.    DCD    23200098
        0x00006200:    01630163    c.c.    DCD    23265635
        0x00006204:    01640163    c.d.    DCD    23331171
        0x00006208:    01650164    d.e.    DCD    23396708
        0x0000620c:    01660165    e.f.    DCD    23462245
        0x00006210:    01670166    f.g.    DCD    23527782
        0x00006214:    01670167    g.g.    DCD    23527783
        0x00006218:    01680168    h.h.    DCD    23593320
        0x0000621c:    01690169    i.i.    DCD    23658857
        0x00006220:    016a016a    j.j.    DCD    23724394
        0x00006224:    016b016b    k.k.    DCD    23789931
        0x00006228:    016c016b    k.l.    DCD    23855467
        0x0000622c:    016d016c    l.m.    DCD    23921004
        0x00006230:    016e016d    m.n.    DCD    23986541
        0x00006234:    016f016e    n.o.    DCD    24052078
        0x00006238:    016f016f    o.o.    DCD    24052079
        0x0000623c:    01700170    p.p.    DCD    24117616
        0x00006240:    01710171    q.q.    DCD    24183153
        0x00006244:    01720172    r.r.    DCD    24248690
        0x00006248:    01730172    r.s.    DCD    24314226
        0x0000624c:    01740173    s.t.    DCD    24379763
        0x00006250:    01750174    t.u.    DCD    24445300
        0x00006254:    01760175    u.v.    DCD    24510837
        0x00006258:    01760176    v.v.    DCD    24510838
        0x0000625c:    01770177    w.w.    DCD    24576375
        0x00006260:    01780178    x.x.    DCD    24641912
        0x00006264:    01790179    y.y.    DCD    24707449
        0x00006268:    017a0179    y.z.    DCD    24772985
        0x0000626c:    017b017a    z.{.    DCD    24838522
        0x00006270:    017c017b    {.|.    DCD    24904059
        0x00006274:    017c017c    |.|.    DCD    24904060
        0x00006278:    017d017d    }.}.    DCD    24969597
        0x0000627c:    017e017e    ~.~.    DCD    25035134
        0x00006280:    017f017f    ....    DCD    25100671
        0x00006284:    0180017f    ....    DCD    25166207
        0x00006288:    01810180    ....    DCD    25231744
        0x0000628c:    01820181    ....    DCD    25297281
        0x00006290:    01820182    ....    DCD    25297282
        0x00006294:    01830183    ....    DCD    25362819
        0x00006298:    01840184    ....    DCD    25428356
        0x0000629c:    01850185    ....    DCD    25493893
        0x000062a0:    01860185    ....    DCD    25559429
        0x000062a4:    01870186    ....    DCD    25624966
        0x000062a8:    01880187    ....    DCD    25690503
        0x000062ac:    01880188    ....    DCD    25690504
        0x000062b0:    01890189    ....    DCD    25756041
        0x000062b4:    018a018a    ....    DCD    25821578
        0x000062b8:    018b018b    ....    DCD    25887115
        0x000062bc:    018c018b    ....    DCD    25952651
        0x000062c0:    018d018c    ....    DCD    26018188
        0x000062c4:    018d018d    ....    DCD    26018189
        0x000062c8:    018e018e    ....    DCD    26083726
        0x000062cc:    018f018f    ....    DCD    26149263
        0x000062d0:    01900190    ....    DCD    26214800
        0x000062d4:    01910190    ....    DCD    26280336
        0x000062d8:    01920191    ....    DCD    26345873
        0x000062dc:    01920192    ....    DCD    26345874
        0x000062e0:    01930193    ....    DCD    26411411
        0x000062e4:    01940194    ....    DCD    26476948
        0x000062e8:    01950195    ....    DCD    26542485
        0x000062ec:    01960195    ....    DCD    26608021
        0x000062f0:    01970196    ....    DCD    26673558
        0x000062f4:    01970197    ....    DCD    26673559
        0x000062f8:    01980198    ....    DCD    26739096
        0x000062fc:    01990199    ....    DCD    26804633
        0x00006300:    019a019a    ....    DCD    26870170
        0x00006304:    019b019a    ....    DCD    26935706
        0x00006308:    019c019b    ....    DCD    27001243
        0x0000630c:    019c019c    ....    DCD    27001244
        0x00006310:    019d019d    ....    DCD    27066781
        0x00006314:    019e019e    ....    DCD    27132318
        0x00006318:    019f019f    ....    DCD    27197855
        0x0000631c:    01a0019f    ....    DCD    27263391
        0x00006320:    01a101a0    ....    DCD    27328928
        0x00006324:    01a101a1    ....    DCD    27328929
        0x00006328:    01a201a2    ....    DCD    27394466
        0x0000632c:    01a301a3    ....    DCD    27460003
        0x00006330:    01a401a3    ....    DCD    27525539
        0x00006334:    01a501a4    ....    DCD    27591076
        0x00006338:    01a501a5    ....    DCD    27591077
        0x0000633c:    01a601a6    ....    DCD    27656614
        0x00006340:    01a701a7    ....    DCD    27722151
        0x00006344:    01a801a8    ....    DCD    27787688
        0x00006348:    01a901a8    ....    DCD    27853224
        0x0000634c:    01aa01a9    ....    DCD    27918761
        0x00006350:    01aa01aa    ....    DCD    27918762
        0x00006354:    01ab01ab    ....    DCD    27984299
        0x00006358:    01ac01ac    ....    DCD    28049836
        0x0000635c:    01ad01ac    ....    DCD    28115372
        0x00006360:    01ae01ad    ....    DCD    28180909
        0x00006364:    01ae01ae    ....    DCD    28180910
        0x00006368:    01af01af    ....    DCD    28246447
        0x0000636c:    01b001b0    ....    DCD    28311984
        0x00006370:    01b101b0    ....    DCD    28377520
        0x00006374:    01b201b1    ....    DCD    28443057
        0x00006378:    01b201b2    ....    DCD    28443058
        0x0000637c:    01b301b3    ....    DCD    28508595
        0x00006380:    01b401b4    ....    DCD    28574132
        0x00006384:    01b501b4    ....    DCD    28639668
        0x00006388:    01b601b5    ....    DCD    28705205
        0x0000638c:    01b601b6    ....    DCD    28705206
        0x00006390:    01b701b7    ....    DCD    28770743
        0x00006394:    01b801b8    ....    DCD    28836280
        0x00006398:    01b901b8    ....    DCD    28901816
        0x0000639c:    01ba01b9    ....    DCD    28967353
        0x000063a0:    01ba01ba    ....    DCD    28967354
        0x000063a4:    01bb01bb    ....    DCD    29032891
        0x000063a8:    01bc01bc    ....    DCD    29098428
        0x000063ac:    01bd01bc    ....    DCD    29163964
        0x000063b0:    01be01bd    ....    DCD    29229501
        0x000063b4:    01be01be    ....    DCD    29229502
        0x000063b8:    01bf01bf    ....    DCD    29295039
        0x000063bc:    01c001bf    ....    DCD    29360575
        0x000063c0:    01c101c0    ....    DCD    29426112
        0x000063c4:    01c101c1    ....    DCD    29426113
        0x000063c8:    01c201c2    ....    DCD    29491650
        0x000063cc:    01c301c3    ....    DCD    29557187
        0x000063d0:    01c401c3    ....    DCD    29622723
        0x000063d4:    01c501c4    ....    DCD    29688260
        0x000063d8:    01c501c5    ....    DCD    29688261
        0x000063dc:    01c601c6    ....    DCD    29753798
        0x000063e0:    01c701c7    ....    DCD    29819335
        0x000063e4:    01c801c7    ....    DCD    29884871
        0x000063e8:    01c801c8    ....    DCD    29884872
        0x000063ec:    01c901c9    ....    DCD    29950409
        0x000063f0:    01ca01ca    ....    DCD    30015946
        0x000063f4:    01cb01ca    ....    DCD    30081482
        0x000063f8:    01cc01cb    ....    DCD    30147019
        0x000063fc:    01cc01cc    ....    DCD    30147020
        0x00006400:    01cd01cd    ....    DCD    30212557
        0x00006404:    01ce01ce    ....    DCD    30278094
        0x00006408:    01cf01ce    ....    DCD    30343630
        0x0000640c:    01cf01cf    ....    DCD    30343631
        0x00006410:    01d001d0    ....    DCD    30409168
        0x00006414:    01d101d1    ....    DCD    30474705
        0x00006418:    01d201d1    ....    DCD    30540241
        0x0000641c:    01d301d2    ....    DCD    30605778
        0x00006420:    01d301d3    ....    DCD    30605779
        0x00006424:    01d401d4    ....    DCD    30671316
        0x00006428:    01d501d4    ....    DCD    30736852
        0x0000642c:    01d601d5    ....    DCD    30802389
        0x00006430:    01d601d6    ....    DCD    30802390
        0x00006434:    01d701d7    ....    DCD    30867927
        0x00006438:    01d801d7    ....    DCD    30933463
        0x0000643c:    01d901d8    ....    DCD    30999000
        0x00006440:    01d901d9    ....    DCD    30999001
        0x00006444:    01da01da    ....    DCD    31064538
        0x00006448:    01db01db    ....    DCD    31130075
        0x0000644c:    01dc01db    ....    DCD    31195611
        0x00006450:    01dc01dc    ....    DCD    31195612
        0x00006454:    01dd01dd    ....    DCD    31261149
        0x00006458:    01de01de    ....    DCD    31326686
        0x0000645c:    01df01de    ....    DCD    31392222
        0x00006460:    01df01df    ....    DCD    31392223
        0x00006464:    01e001e0    ....    DCD    31457760
        0x00006468:    01e101e1    ....    DCD    31523297
        0x0000646c:    01e201e1    ....    DCD    31588833
        0x00006470:    01e201e2    ....    DCD    31588834
        0x00006474:    01e301e3    ....    DCD    31654371
        0x00006478:    01e401e4    ....    DCD    31719908
        0x0000647c:    01e501e4    ....    DCD    31785444
        0x00006480:    01e501e5    ....    DCD    31785445
        0x00006484:    01e601e6    ....    DCD    31850982
        0x00006488:    01e701e7    ....    DCD    31916519
        0x0000648c:    01e801e7    ....    DCD    31982055
        0x00006490:    01e801e8    ....    DCD    31982056
        0x00006494:    01e901e9    ....    DCD    32047593
        0x00006498:    01ea01ea    ....    DCD    32113130
        0x0000649c:    01eb01ea    ....    DCD    32178666
        0x000064a0:    01eb01eb    ....    DCD    32178667
        0x000064a4:    01ec01ec    ....    DCD    32244204
        0x000064a8:    01ed01ed    ....    DCD    32309741
        0x000064ac:    01ee01ed    ....    DCD    32375277
        0x000064b0:    01ee01ee    ....    DCD    32375278
        0x000064b4:    01ef01ef    ....    DCD    32440815
        0x000064b8:    01f001ef    ....    DCD    32506351
        0x000064bc:    01f101f0    ....    DCD    32571888
        0x000064c0:    01f101f1    ....    DCD    32571889
        0x000064c4:    01f201f2    ....    DCD    32637426
        0x000064c8:    01f301f2    ....    DCD    32702962
        0x000064cc:    01f401f3    ....    DCD    32768499
        0x000064d0:    01f401f4    ....    DCD    32768500
        0x000064d4:    01f501f5    ....    DCD    32834037
        0x000064d8:    01f601f5    ....    DCD    32899573
        0x000064dc:    01f601f6    ....    DCD    32899574
        0x000064e0:    01f701f7    ....    DCD    32965111
        0x000064e4:    01f801f8    ....    DCD    33030648
        0x000064e8:    01f901f8    ....    DCD    33096184
        0x000064ec:    01f901f9    ....    DCD    33096185
        0x000064f0:    01fa01fa    ....    DCD    33161722
        0x000064f4:    01fb01fa    ....    DCD    33227258
        0x000064f8:    01fc01fb    ....    DCD    33292795
        0x000064fc:    01fc01fc    ....    DCD    33292796
        0x00006500:    01fd01fd    ....    DCD    33358333
        0x00006504:    01fe01fd    ....    DCD    33423869
        0x00006508:    01fe01fe    ....    DCD    33423870
        0x0000650c:    01ff01ff    ....    DCD    33489407
    .constdata
    BsrKory
        0x00006510:    00000001    ....    DCD    1
        0x00006514:    00000003    ....    DCD    3
        0x00006518:    00000005    ....    DCD    5
        0x0000651c:    00000007    ....    DCD    7
        0x00006520:    00000009    ....    DCD    9
        0x00006524:    0000000b    ....    DCD    11
        0x00006528:    0000000e    ....    DCD    14
        0x0000652c:    00000010    ....    DCD    16
        0x00006530:    00000013    ....    DCD    19
        0x00006534:    00000016    ....    DCD    22
        0x00006538:    0000001a    ....    DCD    26
        0x0000653c:    0000001d    ....    DCD    29
        0x00006540:    00000021    !...    DCD    33
        0x00006544:    00000025    %...    DCD    37
        0x00006548:    0000002a    *...    DCD    42
        0x0000654c:    0000002f    /...    DCD    47
        0x00006550:    00000035    5...    DCD    53
        0x00006554:    0000003b    ;...    DCD    59
        0x00006558:    00000042    B...    DCD    66
        0x0000655c:    0000004a    J...    DCD    74
        0x00006560:    00000053    S...    DCD    83
        0x00006564:    0000005d    ]...    DCD    93
        0x00006568:    00000067    g...    DCD    103
        0x0000656c:    00000073    s...    DCD    115
        0x00006570:    00000081    ....    DCD    129
    .constdata
    BsrJudy
        0x00006574:    53786946    FixS    DCD    1400400198
        0x00006578:    31566d69    imV1    DCD    827747689
        0x0000657c:    0000        ..      DCW    0
    .constdata
    BsrKala
        0x0000657e:    0400        ..      DCW    1024
        0x00006580:    04000400    ....    DCD    67109888
        0x00006584:    04000400    ....    DCD    67109888
        0x00006588:    04000400    ....    DCD    67109888
        0x0000658c:    04000400    ....    DCD    67109888
        0x00006590:    04000400    ....    DCD    67109888
        0x00006594:    04000400    ....    DCD    67109888
        0x00006598:    04000400    ....    DCD    67109888
        0x0000659c:    04000400    ....    DCD    67109888
        0x000065a0:    04000400    ....    DCD    67109888
        0x000065a4:    04000400    ....    DCD    67109888
        0x000065a8:    04000400    ....    DCD    67109888
        0x000065ac:    03ea03fd    ....    DCD    65668093
        0x000065b0:    038d03c4    ....    DCD    59573188
        0x000065b4:    02ec0344    D...    DCD    49021764
        0x000065b8:    02140286    ....    DCD    34865798
        0x000065bc:    01140197    ....    DCD    18088343
        0x000065c0:    0000008b    ....    DCD    139
        0x000065c4:    feecff75    u...    DCD    4276944757
        0x000065c8:    fdecfe69    i...    DCD    4260167273
        0x000065cc:    fd14fd7a    z...    DCD    4246011258
        0x000065d0:    fc73fcbc    ..s.    DCD    4235459772
        0x000065d4:    fc16fc3c    <...    DCD    4229364796
        0x000065d8:    03f6fc03    ....    DCD    66518019
        0x000065dc:    031a03ab    ....    DCD    52036523
        0x000065e0:    0156024e    N.V.    DCD    22413902
        0x000065e4:    ff300045    E.0.    DCD    4281335877
        0x000065e8:    fd46fe29    ).F.    DCD    4249288233
        0x000065ec:    fc26fc96    ..&.    DCD    4230413462
        0x000065f0:    fc26fc01    ..&.    DCD    4230413313
        0x000065f4:    fd46fc96    ..F.    DCD    4249287830
        0x000065f8:    ff30fe29    ).0.    DCD    4281400873
        0x000065fc:    01560045    E.V.    DCD    22413381
        0x00006600:    031a024e    N...    DCD    52036174
        0x00006604:    03f603ab    ....    DCD    66454443
        0x00006608:    034403ea    ..D.    DCD    54789098
        0x0000660c:    008b0214    ....    DCD    9110036
        0x00006610:    fd7afeec    ..z.    DCD    4252696300
        0x00006614:    fc03fc73    s...    DCD    4228119667
        0x00006618:    fd14fc3c    <...    DCD    4246010940
        0x0000661c:    0000fe69    i...    DCD    65129
        0x00006620:    02ec0197    ....    DCD    49021335
        0x00006624:    03fd03c4    ....    DCD    66913220
        0x00006628:    0286038d    ....    DCD    42337165
        0x0000662c:    ff750114    ..u.    DCD    4285858068
        0x00006630:    fcbcfdec    ....    DCD    4240244204
        0x00006634:    03dafc16    ....    DCD    64683030
        0x00006638:    00d002ba    ....    DCD    13632186
        0x0000663c:    fce6feaa    ....    DCD    4242996906
        0x00006640:    fc55fc0a    ..U.    DCD    4233493514
        0x00006644:    ffbbfdb2    ....    DCD    4290510258
        0x00006648:    036a01d7    ..j.    DCD    57278935
        0x0000664c:    036a03ff    ..j.    DCD    57279487
        0x00006650:    ffbb01d7    ....    DCD    4290445783
        0x00006654:    fc55fdb2    ..U.    DCD    4233493938
        0x00006658:    fce6fc0a    ....    DCD    4242996234
        0x0000665c:    00d0feaa    ....    DCD    13696682
        0x00006660:    03da02ba    ....    DCD    64619194
        0x00006664:    021403c4    ....    DCD    34866116
        0x00006668:    fd14ff75    u...    DCD    4246011765
        0x0000666c:    fcbcfc03    ....    DCD    4240243715
        0x00006670:    0197feec    ....    DCD    26738412
        0x00006674:    03ea038d    ....    DCD    65667981
        0x00006678:    00000286    ....    DCD    646
        0x0000667c:    fc16fd7a    z...    DCD    4229365114
        0x00006680:    fe69fc73    s.i.    DCD    4268358771
        0x00006684:    03440114    ..D.    DCD    54788372
        0x00006688:    02ec03fd    ....    DCD    49021949
        0x0000668c:    fdec008b    ....    DCD    4260102283
        0x00006690:    03abfc3c    <...    DCD    61602876
        0x00006694:    fe290156    V.).    DCD    4264100182
        0x00006698:    fc96fc26    &...    DCD    4237753382
        0x0000669c:    024eff30    0.N.    DCD    38731568
        0x000066a0:    031a03f6    ....    DCD    52036598
        0x000066a4:    fd460045    E.F.    DCD    4249223237
        0x000066a8:    fd46fc01    ..F.    DCD    4249287681
        0x000066ac:    031a0045    E...    DCD    52035653
        0x000066b0:    024e03f6    ..N.    DCD    38667254
        0x000066b4:    fc96ff30    0...    DCD    4237754160
        0x000066b8:    fe29fc26    &.).    DCD    4264164390
        0x000066bc:    03ab0156    V...    DCD    61538646
        0x000066c0:    008b038d    ....    DCD    9110413
        0x000066c4:    fc16fd14    ....    DCD    4229365012
        0x000066c8:    0214fe69    i...    DCD    34930281
        0x000066cc:    028603fd    ....    DCD    42337277
        0x000066d0:    fc3cfeec    ..<.    DCD    4231855852
        0x000066d4:    0000fcbc    ....    DCD    64700
        0x000066d8:    03c40344    D...    DCD    63177540
        0x000066dc:    fd7a0114    ..z.    DCD    4252631316
        0x000066e0:    fdecfc03    ....    DCD    4260166659
        0x000066e4:    03ea0197    ....    DCD    65667479
        0x000066e8:    ff7502ec    ..u.    DCD    4285858540
        0x000066ec:    036afc73    s.j.    DCD    57343091
        0x000066f0:    fc55ffbb    ..U.    DCD    4233494459
        0x000066f4:    00d0fce6    ....    DCD    13696230
        0x000066f8:    02ba03da    ....    DCD    45745114
        0x000066fc:    fc0afeaa    ....    DCD    4228578986
        0x00006700:    01d7fdb2    ....    DCD    30932402
        0x00006704:    01d703ff    ....    DCD    30868479
        0x00006708:    fc0afdb2    ....    DCD    4228578738
        0x0000670c:    02bafeaa    ....    DCD    45809322
        0x00006710:    00d003da    ....    DCD    13632474
        0x00006714:    fc55fce6    ..U.    DCD    4233493734
        0x00006718:    036affbb    ..j.    DCD    57343931
        0x0000671c:    feec0344    D...    DCD    4276880196
        0x00006720:    fe69fc03    ..i.    DCD    4268358659
        0x00006724:    038d02ec    ....    DCD    59572972
        0x00006728:    fc16ff75    u...    DCD    4229365621
        0x0000672c:    0286fdec    ....    DCD    42401260
        0x00006730:    000003c4    ....    DCD    964
        0x00006734:    fd7afc3c    <.z.    DCD    4252695612
        0x00006738:    03ea0214    ....    DCD    65667604
        0x0000673c:    fc73008b    ..s.    DCD    4235395211
        0x00006740:    0197fd14    ....    DCD    26737940
        0x00006744:    011403fd    ....    DCD    18088957
        0x00006748:    031afcbc    ....    DCD    52100284
        0x0000674c:    fc26fe29    ).&.    DCD    4230413865
        0x00006750:    03f60045    E...    DCD    66453573
        0x00006754:    fc960156    V...    DCD    4237689174
        0x00006758:    024efd46    F.N.    DCD    38731078
        0x0000675c:    ff3003ab    ..0.    DCD    4281336747
        0x00006760:    ff30fc01    ..0.    DCD    4281400321
        0x00006764:    024e03ab    ..N.    DCD    38667179
        0x00006768:    fc96fd46    F...    DCD    4237753670
        0x0000676c:    03f60156    V...    DCD    66453846
        0x00006770:    fc260045    E.&.    DCD    4230348869
        0x00006774:    031afe29    )...    DCD    52100649
        0x00006778:    fd7a02ec    ..z.    DCD    4252631788
        0x0000677c:    0214fcbc    ....    DCD    34929852
        0x00006780:    fe69038d    ..i.    DCD    4268295053
        0x00006784:    0114fc3c    <...    DCD    18152508
        0x00006788:    ff7503ea    ..u.    DCD    4285858794
        0x0000678c:    0000fc03    ....    DCD    64515
        0x00006790:    008b03fd    ....    DCD    9110525
        0x00006794:    feecfc16    ....    DCD    4276943894
        0x00006798:    019703c4    ....    DCD    26674116
        0x0000679c:    fdecfc73    s...    DCD    4260166771
        0x000067a0:    02860344    D...    DCD    42337092
        0x000067a4:    02bafd14    ....    DCD    45808916
        0x000067a8:    fdb2fce6    ....    DCD    4256365798
        0x000067ac:    01d7036a    j...    DCD    30868330
        0x000067b0:    feaafc55    U...    DCD    4272618581
        0x000067b4:    00d003da    ....    DCD    13632474
        0x000067b8:    ffbbfc0a    ....    DCD    4290509834
        0x000067bc:    ffbb03ff    ....    DCD    4290446335
        0x000067c0:    00d0fc0a    ....    DCD    13696010
        0x000067c4:    feaa03da    ....    DCD    4272554970
        0x000067c8:    01d7fc55    U...    DCD    30932053
        0x000067cc:    fdb2036a    j...    DCD    4256301930
        0x000067d0:    02bafce6    ....    DCD    45808870
        0x000067d4:    fc730286    ..s.    DCD    4235395718
        0x000067d8:    03fdfeec    ....    DCD    66977516
        0x000067dc:    fc3cff75    u.<.    DCD    4231855989
        0x000067e0:    02ec0214    ....    DCD    49021460
        0x000067e4:    fe69fcbc    ..i.    DCD    4268358844
        0x000067e8:    000003ea    ....    DCD    1002
        0x000067ec:    0197fc16    ....    DCD    26737686
        0x000067f0:    fd140344    D...    DCD    4245947204
        0x000067f4:    03c4fdec    ....    DCD    63241708
        0x000067f8:    fc03008b    ....    DCD    4228055179
        0x000067fc:    038d0114    ....    DCD    59572500
        0x00006800:    fd7a        z.      DCW    64890
    .constdata
    BsrKira
        0x00006802:    0000        ..      DCW    0
        0x00006804:    fff4fffa    ....    DCD    4294246394
        0x00006808:    ffe7ffee    ....    DCD    4293394414
        0x0000680c:    ffdbffe1    ....    DCD    4292607969
        0x00006810:    ffcfffd5    ....    DCD    4291821525
        0x00006814:    ffc2ffc8    ....    DCD    4290969544
        0x00006818:    ffb6ffbc    ....    DCD    4290183100
        0x0000681c:    ffaaffb0    ....    DCD    4289396656
        0x00006820:    ff9fffa4    ....    DCD    4288675748
        0x00006824:    ff93ff99    ....    DCD    4287889305
        0x00006828:    ff88ff8d    ....    DCD    4287168397
        0x0000682c:    ff7dff82    ..}.    DCD    4286447490
        0x00006830:    ff72ff78    x.r.    DCD    4285726584
        0x00006834:    ff68ff6d    m.h.    DCD    4285071213
        0x00006838:    ff5eff63    c.^.    DCD    4284415843
        0x0000683c:    ff55ff59    Y.U.    DCD    4283826009
        0x00006840:    ff4bff50    P.K.    DCD    4283170640
        0x00006844:    ff43ff47    G.C.    DCD    4282646343
        0x00006848:    ff3bff3f    ?.;.    DCD    4282122047
        0x0000684c:    ff33ff37    7.3.    DCD    4281597751
        0x00006850:    ff2cff2f    /.,.    DCD    4281138991
        0x00006854:    ff25ff28    (.%.    DCD    4280680232
        0x00006858:    ff1fff22    "...    DCD    4280287010
        0x0000685c:    ff19ff1c    ....    DCD    4279893788
        0x00006860:    ff14ff16    ....    DCD    4279566102
        0x00006864:    ff0fff12    ....    DCD    4279238418
        0x00006868:    ff0cff0d    ....    DCD    4279041805
        0x0000686c:    ff08ff0a    ....    DCD    4278779658
        0x00006870:    ff05ff07    ....    DCD    4278583047
        0x00006874:    ff03ff04    ....    DCD    4278451972
        0x00006878:    ff02ff02    ....    DCD    4278386434
        0x0000687c:    ff01ff01    ....    DCD    4278320897
        0x00006880:    ff00ff01    ....    DCD    4278255361
        0x00006884:    ff01ff01    ....    DCD    4278320897
        0x00006888:    ff02ff01    ....    DCD    4278386433
        0x0000688c:    ff03ff02    ....    DCD    4278451970
        0x00006890:    ff05ff04    ....    DCD    4278583044
        0x00006894:    ff08ff07    ....    DCD    4278779655
        0x00006898:    ff0cff0a    ....    DCD    4279041802
        0x0000689c:    ff0fff0d    ....    DCD    4279238413
        0x000068a0:    ff14ff12    ....    DCD    4279566098
        0x000068a4:    ff19ff16    ....    DCD    4279893782
        0x000068a8:    ff1fff1c    ....    DCD    4280287004
        0x000068ac:    ff25ff22    ".%.    DCD    4280680226
        0x000068b0:    ff2cff28    (.,.    DCD    4281138984
        0x000068b4:    ff33ff2f    /.3.    DCD    4281597743
        0x000068b8:    ff3bff37    7.;.    DCD    4282122039
        0x000068bc:    ff43ff3f    ?.C.    DCD    4282646335
        0x000068c0:    ff4bff47    G.K.    DCD    4283170631
        0x000068c4:    ff55ff50    P.U.    DCD    4283826000
        0x000068c8:    ff5eff59    Y.^.    DCD    4284415833
        0x000068cc:    ff68ff63    c.h.    DCD    4285071203
        0x000068d0:    ff72ff6d    m.r.    DCD    4285726573
        0x000068d4:    ff7dff78    x.}.    DCD    4286447480
        0x000068d8:    ff88ff82    ....    DCD    4287168386
        0x000068dc:    ff93ff8d    ....    DCD    4287889293
        0x000068e0:    ff9fff99    ....    DCD    4288675737
        0x000068e4:    ffaaffa4    ....    DCD    4289396644
        0x000068e8:    ffb6ffb0    ....    DCD    4290183088
        0x000068ec:    ffc2ffbc    ....    DCD    4290969532
        0x000068f0:    ffcfffc8    ....    DCD    4291821512
        0x000068f4:    ffdbffd5    ....    DCD    4292607957
        0x000068f8:    ffe7ffe1    ....    DCD    4293394401
        0x000068fc:    fff4ffee    ....    DCD    4294246382
        0x00006900:    0000fffa    ....    DCD    65530
    BsrKirk
        0x00006904:    00ff0100    ....    DCD    16711936
        0x00006908:    00ff00ff    ....    DCD    16711935
        0x0000690c:    00fe00fe    ....    DCD    16646398
        0x00006910:    00fc00fd    ....    DCD    16515325
        0x00006914:    00f900fb    ....    DCD    16318715
        0x00006918:    00f600f8    ....    DCD    16122104
        0x0000691c:    00f300f4    ....    DCD    15925492
        0x00006920:    00ee00f1    ....    DCD    15597809
        0x00006924:    00ea00ec    ....    DCD    15335660
        0x00006928:    00e400e7    ....    DCD    14942439
        0x0000692c:    00de00e1    ....    DCD    14549217
        0x00006930:    00d800db    ....    DCD    14155995
        0x00006934:    00d100d4    ....    DCD    13697236
        0x00006938:    00c900cd    ....    DCD    13172941
        0x0000693c:    00c100c5    ....    DCD    12648645
        0x00006940:    00b900bd    ....    DCD    12124349
        0x00006944:    00b000b5    ....    DCD    11534517
        0x00006948:    00a700ab    ....    DCD    10944683
        0x0000694c:    009d00a2    ....    DCD    10289314
        0x00006950:    00930098    ....    DCD    9633944
        0x00006954:    0088008e    ....    DCD    8913038
        0x00006958:    007e0083    ..~.    DCD    8257667
        0x0000695c:    00730078    x.s.    DCD    7536760
        0x00006960:    0067006d    m.g.    DCD    6750317
        0x00006964:    005c0061    a.\.    DCD    6029409
        0x00006968:    00500056    V.P.    DCD    5242966
        0x0000696c:    0044004a    J.D.    DCD    4456522
        0x00006970:    0038003e    >.8.    DCD    3670078
        0x00006974:    002b0031    1.+.    DCD    2818097
        0x00006978:    001f0025    %...    DCD    2031653
        0x0000697c:    00120019    ....    DCD    1179673
        0x00006980:    0006000c    ....    DCD    393228
        0x00006984:    fffa0000    ....    DCD    4294574080
        0x00006988:    ffeefff4    ....    DCD    4293853172
        0x0000698c:    ffe1ffe7    ....    DCD    4293001191
        0x00006990:    ffd5ffdb    ....    DCD    4292214747
        0x00006994:    ffc8ffcf    ....    DCD    4291362767
        0x00006998:    ffbcffc2    ....    DCD    4290576322
        0x0000699c:    ffb0ffb6    ....    DCD    4289789878
        0x000069a0:    ffa4ffaa    ....    DCD    4289003434
        0x000069a4:    ff99ff9f    ....    DCD    4288282527
        0x000069a8:    ff8dff93    ....    DCD    4287496083
        0x000069ac:    ff82ff88    ....    DCD    4286775176
        0x000069b0:    ff78ff7d    }.x.    DCD    4286119805
        0x000069b4:    ff6dff72    r.m.    DCD    4285398898
        0x000069b8:    ff63ff68    h.c.    DCD    4284743528
        0x000069bc:    ff59ff5e    ^.Y.    DCD    4284088158
        0x000069c0:    ff50ff55    U.P.    DCD    4283498325
        0x000069c4:    ff47ff4b    K.G.    DCD    4282908491
        0x000069c8:    ff3fff43    C.?.    DCD    4282384195
        0x000069cc:    ff37ff3b    ;.7.    DCD    4281859899
        0x000069d0:    ff2fff33    3./.    DCD    4281335603
        0x000069d4:    ff28ff2c    ,.(.    DCD    4280876844
        0x000069d8:    ff22ff25    %.".    DCD    4280483621
        0x000069dc:    ff1cff1f    ....    DCD    4280090399
        0x000069e0:    ff16ff19    ....    DCD    4279697177
        0x000069e4:    ff12ff14    ....    DCD    4279435028
        0x000069e8:    ff0dff0f    ....    DCD    4279107343
        0x000069ec:    ff0aff0c    ....    DCD    4278910732
        0x000069f0:    ff07ff08    ....    DCD    4278714120
        0x000069f4:    ff04ff05    ....    DCD    4278517509
        0x000069f8:    ff02ff03    ....    DCD    4278386435
        0x000069fc:    ff01ff02    ....    DCD    4278320898
        0x00006a00:    ff01ff01    ....    DCD    4278320897
        0x00006a04:    ff00        ..      DCW    65280
    BsrKobe
        0x00006a06:    0000        ..      DCW    0
        0x00006a08:    00400080    ..@.    DCD    4194432
        0x00006a0c:    002000c0    .. .    DCD    2097344
        0x00006a10:    006000a0    ..`.    DCD    6291616
        0x00006a14:    001000e0    ....    DCD    1048800
        0x00006a18:    00500090    ..P.    DCD    5243024
        0x00006a1c:    003000d0    ..0.    DCD    3145936
        0x00006a20:    007000b0    ..p.    DCD    7340208
        0x00006a24:    000800f0    ....    DCD    524528
        0x00006a28:    00480088    ..H.    DCD    4718728
        0x00006a2c:    002800c8    ..(.    DCD    2621640
        0x00006a30:    006800a8    ..h.    DCD    6815912
        0x00006a34:    001800e8    ....    DCD    1573096
        0x00006a38:    00580098    ..X.    DCD    5767320
        0x00006a3c:    003800d8    ..8.    DCD    3670232
        0x00006a40:    007800b8    ..x.    DCD    7864504
        0x00006a44:    000400f8    ....    DCD    262392
        0x00006a48:    00440084    ..D.    DCD    4456580
        0x00006a4c:    002400c4    ..$.    DCD    2359492
        0x00006a50:    006400a4    ..d.    DCD    6553764
        0x00006a54:    001400e4    ....    DCD    1310948
        0x00006a58:    00540094    ..T.    DCD    5505172
        0x00006a5c:    003400d4    ..4.    DCD    3408084
        0x00006a60:    007400b4    ..t.    DCD    7602356
        0x00006a64:    000c00f4    ....    DCD    786676
        0x00006a68:    004c008c    ..L.    DCD    4980876
        0x00006a6c:    002c00cc    ..,.    DCD    2883788
        0x00006a70:    006c00ac    ..l.    DCD    7078060
        0x00006a74:    001c00ec    ....    DCD    1835244
        0x00006a78:    005c009c    ..\.    DCD    6029468
        0x00006a7c:    003c00dc    ..<.    DCD    3932380
        0x00006a80:    007c00bc    ..|.    DCD    8126652
        0x00006a84:    000200fc    ....    DCD    131324
        0x00006a88:    00420082    ..B.    DCD    4325506
        0x00006a8c:    002200c2    ..".    DCD    2228418
        0x00006a90:    006200a2    ..b.    DCD    6422690
        0x00006a94:    001200e2    ....    DCD    1179874
        0x00006a98:    00520092    ..R.    DCD    5374098
        0x00006a9c:    003200d2    ..2.    DCD    3277010
        0x00006aa0:    007200b2    ..r.    DCD    7471282
        0x00006aa4:    000a00f2    ....    DCD    655602
        0x00006aa8:    004a008a    ..J.    DCD    4849802
        0x00006aac:    002a00ca    ..*.    DCD    2752714
        0x00006ab0:    006a00aa    ..j.    DCD    6946986
        0x00006ab4:    001a00ea    ....    DCD    1704170
        0x00006ab8:    005a009a    ..Z.    DCD    5898394
        0x00006abc:    003a00da    ..:.    DCD    3801306
        0x00006ac0:    007a00ba    ..z.    DCD    7995578
        0x00006ac4:    000600fa    ....    DCD    393466
        0x00006ac8:    00460086    ..F.    DCD    4587654
        0x00006acc:    002600c6    ..&.    DCD    2490566
        0x00006ad0:    006600a6    ..f.    DCD    6684838
        0x00006ad4:    001600e6    ....    DCD    1442022
        0x00006ad8:    00560096    ..V.    DCD    5636246
        0x00006adc:    003600d6    ..6.    DCD    3539158
        0x00006ae0:    007600b6    ..v.    DCD    7733430
        0x00006ae4:    000e00f6    ....    DCD    917750
        0x00006ae8:    004e008e    ..N.    DCD    5111950
        0x00006aec:    002e00ce    ....    DCD    3014862
        0x00006af0:    006e00ae    ..n.    DCD    7209134
        0x00006af4:    001e00ee    ....    DCD    1966318
        0x00006af8:    005e009e    ..^.    DCD    6160542
        0x00006afc:    003e00de    ..>.    DCD    4063454
        0x00006b00:    007e00be    ..~.    DCD    8257726
        0x00006b04:    000100fe    ....    DCD    65790
        0x00006b08:    00410081    ..A.    DCD    4259969
        0x00006b0c:    002100c1    ..!.    DCD    2162881
        0x00006b10:    006100a1    ..a.    DCD    6357153
        0x00006b14:    001100e1    ....    DCD    1114337
        0x00006b18:    00510091    ..Q.    DCD    5308561
        0x00006b1c:    003100d1    ..1.    DCD    3211473
        0x00006b20:    007100b1    ..q.    DCD    7405745
        0x00006b24:    000900f1    ....    DCD    590065
        0x00006b28:    00490089    ..I.    DCD    4784265
        0x00006b2c:    002900c9    ..).    DCD    2687177
        0x00006b30:    006900a9    ..i.    DCD    6881449
        0x00006b34:    001900e9    ....    DCD    1638633
        0x00006b38:    00590099    ..Y.    DCD    5832857
        0x00006b3c:    003900d9    ..9.    DCD    3735769
        0x00006b40:    007900b9    ..y.    DCD    7930041
        0x00006b44:    000500f9    ....    DCD    327929
        0x00006b48:    00450085    ..E.    DCD    4522117
        0x00006b4c:    002500c5    ..%.    DCD    2425029
        0x00006b50:    006500a5    ..e.    DCD    6619301
        0x00006b54:    001500e5    ....    DCD    1376485
        0x00006b58:    00550095    ..U.    DCD    5570709
        0x00006b5c:    003500d5    ..5.    DCD    3473621
        0x00006b60:    007500b5    ..u.    DCD    7667893
        0x00006b64:    000d00f5    ....    DCD    852213
        0x00006b68:    004d008d    ..M.    DCD    5046413
        0x00006b6c:    002d00cd    ..-.    DCD    2949325
        0x00006b70:    006d00ad    ..m.    DCD    7143597
        0x00006b74:    001d00ed    ....    DCD    1900781
        0x00006b78:    005d009d    ..].    DCD    6095005
        0x00006b7c:    003d00dd    ..=.    DCD    3997917
        0x00006b80:    007d00bd    ..}.    DCD    8192189
        0x00006b84:    000300fd    ....    DCD    196861
        0x00006b88:    00430083    ..C.    DCD    4391043
        0x00006b8c:    002300c3    ..#.    DCD    2293955
        0x00006b90:    006300a3    ..c.    DCD    6488227
        0x00006b94:    001300e3    ....    DCD    1245411
        0x00006b98:    00530093    ..S.    DCD    5439635
        0x00006b9c:    003300d3    ..3.    DCD    3342547
        0x00006ba0:    007300b3    ..s.    DCD    7536819
        0x00006ba4:    000b00f3    ....    DCD    721139
        0x00006ba8:    004b008b    ..K.    DCD    4915339
        0x00006bac:    002b00cb    ..+.    DCD    2818251
        0x00006bb0:    006b00ab    ..k.    DCD    7012523
        0x00006bb4:    001b00eb    ....    DCD    1769707
        0x00006bb8:    005b009b    ..[.    DCD    5963931
        0x00006bbc:    003b00db    ..;.    DCD    3866843
        0x00006bc0:    007b00bb    ..{.    DCD    8061115
        0x00006bc4:    000700fb    ....    DCD    459003
        0x00006bc8:    00470087    ..G.    DCD    4653191
        0x00006bcc:    002700c7    ..'.    DCD    2556103
        0x00006bd0:    006700a7    ..g.    DCD    6750375
        0x00006bd4:    001700e7    ....    DCD    1507559
        0x00006bd8:    00570097    ..W.    DCD    5701783
        0x00006bdc:    003700d7    ..7.    DCD    3604695
        0x00006be0:    007700b7    ..w.    DCD    7798967
        0x00006be4:    000f00f7    ....    DCD    983287
        0x00006be8:    004f008f    ..O.    DCD    5177487
        0x00006bec:    002f00cf    ../.    DCD    3080399
        0x00006bf0:    006f00af    ..o.    DCD    7274671
        0x00006bf4:    001f00ef    ....    DCD    2031855
        0x00006bf8:    005f009f    .._.    DCD    6226079
        0x00006bfc:    003f00df    ..?.    DCD    4128991
        0x00006c00:    007f00bf    ....    DCD    8323263
        0x00006c04:    000000ff    ....    DCD    255
    .constdata
    BsrKyla
        0x00006c08:    00000014    ....    DCD    20
        0x00006c0c:    00000014    ....    DCD    20
        0x00006c10:    00000014    ....    DCD    20
        0x00006c14:    00000014    ....    DCD    20
        0x00006c18:    00000015    ....    DCD    21
        0x00006c1c:    00000015    ....    DCD    21
        0x00006c20:    00000015    ....    DCD    21
        0x00006c24:    00000016    ....    DCD    22
        0x00006c28:    00000016    ....    DCD    22
        0x00006c2c:    00000017    ....    DCD    23
        0x00006c30:    00000018    ....    DCD    24
        0x00006c34:    00000018    ....    DCD    24
        0x00006c38:    00000019    ....    DCD    25
        0x00006c3c:    0000001a    ....    DCD    26
        0x00006c40:    0000001b    ....    DCD    27
        0x00006c44:    0000001c    ....    DCD    28
        0x00006c48:    0000001d    ....    DCD    29
        0x00006c4c:    0000001e    ....    DCD    30
        0x00006c50:    0000001f    ....    DCD    31
        0x00006c54:    00000021    !...    DCD    33
        0x00006c58:    00000022    "...    DCD    34
        0x00006c5c:    00000023    #...    DCD    35
        0x00006c60:    00000025    %...    DCD    37
        0x00006c64:    00000026    &...    DCD    38
        0x00006c68:    00000028    (...    DCD    40
        0x00006c6c:    0000002a    *...    DCD    42
        0x00006c70:    0000002b    +...    DCD    43
        0x00006c74:    0000002d    -...    DCD    45
        0x00006c78:    0000002f    /...    DCD    47
        0x00006c7c:    00000031    1...    DCD    49
        0x00006c80:    00000033    3...    DCD    51
        0x00006c84:    00000035    5...    DCD    53
        0x00006c88:    00000037    7...    DCD    55
        0x00006c8c:    00000039    9...    DCD    57
        0x00006c90:    0000003b    ;...    DCD    59
        0x00006c94:    0000003d    =...    DCD    61
        0x00006c98:    0000003f    ?...    DCD    63
        0x00006c9c:    00000042    B...    DCD    66
        0x00006ca0:    00000044    D...    DCD    68
        0x00006ca4:    00000046    F...    DCD    70
        0x00006ca8:    00000049    I...    DCD    73
        0x00006cac:    0000004b    K...    DCD    75
        0x00006cb0:    0000004e    N...    DCD    78
        0x00006cb4:    00000050    P...    DCD    80
        0x00006cb8:    00000053    S...    DCD    83
        0x00006cbc:    00000055    U...    DCD    85
        0x00006cc0:    00000058    X...    DCD    88
        0x00006cc4:    0000005b    [...    DCD    91
        0x00006cc8:    0000005d    ]...    DCD    93
        0x00006ccc:    00000060    `...    DCD    96
        0x00006cd0:    00000063    c...    DCD    99
        0x00006cd4:    00000065    e...    DCD    101
        0x00006cd8:    00000068    h...    DCD    104
        0x00006cdc:    0000006b    k...    DCD    107
        0x00006ce0:    0000006e    n...    DCD    110
        0x00006ce4:    00000071    q...    DCD    113
        0x00006ce8:    00000073    s...    DCD    115
        0x00006cec:    00000076    v...    DCD    118
        0x00006cf0:    00000079    y...    DCD    121
        0x00006cf4:    0000007c    |...    DCD    124
        0x00006cf8:    0000007f    ....    DCD    127
        0x00006cfc:    00000082    ....    DCD    130
        0x00006d00:    00000085    ....    DCD    133
        0x00006d04:    00000088    ....    DCD    136
        0x00006d08:    0000008a    ....    DCD    138
        0x00006d0c:    0000008d    ....    DCD    141
        0x00006d10:    00000090    ....    DCD    144
        0x00006d14:    00000093    ....    DCD    147
        0x00006d18:    00000096    ....    DCD    150
        0x00006d1c:    00000099    ....    DCD    153
        0x00006d20:    0000009c    ....    DCD    156
        0x00006d24:    0000009f    ....    DCD    159
        0x00006d28:    000000a2    ....    DCD    162
        0x00006d2c:    000000a4    ....    DCD    164
        0x00006d30:    000000a7    ....    DCD    167
        0x00006d34:    000000aa    ....    DCD    170
        0x00006d38:    000000ad    ....    DCD    173
        0x00006d3c:    000000b0    ....    DCD    176
        0x00006d40:    000000b2    ....    DCD    178
        0x00006d44:    000000b5    ....    DCD    181
        0x00006d48:    000000b8    ....    DCD    184
        0x00006d4c:    000000ba    ....    DCD    186
        0x00006d50:    000000bd    ....    DCD    189
        0x00006d54:    000000c0    ....    DCD    192
        0x00006d58:    000000c2    ....    DCD    194
        0x00006d5c:    000000c5    ....    DCD    197
        0x00006d60:    000000c7    ....    DCD    199
        0x00006d64:    000000ca    ....    DCD    202
        0x00006d68:    000000cc    ....    DCD    204
        0x00006d6c:    000000ce    ....    DCD    206
        0x00006d70:    000000d1    ....    DCD    209
        0x00006d74:    000000d3    ....    DCD    211
        0x00006d78:    000000d5    ....    DCD    213
        0x00006d7c:    000000d7    ....    DCD    215
        0x00006d80:    000000da    ....    DCD    218
        0x00006d84:    000000dc    ....    DCD    220
        0x00006d88:    000000de    ....    DCD    222
        0x00006d8c:    000000e0    ....    DCD    224
        0x00006d90:    000000e2    ....    DCD    226
        0x00006d94:    000000e4    ....    DCD    228
        0x00006d98:    000000e5    ....    DCD    229
        0x00006d9c:    000000e7    ....    DCD    231
        0x00006da0:    000000e9    ....    DCD    233
        0x00006da4:    000000eb    ....    DCD    235
        0x00006da8:    000000ec    ....    DCD    236
        0x00006dac:    000000ee    ....    DCD    238
        0x00006db0:    000000ef    ....    DCD    239
        0x00006db4:    000000f1    ....    DCD    241
        0x00006db8:    000000f2    ....    DCD    242
        0x00006dbc:    000000f3    ....    DCD    243
        0x00006dc0:    000000f5    ....    DCD    245
        0x00006dc4:    000000f6    ....    DCD    246
        0x00006dc8:    000000f7    ....    DCD    247
        0x00006dcc:    000000f8    ....    DCD    248
        0x00006dd0:    000000f9    ....    DCD    249
        0x00006dd4:    000000fa    ....    DCD    250
        0x00006dd8:    000000fb    ....    DCD    251
        0x00006ddc:    000000fc    ....    DCD    252
        0x00006de0:    000000fc    ....    DCD    252
        0x00006de4:    000000fd    ....    DCD    253
        0x00006de8:    000000fd    ....    DCD    253
        0x00006dec:    000000fe    ....    DCD    254
        0x00006df0:    000000fe    ....    DCD    254
        0x00006df4:    000000ff    ....    DCD    255
        0x00006df8:    000000ff    ....    DCD    255
        0x00006dfc:    000000ff    ....    DCD    255
        0x00006e00:    000000ff    ....    DCD    255
        0x00006e04:    000000ff    ....    DCD    255
    Region$$Table$$Base
        0x00006e08:    00006e28    (n..    DCD    28200
        0x00006e0c:    20000000    ...     DCD    536870912
        0x00006e10:    00000054    T...    DCD    84
        0x00006e14:    00000104    ....    DCD    260
        0x00006e18:    00006e7c    |n..    DCD    28284
        0x00006e1c:    20000054    T..     DCD    536870996
        0x00006e20:    00002ea4    ....    DCD    11940
        0x00006e24:    00000120     ...    DCD    288
    Region$$Table$$Limit

** Section #2 'ER_RW' (SHT_PROGBITS) [SHF_ALLOC + SHF_WRITE]
    Size   : 84 bytes (alignment 4)
    Address: 0x20000000


** Section #3 'ER_ZI' (SHT_NOBITS) [SHF_ALLOC + SHF_WRITE]
    Size   : 11940 bytes (alignment 8)
    Address: 0x20000054


** Section #4 '.debug_abbrev' (SHT_PROGBITS)
    Size   : 1476 bytes


** Section #5 '.debug_frame' (SHT_PROGBITS)
    Size   : 6416 bytes


** Section #6 '.debug_info' (SHT_PROGBITS)
    Size   : 39084 bytes


** Section #7 '.debug_line' (SHT_PROGBITS)
    Size   : 14848 bytes


** Section #8 '.debug_loc' (SHT_PROGBITS)
    Size   : 4724 bytes


** Section #9 '.debug_macinfo' (SHT_PROGBITS)
    Size   : 197192 bytes


** Section #10 '.debug_pubnames' (SHT_PROGBITS)
    Size   : 2955 bytes


** Section #11 '.symtab' (SHT_SYMTAB)
    Size   : 15632 bytes (alignment 4)
    String table #12 '.strtab'
    Last local symbol no. 679


** Section #12 '.strtab' (SHT_STRTAB)
    Size   : 12512 bytes


** Section #13 '.note' (SHT_NOTE)
    Size   : 28 bytes (alignment 4)


** Section #14 '.comment' (SHT_PROGBITS)
    Size   : 37016 bytes


** Section #15 '.shstrtab' (SHT_STRTAB)
    Size   : 156 bytes


